---
archs:           [ i386, x86_64 ]
platform:        macosx
install-name:    '@rpath/DebugSymbolsDT.framework/Versions/A/DebugSymbolsDT'
current-version: 137.0
exports:         
  - archs:           [ i386 ]
    symbols:         [ GCC_except_table14, GCC_except_table17, GCC_except_table50, 
                       GCC_except_table73, GCC_except_table74, GCC_except_table78, 
                       __ZL16fsevent_callbackPK15__FSEventStreamPvmS2_PKmPKy, 
                       __ZN8CFStringC1EPKcm ]
    weak-def-symbols: [ __ZNSt3__118__insertion_sort_3IRPFbRKN17DWARFDebugAranges5RangeES4_EPS2_EEvT0_S9_T_, 
                        __ZNSt3__120__shared_ptr_pointerIP24MachO32RuntimeFileParserNS_14default_deleteIS1_EENS_9allocatorIS1_EEE21__on_zero_shared_weakEv, 
                        __ZNSt3__120__shared_ptr_pointerIP24MachO64RuntimeFileParserNS_14default_deleteIS1_EENS_9allocatorIS1_EEE16__on_zero_sharedEv, 
                        __ZNSt3__120__shared_ptr_pointerIP24MachO64RuntimeFileParserNS_14default_deleteIS1_EENS_9allocatorIS1_EEE21__on_zero_shared_weakEv, 
                        __ZNSt3__120__shared_ptr_pointerIP27BSDArchiveRuntimeFileParserNS_14default_deleteIS1_EENS_9allocatorIS1_EEE16__on_zero_sharedEv, 
                        __ZNSt3__120__shared_ptr_pointerIP27BSDArchiveRuntimeFileParserNS_14default_deleteIS1_EENS_9allocatorIS1_EEE21__on_zero_shared_weakEv, 
                        __ZNSt3__120__shared_ptr_pointerIPN14DWARFDebugLine9LineTableENS_14default_deleteIS2_EENS_9allocatorIS2_EEE21__on_zero_shared_weakEv, 
                        __ZNSt3__120__shared_ptr_pointerIPN6Mach327SectionENS_14default_deleteIS2_EENS_9allocatorIS2_EEE21__on_zero_shared_weakEv, 
                        __ZNSt3__120__shared_ptr_pointerIPN6Mach327SegmentENS_14default_deleteIS2_EENS_9allocatorIS2_EEE21__on_zero_shared_weakEv, 
                        __ZNSt3__120__shared_ptr_pointerIPN6Mach647SectionENS_14default_deleteIS2_EENS_9allocatorIS2_EEE21__on_zero_shared_weakEv, 
                        __ZNSt3__120__shared_ptr_pointerIPN6Mach647SegmentENS_14default_deleteIS2_EENS_9allocatorIS2_EEE21__on_zero_shared_weakEv, 
                        __ZNSt3__16__treeINS_12__value_typeIjhEENS_19__map_value_compareIjS2_NS_4lessIjEELb1EEENS_9allocatorIS2_EEE7destroyEPNS_11__tree_nodeIS2_PvEE, 
                        __ZNSt3__16vectorI14DWARFAttributeNS_9allocatorIS1_EEEC2ERKS4_, 
                        __ZNSt3__16vectorI8nlist_64NS_9allocatorIS1_EEE21__push_back_slow_pathIRKS1_EEvOT_, 
                        __ZNSt3__16vectorIN14DWARFDebugLine3RowENS_9allocatorIS2_EEE21__push_back_slow_pathIRKS2_EEvOT_, 
                        __ZNSt3__16vectorIN16DWARFDebugRanges5RangeENS_9allocatorIS2_EEE21__push_back_slow_pathIS2_EEvOT_, 
                        __ZNSt3__16vectorIN17DWARFDebugAranges5RangeENS_9allocatorIS2_EEE21__push_back_slow_pathIRKS2_EEvOT_, 
                        __ZNSt3__16vectorIN19DWARFDebugArangeSet13DescriptorTagENS_9allocatorIS2_EEEC2ERKS5_, 
                        __ZNSt3__16vectorIN19DWARFDebugInfoEntry10Attributes4InfoENS_9allocatorIS3_EEE21__push_back_slow_pathIRKS3_EEvOT_, 
                        __ZNSt3__16vectorIP10DSFSDBNodeNS_9allocatorIS2_EEE21__push_back_slow_pathIRKS2_EEvOT_, 
                        __ZNSt3__16vectorIP13UUIDEntries_tNS_9allocatorIS2_EEE21__push_back_slow_pathIRKS2_EEvOT_ ]
  - archs:           [ x86_64 ]
    symbols:         [ __ZNSt3__16vectorIP10DSFSDBNodeNS_9allocatorIS2_EEE21__push_back_slow_pathIRKS2_EEvOT_, 
                       GCC_except_table13, GCC_except_table49, GCC_except_table76, 
                       GCC_except_table77, GCC_except_table82, __ZL16fsevent_callbackPK15__FSEventStreamPvmS2_PKjPKy, 
                       __ZN8CFStringC1EPKcj, __ZNK16DWARFCompileUnit15SetDIERelationsEv, 
                       __ZNSt3__120__shared_ptr_pointerIP24MachO32RuntimeFileParserNS_14default_deleteIS1_EENS_9allocatorIS1_EEE21__on_zero_shared_weakEv, 
                       __ZNSt3__120__shared_ptr_pointerIP24MachO64RuntimeFileParserNS_14default_deleteIS1_EENS_9allocatorIS1_EEE16__on_zero_sharedEv, 
                       __ZNSt3__120__shared_ptr_pointerIP24MachO64RuntimeFileParserNS_14default_deleteIS1_EENS_9allocatorIS1_EEE21__on_zero_shared_weakEv, 
                       __ZNSt3__120__shared_ptr_pointerIP27BSDArchiveRuntimeFileParserNS_14default_deleteIS1_EENS_9allocatorIS1_EEE16__on_zero_sharedEv, 
                       __ZNSt3__120__shared_ptr_pointerIP27BSDArchiveRuntimeFileParserNS_14default_deleteIS1_EENS_9allocatorIS1_EEE21__on_zero_shared_weakEv, 
                       __ZNSt3__120__shared_ptr_pointerIPN14DWARFDebugLine9LineTableENS_14default_deleteIS2_EENS_9allocatorIS2_EEE21__on_zero_shared_weakEv, 
                       __ZNSt3__120__shared_ptr_pointerIPN6Mach327SectionENS_14default_deleteIS2_EENS_9allocatorIS2_EEE21__on_zero_shared_weakEv, 
                       __ZNSt3__120__shared_ptr_pointerIPN6Mach327SegmentENS_14default_deleteIS2_EENS_9allocatorIS2_EEE21__on_zero_shared_weakEv, 
                       __ZNSt3__120__shared_ptr_pointerIPN6Mach647SectionENS_14default_deleteIS2_EENS_9allocatorIS2_EEE21__on_zero_shared_weakEv, 
                       __ZNSt3__120__shared_ptr_pointerIPN6Mach647SegmentENS_14default_deleteIS2_EENS_9allocatorIS2_EEE21__on_zero_shared_weakEv, 
                       __ZNSt3__16__treeINS_12__value_typeIjhEENS_19__map_value_compareIjS2_NS_4lessIjEELb1EEENS_9allocatorIS2_EEE7destroyEPNS_11__tree_nodeIS2_PvEE, 
                       __ZNSt3__16vectorI8nlist_64NS_9allocatorIS1_EEE21__push_back_slow_pathIRKS1_EEvOT_, 
                       __ZNSt3__16vectorIN14DWARFDebugLine3RowENS_9allocatorIS2_EEE21__push_back_slow_pathIRKS2_EEvOT_, 
                       __ZNSt3__16vectorIN16DWARFDebugRanges5RangeENS_9allocatorIS2_EEE21__push_back_slow_pathIS2_EEvOT_, 
                       __ZNSt3__16vectorIN17DWARFDebugAranges5RangeENS_9allocatorIS2_EEE21__push_back_slow_pathIRKS2_EEvOT_, 
                       __ZNSt3__16vectorIN19DWARFDebugInfoEntry10Attributes4InfoENS_9allocatorIS3_EEE21__push_back_slow_pathIRKS3_EEvOT_, 
                       __ZNSt3__16vectorIP13UUIDEntries_tNS_9allocatorIS2_EEE21__push_back_slow_pathIRKS2_EEvOT_ ]
    weak-def-symbols: [ __ZNSt3__121__murmur2_or_cityhashImLm64EEclEPKvm, 
                        __ZNSt3__121__murmur2_or_cityhashImLm64EE18__hash_len_0_to_16EPKcm, 
                        __ZNSt3__16vectorI28DWARFAbbreviationDeclarationNS_9allocatorIS1_EEE18__construct_at_endIPS1_EENS_9enable_ifIXsr21__is_forward_iteratorIT_EE5valueEvE4typeES8_S8_m ]
  - archs:           [ i386, x86_64 ]
    symbols:         [ __Z19NotifyDSYMObserversPK8__CFUUIDPK7__CFURLh, 
                       GCC_except_table0, GCC_except_table0, GCC_except_table0, 
                       GCC_except_table0, GCC_except_table0, GCC_except_table0, 
                       GCC_except_table1, GCC_except_table1, GCC_except_table1, 
                       GCC_except_table1, GCC_except_table10, GCC_except_table10, 
                       GCC_except_table10, GCC_except_table11, GCC_except_table11, 
                       GCC_except_table11, GCC_except_table11, GCC_except_table11, 
                       GCC_except_table12, GCC_except_table12, GCC_except_table13, 
                       GCC_except_table13, GCC_except_table14, GCC_except_table14, 
                       GCC_except_table14, GCC_except_table14, GCC_except_table14, 
                       GCC_except_table14, GCC_except_table14, GCC_except_table15, 
                       GCC_except_table15, GCC_except_table15, GCC_except_table15, 
                       GCC_except_table15, GCC_except_table15, GCC_except_table16, 
                       GCC_except_table16, GCC_except_table16, GCC_except_table17, 
                       GCC_except_table17, GCC_except_table18, GCC_except_table18, 
                       GCC_except_table18, GCC_except_table18, GCC_except_table18, 
                       GCC_except_table19, GCC_except_table19, GCC_except_table19, 
                       GCC_except_table19, GCC_except_table2, GCC_except_table2, 
                       GCC_except_table2, GCC_except_table20, GCC_except_table20, 
                       GCC_except_table20, GCC_except_table20, GCC_except_table20, 
                       GCC_except_table20, GCC_except_table20, GCC_except_table20, 
                       GCC_except_table21, GCC_except_table21, GCC_except_table22, 
                       GCC_except_table23, GCC_except_table23, GCC_except_table24, 
                       GCC_except_table24, GCC_except_table25, GCC_except_table25, 
                       GCC_except_table25, GCC_except_table25, GCC_except_table26, 
                       GCC_except_table26, GCC_except_table26, GCC_except_table27, 
                       GCC_except_table27, GCC_except_table27, GCC_except_table27, 
                       GCC_except_table28, GCC_except_table28, GCC_except_table29, 
                       GCC_except_table3, GCC_except_table3, GCC_except_table3, 
                       GCC_except_table30, GCC_except_table30, GCC_except_table31, 
                       GCC_except_table31, GCC_except_table31, GCC_except_table31, 
                       GCC_except_table32, GCC_except_table32, GCC_except_table32, 
                       GCC_except_table33, GCC_except_table34, GCC_except_table35, 
                       GCC_except_table36, GCC_except_table36, GCC_except_table37, 
                       GCC_except_table37, GCC_except_table37, GCC_except_table38, 
                       GCC_except_table39, GCC_except_table4, GCC_except_table4, 
                       GCC_except_table40, GCC_except_table40, GCC_except_table40, 
                       GCC_except_table40, GCC_except_table41, GCC_except_table41, 
                       GCC_except_table44, GCC_except_table44, GCC_except_table44, 
                       GCC_except_table45, GCC_except_table46, GCC_except_table47, 
                       GCC_except_table48, GCC_except_table49, GCC_except_table5, 
                       GCC_except_table5, GCC_except_table50, GCC_except_table51, 
                       GCC_except_table52, GCC_except_table54, GCC_except_table54, 
                       GCC_except_table56, GCC_except_table59, GCC_except_table6, 
                       GCC_except_table6, GCC_except_table6, GCC_except_table6, 
                       GCC_except_table6, GCC_except_table6, GCC_except_table6, 
                       GCC_except_table6, GCC_except_table6, GCC_except_table6, 
                       GCC_except_table60, GCC_except_table7, GCC_except_table7, 
                       GCC_except_table7, GCC_except_table7, GCC_except_table7, 
                       GCC_except_table7, GCC_except_table75, GCC_except_table8, 
                       GCC_except_table8, GCC_except_table8, GCC_except_table8, 
                       GCC_except_table80, GCC_except_table9, GCC_except_table9, 
                       GCC_except_table9, GCC_except_table9, GCC_except_table9, 
                       GCC_except_table9, GCC_except_table9, _CopyMatchingUUIDsForCFURL, 
                       _CopyMatchingUUIDsForFileSystemRepresentation, _CopyMatchingUUIDsInDSYMBundle, 
                       _DBGAddDSYMURL, _DBGAppID, _DBGBlockPath, _DBGCopyDSYMPropertyLists, 
                       _DBGCopyDSYMURLForUUID, _DBGCopyDSYMURLForUUIDWithOptions, 
                       _DBGCopyFullDSYMURLForUUID, _DBGCopyFullDSYMURLForUUIDWithOptions, 
                       _DBGCopyMatchingUUIDsForURL, _DBGDictKey_FUNCTIONS, 
                       _DBGDictKey_LINE_TABLE, _DBGDictKey_PATH, _DBGDictKey_TAG, 
                       _DBGDictKey_UID, _DBGDwarfClose, _DBGDwarfGetAttributeKey, 
                       _DBGDwarfGetCompileUnitFunctions, _DBGDwarfGetCompileUnitLineTable, 
                       _DBGDwarfGetCompileUnits, _DBGDwarfGetDIEObjectsForAddress, 
                       _DBGDwarfGetFirstChild, _DBGDwarfGetLinkMap, _DBGDwarfGetParent, 
                       _DBGDwarfGetSibling, _DBGDwarfGetTagKey, _DBGDwarfOpen, 
                       _DBGExplicitSearchPathAdd, _DBGExplicitSearchPathRemove, 
                       _DBGExplicitSearchPathRemoveAll, _DBGPauseWatchingPaths, 
                       _DBGPrefKey_DisableFSEvents, _DBGPrefKey_FileMappedPaths, 
                       _DBGPrefKey_SearchPaths, _DBGPrefKey_ShellCommands, 
                       _DBGPrefKey_SpotlightPaths, _DBGPrefKey_SpotlightTimeout, 
                       _DBGRegisterObserver, _DBGResumeWatchingPaths, _DBGSpotlightStart, 
                       _DBGSpotlightStop, _DBGTerminate, _DBGUnregisterObserver, 
                       _DW_TAG_value_to_name, _DW_TAG_value_to_name.invalid, 
                       _DebugSymbolsDTVersionNumber, _DebugSymbolsDTVersionString, 
                       __Z14compare_symbolPKvS0_, __Z16CreateDictForDIEP13DWARFInstancePK16DWARFCompileUnitPK19DWARFDebugInfoEntryR19CFMutableDictionary, 
                       __Z23GetDictForDIEAttributesP13DWARFInstancePK16DWARFCompileUnitPK19DWARFDebugInfoEntry, 
                       __Z23GetMachFileTypeAsStringj, __Z24UpdateCachedQueryResultsv, 
                       __Z26CreateUUIDsFromFatMachFileR6UnixFDxR10BinaryDatajjRK8ArchSpecR14CFMutableArray, 
                       __Z28CreateUUIDFromSkinnyMachFileR6UnixFDxR10BinaryDatajjRK8ArchSpec, 
                       __Z33WaitForSpotlightQueryToReachState19SpotlightQueryStateiPK9__CFArray, 
                       __Z7log_msgiPKcz, __ZGVZL15GetUniqueStringP13DWARFInstancePK10__CFStringE16g_global_strings, 
                       __ZL11ResolvePathPKcS0_Pcm, __ZL11g_arch_defs, __ZL13RangeLessThanRKN17DWARFDebugAranges5RangeES2_, 
                       __ZL13g_prefs_mutex, __ZL13g_prefs_shell, __ZL14ExtractIntegerRK13BinaryDataRefjRj, 
                       __ZL14g_prefs_search, __ZL14sAllAttributes, __ZL15GetUniqueStringP13DWARFInstancePK10__CFString, 
                       __ZL15g_filesystem_db, __ZL16ReadUserDefaultsv, 
                       __ZL16g_observer_array, __ZL17g_prefs_spotlight, 
                       __ZL17g_spotlight_query, __ZL18g_spotlight_thread, 
                       __ZL18sItemPathAttribute, __ZL19GetBundleParentPathPKcS0_Pc, 
                       __ZL19g_default_addr_size, __ZL19g_prefs_file_mapped, 
                       __ZL19sPrefetchAttributes, __ZL20SpotlightQueryThreadPv, 
                       __ZL20g_prefs_already_read, __ZL22g_observer_array_mutex, 
                       __ZL23AddKeyValueToDictionaryPKvS0_Pv, __ZL23g_spotlight_query_mutex, 
                       __ZL23g_spotlight_query_state, __ZL24MDQueryDidFinishCallbackP22__CFNotificationCenterPvPK10__CFStringPKvPK14__CFDictionary, 
                       __ZL24MDQueryDidUpdateCallbackP22__CFNotificationCenterPvPK10__CFStringPKvPK14__CFDictionary, 
                       __ZL25g_prefs_disable_fs_events, __ZL25g_prefs_spotlight_timeout, 
                       __ZL26g_filesystem_db_user_paths, __ZL27MDServerPortInvalidCallbackP22__CFNotificationCenterPvPK10__CFStringPKvPK14__CFDictionary, 
                       __ZL27ParseStatementTableCallbackjRKN14DWARFDebugLine12StateMachineEPv, 
                       __ZL28UpdateCachedQueryResultsItemP8__MDItemPK10__CFStringPK9__CFArrayS6_, 
                       __ZL28g_implicit_search_path_array, __ZL28g_spotlight_query_state_cond, 
                       __ZL29CopyDSYMURLForUUIDWithOptionsPK8__CFUUIDPKvS3_S3_S3_, 
                       __ZL30g_spotlight_thread_runloop_ref, __ZL30g_spotlight_thread_should_exit, 
                       __ZL31CreateDSYMPathUsingShellCommandPK10__CFStringS1_, 
                       __ZL32_DBGStartWatchingOrScanningPathsPKvbb, __ZL32g_filesystem_db_user_paths_mutex, 
                       __ZL33CreateDSYMPathUsingFileMappedPathPK10__CFStringPKv, 
                       __ZL33PopulateDictionaryWithPlistAtPathPK10__CFStringP14__CFDictionary, 
                       __ZL38CreateDSYMPathUsingExplicitSearchPathsPK8__CFUUIDPK9__CFArraybbb, 
                       __ZN10BinaryData16LoadFileContentsEPKc, __ZN10BinaryData8ReadFileER6UnixFDxm, 
                       __ZN10BinaryDataC1Ev, __ZN10BinaryDataD0Ev, __ZN10BinaryDataD1Ev, 
                       __ZN10DSFSDBNode20UpdateInodeAndDeviceEyi, __ZN10DSFSDBNodeC2EPKcyiitP13DSFSDBNodeDir, 
                       __ZN10DSFSDBNodeD0Ev, __ZN10DSFSDBNodeD1Ev, __ZN10DSFSDBNodeD2Ev, 
                       __ZN11NListSymtab17ExtractAllSymbolsEP25RuntimeFileParserProtocol, 
                       __ZN11NListSymtabC1Ev, __ZN11NListSymtabD1Ev, __ZN11RuntimeFile8LoadFileEPKc, 
                       __ZN11RuntimeFileC2EPKcjRi, __ZN12CFMutableSet8AddValueEPKvb, 
                       __ZN12CFMutableSetC1EP7__CFSet, __ZN12CFMutableSetD0Ev, 
                       __ZN12CFMutableSetD1Ev, __ZN13BinaryDataRefC1EPKvmb, 
                       __ZN13BinaryDataRefC1Ev, __ZN13BinaryDataRefC2Ev, 
                       __ZN13BinaryDataRefD0Ev, __ZN13BinaryDataRefD1Ev, 
                       __ZN13BinaryDataRefD2Ev, __ZN13DSFSDBNodeDir12AddOrGetNodeEPKcyiii, 
                       __ZN13DSFSDBNodeDir15IterateChildrenEU13block_pointerFvP10DSFSDBNodeE, 
                       __ZN13DSFSDBNodeDir15RemoveChildNodeEPKc, __ZN13DSFSDBNodeDir17RemoveAllChildrenEv, 
                       __ZN13DSFSDBNodeDir24MarkChildrenAsNotVisitedEv, 
                       __ZN13DSFSDBNodeDir26RemoveChildrenIfNotVisitedEv, 
                       __ZN13DSFSDBNodeDir7GetNodeEPKc, __ZN13DSFSDBNodeDirD0Ev, 
                       __ZN13DSFSDBNodeDirD1Ev, __ZN14CFMutableArray11AppendValueEPKvb, 
                       __ZN14CFMutableArrayC1EP9__CFArray, __ZN14CFMutableArrayD0Ev, 
                       __ZN14CFMutableArrayD1Ev, __ZN14DSFSDBNodeDSYM16RemoveAllEntriesEv, 
                       __ZN14DSFSDBNodeDSYM20AddNodeToUUIDEntriesEP13UUIDEntries_tPKcyi, 
                       __ZN14DSFSDBNodeDSYM20UpdateInodeAndDeviceEyi, __ZN14DWARFDebugInfo12SetDwarfDataEP9DWARFData, 
                       __ZN14DWARFDebugInfo13LookupAddressEyjRNSt3__110shared_ptrI16DWARFCompileUnitEEPPK19DWARFDebugInfoEntryS8_, 
                       __ZN14DWARFDebugInfo18GetNumCompileUnitsEv, __ZN14DWARFDebugInfo21GetCompileUnitAtIndexEj, 
                       __ZN14DWARFDebugInfo27GetCompileUnitContainingDIEEj, 
                       __ZN14DWARFDebugInfo5ParseEv, __ZN14DWARFDebugInfo9CreateMapERNSt3__16vectorI9dw_symbolNS0_9allocatorIS2_EEEE, 
                       __ZN14DWARFDebugInfo9GetDIEPtrEjPNSt3__110shared_ptrI16DWARFCompileUnitEE, 
                       __ZN14DWARFDebugInfoC1Ev, __ZN14DWARFDebugLine13ParseIfNeededERK13BinaryDataRef, 
                       __ZN14DWARFDebugLine13ParsePrologueERK13BinaryDataRefPjPNS_8PrologueE, 
                       __ZN14DWARFDebugLine19ParseStatementTableERK13BinaryDataRefPjPFvjRKNS_12StateMachineEPvES7_, 
                       __ZN14DWARFDebugLine5ParseERK13BinaryDataRef, __ZN14DWARFFormValue12ExtractValueERK13BinaryDataRefPjPK16DWARFCompileUnit, 
                       __ZN14DWARFFormValue9SkipValueEhRK13BinaryDataRefPjPK16DWARFCompileUnit, 
                       __ZN14DWARFFormValueC1Eh, __ZN15DSFSStringTable6internEPKc, 
                       __ZN15DSFSStringTableC1Ev, __ZN15DSFSStringTableD1Ev, 
                       __ZN16DWARFCompileUnit12GetLineTableEv, __ZN16DWARFCompileUnit13LookupAddressEyPPK19DWARFDebugInfoEntryS3_, 
                       __ZN16DWARFCompileUnit14GetAddressSizeEPKS_, __ZN16DWARFCompileUnit16GetLineTableFileEj, 
                       __ZN16DWARFCompileUnit7ExtractEPj, __ZN16DWARFCompileUnitC1EP9DWARFData, 
                       __ZN16DWARFDebugAbbrev5ParseERK13BinaryDataRef, 
                       __ZN16DWARFDebugAbbrevC1Ev, __ZN16DWARFDebugRanges15ContainsAddressEyRK13BinaryDataRefjyj, 
                       __ZN16DWARFDebugRanges9RangeList12AppendRangesEyjR17DWARFDebugAranges, 
                       __ZN16DWARFDebugRanges9RangeList7ExtractEPK9DWARFDataPjj, 
                       __ZN17DWARFDebugAranges11AppendRangeERKNS_5RangeE, 
                       __ZN17DWARFDebugAranges4SortEv, __ZN17DWARFDebugAranges7ExtractEPK9DWARFData, 
                       __ZN17DWARFDebugArangesC1Ev, __ZN17DWARFLocationList7ExtractEPK16DWARFCompileUnitRK13BinaryDataRefPjRS3_, 
                       __ZN17RuntimeFileParser12GetFileStatsERyS0_S0_S0_S0_S0_S0_, 
                       __ZN17RuntimeFileParser13ObjectAtIndexEj, __ZN17RuntimeFileParser14GetNListSymtabER13BinaryDataRefS1_bRj, 
                       __ZN17RuntimeFileParser18SelectArchitectureERK8ArchSpec, 
                       __ZN17RuntimeFileParser5ParseEv, __ZN17RuntimeFileParser7GetUUIDEPh, 
                       __ZN17RuntimeFileParser8CanParseEv, __ZN17RuntimeFileParser9GetObjectEPKcj, 
                       __ZN17RuntimeFileParserC1EPKcjRi, __ZN17RuntimeFileParserC2EPKcjRi, 
                       __ZN19CFMutableDictionary13AddValueUInt8EPK10__CFStringhb, 
                       __ZN19CFMutableDictionary14AddValueUInt16EPK10__CFStringtb, 
                       __ZN19CFMutableDictionary14AddValueUInt32EPK10__CFStringjb, 
                       __ZN19CFMutableDictionary14AddValueUInt64EPK10__CFStringyb, 
                       __ZN19CFMutableDictionary14SetValueUInt32EPK10__CFStringjb, 
                       __ZN19CFMutableDictionary8AddValueEPK10__CFStringPKvb, 
                       __ZN19CFMutableDictionary8SetValueEPK10__CFStringPKvb, 
                       __ZN19CFMutableDictionaryC1EP14__CFDictionary, __ZN19CFMutableDictionaryD0Ev, 
                       __ZN19CFMutableDictionaryD1Ev, __ZN19DWARFDebugArangeSet7ExtractEPK9DWARFDataPj, 
                       __ZN19DWARFDebugArangeSetC1Ev, __ZN19DWARFDebugInfoEntry10AttributesC1Ev, 
                       __ZN19DWARFDebugInfoEntry10AttributesD1Ev, __ZN19DWARFDebugInfoEntry7ExtractEP9DWARFDataPK16DWARFCompileUnitPj, 
                       __ZN20ELFRuntimeFileParser12GetFileStatsERyS0_S0_S0_S0_S0_S0_, 
                       __ZN20ELFRuntimeFileParser13DumpELFHeaderEPNSt3__113basic_ostreamIcNS0_11char_traitsIcEEEERK14Elf64_Ehdr_Tag, 
                       __ZN20ELFRuntimeFileParser14GetNListSymtabER13BinaryDataRefS1_bRj, 
                       __ZN20ELFRuntimeFileParser15ParserELFHeaderEv, __ZN20ELFRuntimeFileParser18SelectArchitectureERK8ArchSpec, 
                       __ZN20ELFRuntimeFileParser19ParseProgramHeadersEv, 
                       __ZN20ELFRuntimeFileParser19ParseSectionHeadersEv, 
                       __ZN20ELFRuntimeFileParser20DumpELFHeader_e_typeEPNSt3__113basic_ostreamIcNS0_11char_traitsIcEEEEt, 
                       __ZN20ELFRuntimeFileParser20DumpELFProgramHeaderEPNSt3__113basic_ostreamIcNS0_11char_traitsIcEEEERK14Elf64_Phdr_Tag, 
                       __ZN20ELFRuntimeFileParser20DumpELFSectionHeaderEPNSt3__113basic_ostreamIcNS0_11char_traitsIcEEEERK14Elf64_Shdr_Tag, 
                       __ZN20ELFRuntimeFileParser27DumpELFProgramHeader_p_typeEPNSt3__113basic_ostreamIcNS0_11char_traitsIcEEEEj, 
                       __ZN20ELFRuntimeFileParser28DumpELFSectionHeader_sh_typeEPNSt3__113basic_ostreamIcNS0_11char_traitsIcEEEEj, 
                       __ZN20ELFRuntimeFileParser29DumpELFHeader_e_ident_EI_DATAEPNSt3__113basic_ostreamIcNS0_11char_traitsIcEEEEh, 
                       __ZN20ELFRuntimeFileParser30DumpELFHeader_e_ident_EI_CLASSEPNSt3__113basic_ostreamIcNS0_11char_traitsIcEEEEh, 
                       __ZN20ELFRuntimeFileParser5ParseEv, __ZN20ELFRuntimeFileParser7GetUUIDEPh, 
                       __ZN20ELFRuntimeFileParser8CanParseEv, __ZN20ELFRuntimeFileParserC1ER11RuntimeFile, 
                       __ZN24MachO32RuntimeFileParser12GetFileStatsERyS0_S0_S0_S0_S0_S0_, 
                       __ZN24MachO32RuntimeFileParser14GetNListSymtabER13BinaryDataRefS1_bRj, 
                       __ZN24MachO32RuntimeFileParser18ParseSymtabHeadersEv, 
                       __ZN24MachO32RuntimeFileParser18SelectArchitectureERK8ArchSpec, 
                       __ZN24MachO32RuntimeFileParser20ExtractSectionHeaderERK13BinaryDataRefPjP7section, 
                       __ZN24MachO32RuntimeFileParser20ExtractSegmentHeaderERK13BinaryDataRefPjPK12load_commandP15segment_command, 
                       __ZN24MachO32RuntimeFileParser21ExtractSegmentHeadersERK13BinaryDataRefj, 
                       __ZN24MachO32RuntimeFileParser26ExtractDysymtabLoadCommandERK13BinaryDataRefPjPK12load_commandP16dysymtab_command, 
                       __ZN24MachO32RuntimeFileParser4DumpEPNSt3__113basic_ostreamIcNS0_11char_traitsIcEEEEPK11mach_header, 
                       __ZN24MachO32RuntimeFileParser4DumpEPNSt3__113basic_ostreamIcNS0_11char_traitsIcEEEEPK15segment_command, 
                       __ZN24MachO32RuntimeFileParser4DumpEPNSt3__113basic_ostreamIcNS0_11char_traitsIcEEEEPK7section, 
                       __ZN24MachO32RuntimeFileParser5ParseEv, __ZN24MachO32RuntimeFileParser7GetUUIDEPh, 
                       __ZN24MachO32RuntimeFileParser8CanParseEv, __ZN24MachO32RuntimeFileParserC1ER11RuntimeFilexm, 
                       __ZN24MachO64RuntimeFileParser12GetFileStatsERyS0_S0_S0_S0_S0_S0_, 
                       __ZN24MachO64RuntimeFileParser14GetNListSymtabER13BinaryDataRefS1_bRj, 
                       __ZN24MachO64RuntimeFileParser18ParseSymtabHeadersEv, 
                       __ZN24MachO64RuntimeFileParser18SelectArchitectureERK8ArchSpec, 
                       __ZN24MachO64RuntimeFileParser20ExtractSectionHeaderERK13BinaryDataRefPjP10section_64, 
                       __ZN24MachO64RuntimeFileParser20ExtractSegmentHeaderERK13BinaryDataRefPjPK12load_commandP18segment_command_64, 
                       __ZN24MachO64RuntimeFileParser21ExtractSegmentHeadersERK13BinaryDataRefj, 
                       __ZN24MachO64RuntimeFileParser26ExtractDysymtabLoadCommandERK13BinaryDataRefPjPK12load_commandP16dysymtab_command, 
                       __ZN24MachO64RuntimeFileParser4DumpEPNSt3__113basic_ostreamIcNS0_11char_traitsIcEEEEPK10section_64, 
                       __ZN24MachO64RuntimeFileParser4DumpEPNSt3__113basic_ostreamIcNS0_11char_traitsIcEEEEPK14mach_header_64, 
                       __ZN24MachO64RuntimeFileParser4DumpEPNSt3__113basic_ostreamIcNS0_11char_traitsIcEEEEPK18segment_command_64, 
                       __ZN24MachO64RuntimeFileParser5ParseEv, __ZN24MachO64RuntimeFileParser7GetUUIDEPh, 
                       __ZN24MachO64RuntimeFileParser8CanParseEv, __ZN24MachO64RuntimeFileParserC1ER11RuntimeFilexm, 
                       __ZN25MachOFatRuntimeFileParser12GetFileStatsERyS0_S0_S0_S0_S0_S0_, 
                       __ZN25MachOFatRuntimeFileParser12SelectObjectEPKc, 
                       __ZN25MachOFatRuntimeFileParser13ObjectAtIndexEj, 
                       __ZN25MachOFatRuntimeFileParser14GetNListSymtabER13BinaryDataRefS1_bRj, 
                       __ZN25MachOFatRuntimeFileParser16VerifyFatHeadersERK13BinaryDataRef, 
                       __ZN25MachOFatRuntimeFileParser18SelectArchitectureERK8ArchSpec, 
                       __ZN25MachOFatRuntimeFileParser20ExtractArchitecturesERK13BinaryDataRefj, 
                       __ZN25MachOFatRuntimeFileParser4DumpEPNSt3__113basic_ostreamIcNS0_11char_traitsIcEEEEPK10fat_header, 
                       __ZN25MachOFatRuntimeFileParser4DumpEPNSt3__113basic_ostreamIcNS0_11char_traitsIcEEEEPK8fat_arch, 
                       __ZN25MachOFatRuntimeFileParser5ParseEv, __ZN25MachOFatRuntimeFileParser7GetUUIDEPh, 
                       __ZN25MachOFatRuntimeFileParser8CanParseEv, __ZN25MachOFatRuntimeFileParser9GetObjectEPKcj, 
                       __ZN25MachOFatRuntimeFileParserC1ER11RuntimeFile, 
                       __ZN27BSDArchiveRuntimeFileParser12GetFileStatsERyS0_S0_S0_S0_S0_S0_, 
                       __ZN27BSDArchiveRuntimeFileParser12SelectObjectEPKc, 
                       __ZN27BSDArchiveRuntimeFileParser13ExtractObjectERK13BinaryDataRefj, 
                       __ZN27BSDArchiveRuntimeFileParser13ObjectAtIndexEj, 
                       __ZN27BSDArchiveRuntimeFileParser14GetNListSymtabER13BinaryDataRefS1_bRj, 
                       __ZN27BSDArchiveRuntimeFileParser18SelectArchitectureERK8ArchSpec, 
                       __ZN27BSDArchiveRuntimeFileParser27ExtractArchivePathAndObjectEPKcRNSt3__112basic_stringIcNS2_11char_traitsIcEENS2_9allocatorIcEEEES9_, 
                       __ZN27BSDArchiveRuntimeFileParser5ParseEv, __ZN27BSDArchiveRuntimeFileParser7GetUUIDEPh, 
                       __ZN27BSDArchiveRuntimeFileParser8CanParseEv, __ZN27BSDArchiveRuntimeFileParser9GetObjectEPKcj, 
                       __ZN27BSDArchiveRuntimeFileParserC1ER11RuntimeFilexm, 
                       __ZN27BSDArchiveRuntimeFileParserD0Ev, __ZN27BSDArchiveRuntimeFileParserD1Ev, 
                       __ZN27BSDArchiveRuntimeFileParserD2Ev, __ZN28DWARFAbbreviationDeclaration7ExtractERK13BinaryDataRefPj, 
                       __ZN28DWARFAbbreviationDeclaration7ExtractERK13BinaryDataRefPjy, 
                       __ZN28DWARFAbbreviationDeclarationC1Ev, __ZN31DWARFAbbreviationDeclarationSet7ExtractERK13BinaryDataRefPj, 
                       __ZN3Log12DebugVerboseEPKcz, __ZN3Log5DebugEPKcz, 
                       __ZN3Log5ErrorEPKcz, __ZN3Log7WarningEPKcz, __ZN5NList9Extract32ERK13BinaryDataRefPjR8nlist_64, 
                       __ZN5NList9Extract64ERK13BinaryDataRefPjR8nlist_64, 
                       __ZN6CFDataC1EPK8__CFData, __ZN6CFDataD0Ev, __ZN6CFDataD1Ev, 
                       __ZN6DSFSDB13HandleNewDSYMEPK10__CFStringPK9__CFArrayS5_, 
                       __ZN6DSFSDB13ScanDirectoryEPKcb, __ZN6DSFSDB14BlockDirectoryEPKc, 
                       __ZN6DSFSDB14WatchDirectoryEPKcb, __ZN6DSFSDB14_HandleFSEventEPKciy, 
                       __ZN6DSFSDB15FullPathsToUUIDEPKcU13block_pointerFvS1_PbE, 
                       __ZN6DSFSDB17_Terminate_lockedEb, __ZN6DSFSDB18_HandleFile_lockedEP13DSFSDBNodeDirPcPKc, 
                       __ZN6DSFSDB18_Initialize_lockedEv, __ZN6DSFSDB21StopWatchingDirectoryEPKc, 
                       __ZN6DSFSDB21_HandleNewDSYM_lockedEP8__MDItemPcPK9__CFArrayS5_, 
                       __ZN6DSFSDB21_ScanDirectory_lockedEPKcP13DSFSDBNodeDirii, 
                       __ZN6DSFSDB22_NavigateToNode_lockedEPKci, __ZN6DSFSDB23StopWatchingDirectoriesEv, 
                       __ZN6DSFSDB23_AddUUIDMapEntry_lockedEPKc, __ZN6DSFSDB24PauseWatchingDirectoriesEv, 
                       __ZN6DSFSDB24_HandleDSYMBundle_lockedEP13DSFSDBNodeDirPciPKc, 
                       __ZN6DSFSDB25ResumeWatchingDirectoriesEv, __ZN6DSFSDB26HandleNewDSYMFromSpotlightEP8__MDItemPK10__CFStringPK9__CFArrayS7_, 
                       __ZN6DSFSDB26_StartWatchingPaths_lockedEv, __ZN6DSFSDB29_HandleDSYMBundleUUIDs_lockedEP13DSFSDBNodeDirPcPKcPK9__CFArrayS7_, 
                       __ZN6DSFSDB30HandleRemovedDSYMFromSpotlightEP8__MDItem, 
                       __ZN6DSFSDB9TerminateEv, __ZN6DSFSDBC1Ev, __ZN6DSFSDBC2Ev, 
                       __ZN6Mach3210AddSegmentERNSt3__110shared_ptrINS_7SegmentEEE, 
                       __ZN6Mach327SectionC1ERK7sectionPKhj, __ZN6Mach327SectionD1Ev, 
                       __ZN6Mach327SegmentC1ERK15segment_command, __ZN6Mach327SegmentD1Ev, 
                       __ZN6Mach329SetSymtabERK14symtab_command, __ZN6Mach6410AddSegmentERNSt3__110shared_ptrINS_7SegmentEEE, 
                       __ZN6Mach647SectionC1ERK10section_64PKhy, __ZN6Mach647SectionD1Ev, 
                       __ZN6Mach647SegmentC1ERK18segment_command_64, __ZN6Mach647SegmentD1Ev, 
                       __ZN6Mach649SetSymtabERK14symtab_command, __ZN8ArchSpec7GetNameEjj, 
                       __ZN8ArchSpec7SetNameEPKc, __ZN8ArchSpecC1EPKc, 
                       __ZN8CFString24FileSystemRepresentationEPK10__CFStringRNSt3__112basic_stringIcNS3_11char_traitsIcEENS3_9allocatorIcEEEE, 
                       __ZN8CFString27GetFileSystemRepresentationERNSt3__112basic_stringIcNS0_11char_traitsIcEENS0_9allocatorIcEEEE, 
                       __ZN8CFString27SetFileSystemRepresentationEPKc, 
                       __ZN8CFString37SetFileSystemRepresentationFromCFTypeEPKv, 
                       __ZN8CFString41SetFileSystemRepresentationAndExpandTildeEPKc, 
                       __ZN8CFStringC1EPK10__CFString, __ZN8CFStringD0Ev, 
                       __ZN8CFStringD1Ev, __ZN9DWARFData13LookupAddressEyRNSt3__110shared_ptrI16DWARFCompileUnitEEPPK19DWARFDebugInfoEntryS8_PNS1_IN14DWARFDebugLine9LineTableEEEPj, 
                       __ZN9DWARFData13debug_arangesEv, __ZN9DWARFData16SupportedVersionEt, 
                       __ZN9DWARFDataC1EP25RuntimeFileParserProtocol, __ZN9DWARFDataC2EP25RuntimeFileParserProtocol, 
                       __ZN9DWARFDataD1Ev, __ZN9DWARFDataD2Ev, __ZN9DWARFdSYM14GetPathToDWARFERNSt3__112basic_stringIcNS0_11char_traitsIcEENS0_9allocatorIcEEEENS_8FileTypeE, 
                       __ZN9DWARFdSYM22GetExtensionStartIndexEPKc, __ZN9MemoryMap18MMapFromOpenedFileEiP4statxm, 
                       __ZN9MemoryMap7SetSizeEm, __ZN9MemoryMapC1Ev, __ZN9MemoryMapD0Ev, 
                       __ZN9MemoryMapD1Ev, __ZNK11NListSymtab14GetStabsStringEj, 
                       __ZNK12CFMutableSet8GetValueEPKv, __ZNK13BinaryDataRef10GetAddressEPj, 
                       __ZNK13BinaryDataRef11Get_SLEB128EPj, __ZNK13BinaryDataRef11Get_ULEB128EPj, 
                       __ZNK13BinaryDataRef11Skip_LEB128EPj, __ZNK13BinaryDataRef12MemoryAdviseEi, 
                       __ZNK13BinaryDataRef4Get8EPj, __ZNK13BinaryDataRef5Get16EPj, 
                       __ZNK13BinaryDataRef5Get32EPj, __ZNK13BinaryDataRef5Get64EPj, 
                       __ZNK13BinaryDataRef7GetCStrEPjj, __ZNK13BinaryDataRef7GetDataEPjj, 
                       __ZNK13BinaryDataRef8GetMax64EPjj, __ZNK14CFMutableArray15GetValueAtIndexEl, 
                       __ZNK14CFMutableArray8GetCountEv, __ZNK14DWARFDebugLine12GetLineTableEj, 
                       __ZNK14DWARFDebugLine8Prologue7GetFileEjRNSt3__112basic_stringIcNS1_11char_traitsIcEENS1_9allocatorIcEEEES8_, 
                       __ZNK14DWARFDebugLine9LineTable13LookupAddressEy, 
                       __ZNK14DWARFFormValue7CStringEPK13BinaryDataRef, 
                       __ZNK14DWARFFormValue9BlockDataEv, __ZNK14DWARFFormValue9ReferenceEPK16DWARFCompileUnit, 
                       __ZNK16DWARFCompileUnit17ParseDIEsIfNeededEv, __ZNK16DWARFCompileUnit3DIEEv, 
                       __ZNK16DWARFCompileUnit9GetDIEPtrEj, __ZNK16DWARFDebugAbbrev29GetAbbreviationDeclarationSetEj, 
                       __ZNK17DWARFDebugAranges11FindAddressEy, __ZNK17RuntimeFileParser10NumObjectsEv, 
                       __ZNK17RuntimeFileParser11GetFileSizeEv, __ZNK17RuntimeFileParser11GetFileTypeEv, 
                       __ZNK17RuntimeFileParser13GetCodeRangesER17DWARFDebugAranges, 
                       __ZNK17RuntimeFileParser13GetFileOffsetEv, __ZNK17RuntimeFileParser14GetCurrentArchER8ArchSpec, 
                       __ZNK17RuntimeFileParser14GetSectionInfoEjPNSt3__112basic_stringIcNS0_11char_traitsIcEENS0_9allocatorIcEEEEPyS8_S8_S8_PjP13BinaryDataRefSB_, 
                       __ZNK17RuntimeFileParser14GetSegmentInfoEjPNSt3__112basic_stringIcNS0_11char_traitsIcEENS0_9allocatorIcEEEEPyS8_S8_S8_PjP13BinaryDataRef, 
                       __ZNK17RuntimeFileParser15NeedsEndianSwapEv, __ZNK17RuntimeFileParser17ObjectNameAtIndexEj, 
                       __ZNK17RuntimeFileParser19GetNumArchitecturesEv, 
                       __ZNK17RuntimeFileParser21GetSectionIndexByNameEPKc, 
                       __ZNK17RuntimeFileParser21GetSegmentIndexByNameEPKc, 
                       __ZNK17RuntimeFileParser22GetArchitectureAtIndexEjR8ArchSpec, 
                       __ZNK17RuntimeFileParser24AppendSegmentInformationEP6Mach32, 
                       __ZNK17RuntimeFileParser24AppendSegmentInformationEP6Mach64, 
                       __ZNK17RuntimeFileParser24GetSectionIndexByAddressEy, 
                       __ZNK17RuntimeFileParser25GetMinimumInstructionSizeEv, 
                       __ZNK17RuntimeFileParser4DumpEPNSt3__113basic_ostreamIcNS0_11char_traitsIcEEEE, 
                       __ZNK17RuntimeFileParser5ScopeERNSt3__112basic_stringIcNS0_11char_traitsIcEENS0_9allocatorIcEEEEb, 
                       __ZNK17RuntimeFileParser7GetArchER8ArchSpec, __ZNK19DWARFDebugInfoEntry10Attributes22ExtractValueAsUnsignedEP9DWARFDataty, 
                       __ZNK19DWARFDebugInfoEntry10GetPubnameEP9DWARFDataPK16DWARFCompileUnitPPKc, 
                       __ZNK19DWARFDebugInfoEntry10GetPubnameEP9DWARFDataPK16DWARFCompileUnitRKNS_10AttributesEPPKc, 
                       __ZNK19DWARFDebugInfoEntry11GetByteSizeEP9DWARFDataPK16DWARFCompileUnitRKNS_10AttributesE, 
                       __ZNK19DWARFDebugInfoEntry13GetAttributesEP9DWARFDataPK16DWARFCompileUnitRNS_10AttributesEbj, 
                       __ZNK19DWARFDebugInfoEntry13LookupAddressEyP9DWARFDataPK16DWARFCompileUnitPKS_PS6_S7_, 
                       __ZNK19DWARFDebugInfoEntry15GetAddressRangeEP9DWARFDataPK16DWARFCompileUnitRyS5_Pj, 
                       __ZNK19DWARFDebugInfoEntry16GetAddressRangesEP9DWARFDataPK16DWARFCompileUnitR17DWARFDebugArangesj, 
                       __ZNK19DWARFDebugInfoEntry17GetAttributeValueEP9DWARFDataPK16DWARFCompileUnittR14DWARFFormValuePj, 
                       __ZNK19DWARFDebugInfoEntry25GetAttributeValueAsStringEP9DWARFDataPK16DWARFCompileUnittPKc, 
                       __ZNK19DWARFDebugInfoEntry27GetAttributeValueAsLocationEP9DWARFDataPK16DWARFCompileUnittR13BinaryDataRefPj, 
                       __ZNK19DWARFDebugInfoEntry27GetAttributeValueAsUnsignedEP9DWARFDataPK16DWARFCompileUnitty, 
                       __ZNK19DWARFDebugInfoEntry33BuildCompileUnitAddressRangeTableEP9DWARFDataPK16DWARFCompileUnitR17DWARFDebugAranges, 
                       __ZNK20ELFRuntimeFileParser11GetFileSizeEv, __ZNK20ELFRuntimeFileParser11GetFileTypeEv, 
                       __ZNK20ELFRuntimeFileParser13GetFileOffsetEv, __ZNK20ELFRuntimeFileParser14GetCurrentArchER8ArchSpec, 
                       __ZNK20ELFRuntimeFileParser14GetSectionInfoEjPNSt3__112basic_stringIcNS0_11char_traitsIcEENS0_9allocatorIcEEEEPyS8_S8_S8_PjP13BinaryDataRefSB_, 
                       __ZNK20ELFRuntimeFileParser15NeedsEndianSwapEv, 
                       __ZNK20ELFRuntimeFileParser21DumpELFProgramHeadersEPNSt3__113basic_ostreamIcNS0_11char_traitsIcEEEE, 
                       __ZNK20ELFRuntimeFileParser21DumpELFSectionHeadersEPNSt3__113basic_ostreamIcNS0_11char_traitsIcEEEE, 
                       __ZNK20ELFRuntimeFileParser21GetSectionIndexByNameEPKc, 
                       __ZNK20ELFRuntimeFileParser22GetArchitectureAtIndexEjR8ArchSpec, 
                       __ZNK20ELFRuntimeFileParser24GetSectionIndexByAddressEy, 
                       __ZNK20ELFRuntimeFileParser25GetMinimumInstructionSizeEv, 
                       __ZNK20ELFRuntimeFileParser4DumpEPNSt3__113basic_ostreamIcNS0_11char_traitsIcEEEE, 
                       __ZNK20ELFRuntimeFileParser5ScopeERNSt3__112basic_stringIcNS0_11char_traitsIcEENS0_9allocatorIcEEEEb, 
                       __ZNK20ELFRuntimeFileParser7GetArchER8ArchSpec, 
                       __ZNK24MachO32RuntimeFileParser11GetFileSizeEv, 
                       __ZNK24MachO32RuntimeFileParser11GetFileTypeEv, 
                       __ZNK24MachO32RuntimeFileParser13GetBinaryDataER13BinaryDataRef, 
                       __ZNK24MachO32RuntimeFileParser13GetCodeRangesER17DWARFDebugAranges, 
                       __ZNK24MachO32RuntimeFileParser13GetFileOffsetEv, 
                       __ZNK24MachO32RuntimeFileParser14GetCurrentArchER8ArchSpec, 
                       __ZNK24MachO32RuntimeFileParser14GetSectionInfoEjPNSt3__112basic_stringIcNS0_11char_traitsIcEENS0_9allocatorIcEEEEPyS8_S8_S8_PjP13BinaryDataRefSB_, 
                       __ZNK24MachO32RuntimeFileParser14GetSegmentInfoEjPNSt3__112basic_stringIcNS0_11char_traitsIcEENS0_9allocatorIcEEEEPyS8_S8_S8_PjP13BinaryDataRef, 
                       __ZNK24MachO32RuntimeFileParser15NeedsEndianSwapEv, 
                       __ZNK24MachO32RuntimeFileParser21GetSectionIndexByNameEPKc, 
                       __ZNK24MachO32RuntimeFileParser21GetSegmentIndexByNameEPKc, 
                       __ZNK24MachO32RuntimeFileParser22GetArchitectureAtIndexEjR8ArchSpec, 
                       __ZNK24MachO32RuntimeFileParser24AppendSegmentInformationEP6Mach32, 
                       __ZNK24MachO32RuntimeFileParser24AppendSegmentInformationEP6Mach64, 
                       __ZNK24MachO32RuntimeFileParser24GetSectionIndexByAddressEy, 
                       __ZNK24MachO32RuntimeFileParser25GetMinimumInstructionSizeEv, 
                       __ZNK24MachO32RuntimeFileParser4DumpEPNSt3__113basic_ostreamIcNS0_11char_traitsIcEEEE, 
                       __ZNK24MachO32RuntimeFileParser5ScopeERNSt3__112basic_stringIcNS0_11char_traitsIcEENS0_9allocatorIcEEEEb, 
                       __ZNK24MachO32RuntimeFileParser7GetArchER8ArchSpec, 
                       __ZNK24MachO64RuntimeFileParser11GetFileSizeEv, 
                       __ZNK24MachO64RuntimeFileParser11GetFileTypeEv, 
                       __ZNK24MachO64RuntimeFileParser13GetBinaryDataER13BinaryDataRef, 
                       __ZNK24MachO64RuntimeFileParser13GetCodeRangesER17DWARFDebugAranges, 
                       __ZNK24MachO64RuntimeFileParser13GetFileOffsetEv, 
                       __ZNK24MachO64RuntimeFileParser14GetCurrentArchER8ArchSpec, 
                       __ZNK24MachO64RuntimeFileParser14GetSectionInfoEjPNSt3__112basic_stringIcNS0_11char_traitsIcEENS0_9allocatorIcEEEEPyS8_S8_S8_PjP13BinaryDataRefSB_, 
                       __ZNK24MachO64RuntimeFileParser14GetSegmentInfoEjPNSt3__112basic_stringIcNS0_11char_traitsIcEENS0_9allocatorIcEEEEPyS8_S8_S8_PjP13BinaryDataRef, 
                       __ZNK24MachO64RuntimeFileParser15NeedsEndianSwapEv, 
                       __ZNK24MachO64RuntimeFileParser21GetSectionIndexByNameEPKc, 
                       __ZNK24MachO64RuntimeFileParser21GetSegmentIndexByNameEPKc, 
                       __ZNK24MachO64RuntimeFileParser22GetArchitectureAtIndexEjR8ArchSpec, 
                       __ZNK24MachO64RuntimeFileParser24AppendSegmentInformationEP6Mach32, 
                       __ZNK24MachO64RuntimeFileParser24AppendSegmentInformationEP6Mach64, 
                       __ZNK24MachO64RuntimeFileParser24GetSectionIndexByAddressEy, 
                       __ZNK24MachO64RuntimeFileParser25GetMinimumInstructionSizeEv, 
                       __ZNK24MachO64RuntimeFileParser4DumpEPNSt3__113basic_ostreamIcNS0_11char_traitsIcEEEE, 
                       __ZNK24MachO64RuntimeFileParser5ScopeERNSt3__112basic_stringIcNS0_11char_traitsIcEENS0_9allocatorIcEEEEb, 
                       __ZNK24MachO64RuntimeFileParser7GetArchER8ArchSpec, 
                       __ZNK25MachOFatRuntimeFileParser10NumObjectsEv, 
                       __ZNK25MachOFatRuntimeFileParser11GetFileSizeEv, 
                       __ZNK25MachOFatRuntimeFileParser11GetFileTypeEv, 
                       __ZNK25MachOFatRuntimeFileParser13GetCodeRangesER17DWARFDebugAranges, 
                       __ZNK25MachOFatRuntimeFileParser13GetFileOffsetEv, 
                       __ZNK25MachOFatRuntimeFileParser14GetCurrentArchER8ArchSpec, 
                       __ZNK25MachOFatRuntimeFileParser14GetSectionInfoEjPNSt3__112basic_stringIcNS0_11char_traitsIcEENS0_9allocatorIcEEEEPyS8_S8_S8_PjP13BinaryDataRefSB_, 
                       __ZNK25MachOFatRuntimeFileParser14GetSegmentInfoEjPNSt3__112basic_stringIcNS0_11char_traitsIcEENS0_9allocatorIcEEEEPyS8_S8_S8_PjP13BinaryDataRef, 
                       __ZNK25MachOFatRuntimeFileParser15NeedsEndianSwapEv, 
                       __ZNK25MachOFatRuntimeFileParser17ObjectNameAtIndexEj, 
                       __ZNK25MachOFatRuntimeFileParser21GetRuntimeFileAtIndexEj, 
                       __ZNK25MachOFatRuntimeFileParser21GetSectionIndexByNameEPKc, 
                       __ZNK25MachOFatRuntimeFileParser21GetSegmentIndexByNameEPKc, 
                       __ZNK25MachOFatRuntimeFileParser22GetArchitectureAtIndexEjR8ArchSpec, 
                       __ZNK25MachOFatRuntimeFileParser24AppendSegmentInformationEP6Mach32, 
                       __ZNK25MachOFatRuntimeFileParser24AppendSegmentInformationEP6Mach64, 
                       __ZNK25MachOFatRuntimeFileParser24GetSectionIndexByAddressEy, 
                       __ZNK25MachOFatRuntimeFileParser25GetMinimumInstructionSizeEv, 
                       __ZNK25MachOFatRuntimeFileParser4DumpEPNSt3__113basic_ostreamIcNS0_11char_traitsIcEEEE, 
                       __ZNK25MachOFatRuntimeFileParser5ScopeERNSt3__112basic_stringIcNS0_11char_traitsIcEENS0_9allocatorIcEEEEb, 
                       __ZNK25MachOFatRuntimeFileParser7GetArchER8ArchSpec, 
                       __ZNK27BSDArchiveRuntimeFileParser10NumObjectsEv, 
                       __ZNK27BSDArchiveRuntimeFileParser11GetFileSizeEv, 
                       __ZNK27BSDArchiveRuntimeFileParser11GetFileTypeEv, 
                       __ZNK27BSDArchiveRuntimeFileParser13GetCodeRangesER17DWARFDebugAranges, 
                       __ZNK27BSDArchiveRuntimeFileParser13GetFileOffsetEv, 
                       __ZNK27BSDArchiveRuntimeFileParser14GetCurrentArchER8ArchSpec, 
                       __ZNK27BSDArchiveRuntimeFileParser14GetSectionInfoEjPNSt3__112basic_stringIcNS0_11char_traitsIcEENS0_9allocatorIcEEEEPyS8_S8_S8_PjP13BinaryDataRefSB_, 
                       __ZNK27BSDArchiveRuntimeFileParser14GetSegmentInfoEjPNSt3__112basic_stringIcNS0_11char_traitsIcEENS0_9allocatorIcEEEEPyS8_S8_S8_PjP13BinaryDataRef, 
                       __ZNK27BSDArchiveRuntimeFileParser15NeedsEndianSwapEv, 
                       __ZNK27BSDArchiveRuntimeFileParser17ObjectNameAtIndexEj, 
                       __ZNK27BSDArchiveRuntimeFileParser19GetNumArchitecturesEv, 
                       __ZNK27BSDArchiveRuntimeFileParser21GetCurrentRuntimeFileEv, 
                       __ZNK27BSDArchiveRuntimeFileParser21GetSectionIndexByNameEPKc, 
                       __ZNK27BSDArchiveRuntimeFileParser21GetSegmentIndexByNameEPKc, 
                       __ZNK27BSDArchiveRuntimeFileParser22GetArchitectureAtIndexEjR8ArchSpec, 
                       __ZNK27BSDArchiveRuntimeFileParser24AppendSegmentInformationEP6Mach32, 
                       __ZNK27BSDArchiveRuntimeFileParser24AppendSegmentInformationEP6Mach64, 
                       __ZNK27BSDArchiveRuntimeFileParser24GetSectionIndexByAddressEy, 
                       __ZNK27BSDArchiveRuntimeFileParser25GetMinimumInstructionSizeEv, 
                       __ZNK27BSDArchiveRuntimeFileParser4DumpEPNSt3__113basic_ostreamIcNS0_11char_traitsIcEEEE, 
                       __ZNK27BSDArchiveRuntimeFileParser5ScopeERNSt3__112basic_stringIcNS0_11char_traitsIcEENS0_9allocatorIcEEEEb, 
                       __ZNK27BSDArchiveRuntimeFileParser7GetArchER8ArchSpec, 
                       __ZNK28DWARFAbbreviationDeclaration16GetFixedByteSizeEPK16DWARFCompileUnit, 
                       __ZNK28DWARFAbbreviationDeclaration18FindAttributeIndexEt, 
                       __ZNK31DWARFAbbreviationDeclarationSet26GetAbbreviationDeclarationEy, 
                       __ZNK8ArchSpec7GetNameEv, __ZNK9MemoryMap7GetSizeEv, 
                       __ZNK9MemoryMap8GetBytesEv, __ZTI10BinaryData, __ZTI10DSFSDBNode, 
                       __ZTI12CFMutableSet, __ZTI13BinaryDataRef, __ZTI13DSFSDBNodeDir, 
                       __ZTI14CFMutableArray, __ZTI14DSFSDBNodeDSYM, __ZTI17RuntimeFileParser, 
                       __ZTI19CFMutableDictionary, __ZTI20ELFRuntimeFileParser, 
                       __ZTI24MachO32RuntimeFileParser, __ZTI24MachO64RuntimeFileParser, 
                       __ZTI25MachOFatRuntimeFileParser, __ZTI27BSDArchiveRuntimeFileParser, 
                       __ZTI6CFData, __ZTI8CFString, __ZTI9MemoryMap, __ZTS10BinaryData, 
                       __ZTS10DSFSDBNode, __ZTS12CFMutableSet, __ZTS13BinaryDataRef, 
                       __ZTS13DSFSDBNodeDir, __ZTS14CFMutableArray, __ZTS14DSFSDBNodeDSYM, 
                       __ZTS17RuntimeFileParser, __ZTS19CFMutableDictionary, 
                       __ZTS20ELFRuntimeFileParser, __ZTS24MachO32RuntimeFileParser, 
                       __ZTS24MachO64RuntimeFileParser, __ZTS25MachOFatRuntimeFileParser, 
                       __ZTS27BSDArchiveRuntimeFileParser, __ZTS6CFData, 
                       __ZTS8CFString, __ZTS9MemoryMap, __ZTV10BinaryData, 
                       __ZTV10DSFSDBNode, __ZTV12CFMutableSet, __ZTV13BinaryDataRef, 
                       __ZTV13DSFSDBNodeDir, __ZTV14CFMutableArray, __ZTV14DSFSDBNodeDSYM, 
                       __ZTV17RuntimeFileParser, __ZTV19CFMutableDictionary, 
                       __ZTV20ELFRuntimeFileParser, __ZTV24MachO32RuntimeFileParser, 
                       __ZTV24MachO64RuntimeFileParser, __ZTV25MachOFatRuntimeFileParser, 
                       __ZTV27BSDArchiveRuntimeFileParser, __ZTV6CFData, 
                       __ZTV8CFString, __ZTV9MemoryMap, __ZZ19DBGRegisterObserverE18s_next_observer_id, 
                       __ZZ23GetMachFileTypeAsStringjE14g_filetype_str, 
                       __ZZ29CopyMatchingUUIDsInDSYMBundleE19dsym_bundle_subpath, 
                       __ZZL15GetUniqueStringP13DWARFInstancePK10__CFStringE16g_global_strings, 
                       __ZZL16_getFileSystemDBvE9onceToken, __ZZL20SpotlightQueryThreadPvE17prefetchCFStrings, 
                       __ZZL38CreateDSYMPathUsingImplicitSearchPathsPK8__CFUUIDE21g_implicit_init_mutex, 
                       __ZZL38CreateDSYMPathUsingImplicitSearchPathsPK8__CFUUIDE25num_implicit_search_paths, 
                       __ZZN6DSFSDB21_ScanDirectory_lockedEPKcP13DSFSDBNodeDiriiE19sScanDirectoryCount, 
                       __ZZN8ArchSpec7GetNameEjjE13s_cpu_hex_str, __ZeqRK8ArchSpecS1_, 
                       __ZneRK8ArchSpecS1_, ____Z19NotifyDSYMObserversPK8__CFUUIDPK7__CFURLh_block_invoke, 
                       ____ZL16_getFileSystemDBv_block_invoke, ____ZL24copyURLFromCachesForUUIDPK10__CFString_block_invoke, 
                       ____ZL38CreateDSYMPathUsingExplicitSearchPathsPK8__CFUUIDPK9__CFArraybbb_block_invoke, 
                       ____ZL39CopyDSYMURLForQueryItemWithMatchingUUIDPK10__CFString_block_invoke, 
                       ____ZN6DSFSDB13ScanDirectoryEPKcb_block_invoke, 
                       ____ZN6DSFSDB14WatchDirectoryEPKcb_block_invoke, 
                       ____ZN6DSFSDB17_Terminate_lockedEb_block_invoke, 
                       ____ZN6DSFSDB21_ScanDirectory_lockedEPKcP13DSFSDBNodeDirii_block_invoke, 
                       ___block_descriptor_tmp, ___block_descriptor_tmp, 
                       ___block_descriptor_tmp.40, ___block_descriptor_tmp.416, 
                       ___block_descriptor_tmp.418, ___block_descriptor_tmp.423, 
                       ___block_descriptor_tmp.431, ___block_descriptor_tmp.49, 
                       ___block_descriptor_tmp.53, ___block_literal_global, 
                       ___block_literal_global, ___copy_helper_block_, 
                       ___copy_helper_block_, ___copy_helper_block_.421, 
                       ___copy_helper_block_.429, ___destroy_helper_block_, 
                       ___destroy_helper_block_, ___destroy_helper_block_.422, 
                       ___destroy_helper_block_.430 ]
    weak-def-symbols: [ __ZN12PThreadMutex6LockerD1Ev, __ZN10BinaryData5ClearEv, 
                        __ZN10BinaryData7SetDataEPKvm, __ZN10CFReleaserIP14__CFDictionaryED0Ev, 
                        __ZN10CFReleaserIP14__CFDictionaryED1Ev, __ZN10CFReleaserIP7__CFSetED0Ev, 
                        __ZN10CFReleaserIP7__CFSetED1Ev, __ZN10CFReleaserIP9__CFArrayED0Ev, 
                        __ZN10CFReleaserIP9__CFArrayED1Ev, __ZN10CFReleaserIPK10__CFStringED0Ev, 
                        __ZN10CFReleaserIPK10__CFStringED1Ev, __ZN10CFReleaserIPK8__CFDataED0Ev, 
                        __ZN10CFReleaserIPK8__CFDataED1Ev, __ZN13BinaryDataRef5ClearEv, 
                        __ZN13BinaryDataRef7SetDataEPKvm, __ZN13DWARFInstanceC2EP17RuntimeFileParser, 
                        __ZN13DWARFInstanceD2Ev, __ZN14DSFSDBNodeDSYMD0Ev, 
                        __ZN14DSFSDBNodeDSYMD1Ev, __ZN14DWARFDebugLine12StateMachine21do_DW_LNE_define_fileERK13BinaryDataRefPj, 
                        __ZN17RuntimeFileParser4FileEv, __ZN17RuntimeFileParserD0Ev, 
                        __ZN17RuntimeFileParserD1Ev, __ZN20ELFRuntimeFileParserD0Ev, 
                        __ZN20ELFRuntimeFileParserD1Ev, __ZN24MachO32RuntimeFileParserD0Ev, 
                        __ZN24MachO32RuntimeFileParserD1Ev, __ZN24MachO64RuntimeFileParserD0Ev, 
                        __ZN24MachO64RuntimeFileParserD1Ev, __ZN25MachOFatRuntimeFileParserD0Ev, 
                        __ZN25MachOFatRuntimeFileParserD1Ev, __ZN25RuntimeFileParserProtocol12SelectObjectEPKc, 
                        __ZN25RuntimeFileParserProtocol13ObjectAtIndexEj, 
                        __ZN25RuntimeFileParserProtocol9GetObjectEPKcj, 
                        __ZN28DWARFAbbreviationDeclaration12AddAttributeEth, 
                        __ZN6DSFSDB20IsDeviceInodeVisitedENSt3__14pairIiyEE, 
                        __ZN6UnixFD4readEPvm, __ZN8ArchSpecD0Ev, __ZN8ArchSpecD1Ev, 
                        __ZNK17RuntimeFileParser4FileEv, __ZNK20ELFRuntimeFileParser19GetNumArchitecturesEv, 
                        __ZNK20ELFRuntimeFileParser4FileEv, __ZNK24MachO32RuntimeFileParser19GetNumArchitecturesEv, 
                        __ZNK24MachO32RuntimeFileParser4FileEv, __ZNK24MachO64RuntimeFileParser19GetNumArchitecturesEv, 
                        __ZNK24MachO64RuntimeFileParser4FileEv, __ZNK25MachOFatRuntimeFileParser19GetNumArchitecturesEv, 
                        __ZNK25MachOFatRuntimeFileParser4FileEv, __ZNK25RuntimeFileParserProtocol10NumObjectsEv, 
                        __ZNK25RuntimeFileParserProtocol13GetCodeRangesER17DWARFDebugAranges, 
                        __ZNK25RuntimeFileParserProtocol14GetSegmentInfoEjPNSt3__112basic_stringIcNS0_11char_traitsIcEENS0_9allocatorIcEEEEPyS8_S8_S8_PjP13BinaryDataRef, 
                        __ZNK25RuntimeFileParserProtocol17ObjectNameAtIndexEj, 
                        __ZNK25RuntimeFileParserProtocol21GetSegmentIndexByNameEPKc, 
                        __ZNK25RuntimeFileParserProtocol24AppendSegmentInformationEP6Mach32, 
                        __ZNK25RuntimeFileParserProtocol24AppendSegmentInformationEP6Mach64, 
                        __ZNK27BSDArchiveRuntimeFileParser4FileEv, __ZNKSt3__120__shared_ptr_pointerIP16DWARFCompileUnitNS_14default_deleteIS1_EENS_9allocatorIS1_EEE13__get_deleterERKSt9type_info, 
                        __ZNKSt3__120__shared_ptr_pointerIP24MachO32RuntimeFileParserNS_14default_deleteIS1_EENS_9allocatorIS1_EEE13__get_deleterERKSt9type_info, 
                        __ZNKSt3__120__shared_ptr_pointerIP24MachO64RuntimeFileParserNS_14default_deleteIS1_EENS_9allocatorIS1_EEE13__get_deleterERKSt9type_info, 
                        __ZNKSt3__120__shared_ptr_pointerIP27BSDArchiveRuntimeFileParserNS_14default_deleteIS1_EENS_9allocatorIS1_EEE13__get_deleterERKSt9type_info, 
                        __ZNKSt3__120__shared_ptr_pointerIPN14DWARFDebugLine8PrologueENS_14default_deleteIS2_EENS_9allocatorIS2_EEE13__get_deleterERKSt9type_info, 
                        __ZNKSt3__120__shared_ptr_pointerIPN14DWARFDebugLine9LineTableENS_14default_deleteIS2_EENS_9allocatorIS2_EEE13__get_deleterERKSt9type_info, 
                        __ZNKSt3__120__shared_ptr_pointerIPN6Mach327SectionENS_14default_deleteIS2_EENS_9allocatorIS2_EEE13__get_deleterERKSt9type_info, 
                        __ZNKSt3__120__shared_ptr_pointerIPN6Mach327SegmentENS_14default_deleteIS2_EENS_9allocatorIS2_EEE13__get_deleterERKSt9type_info, 
                        __ZNKSt3__120__shared_ptr_pointerIPN6Mach647SectionENS_14default_deleteIS2_EENS_9allocatorIS2_EEE13__get_deleterERKSt9type_info, 
                        __ZNKSt3__120__shared_ptr_pointerIPN6Mach647SegmentENS_14default_deleteIS2_EENS_9allocatorIS2_EEE13__get_deleterERKSt9type_info, 
                        __ZNSt3__110shared_ptrI16DWARFCompileUnitEC2IS1_EEPT_NS_9enable_ifIXsr14is_convertibleIS5_PS1_EE5valueENS2_5__natEE4typeE, 
                        __ZNSt3__110shared_ptrIN14DWARFDebugLine8PrologueEEC2IS2_EEPT_NS_9enable_ifIXsr14is_convertibleIS6_PS2_EE5valueENS3_5__natEE4typeE, 
                        __ZNSt3__112__hash_tableINS_17__hash_value_typeINS_12basic_stringIcNS_11char_traitsIcEENS_9allocatorIcEEEEiEENS_22__unordered_map_hasherIS7_S8_NS_4hashIS7_EELb1EEENS_21__unordered_map_equalIS7_S8_NS_8equal_toIS7_EELb1EEENS5_IS8_EEE4findIS7_EENS_15__hash_iteratorIPNS_11__hash_nodeIS8_PvEEEERKT_, 
                        __ZNSt3__112__hash_tableINS_17__hash_value_typeINS_12basic_stringIcNS_11char_traitsIcEENS_9allocatorIcEEEEiEENS_22__unordered_map_hasherIS7_S8_NS_4hashIS7_EELb1EEENS_21__unordered_map_equalIS7_S8_NS_8equal_toIS7_EELb1EEENS5_IS8_EEE6rehashEm, 
                        __ZNSt3__112__hash_tableINS_17__hash_value_typeINS_12basic_stringIcNS_11char_traitsIcEENS_9allocatorIcEEEEiEENS_22__unordered_map_hasherIS7_S8_NS_4hashIS7_EELb1EEENS_21__unordered_map_equalIS7_S8_NS_8equal_toIS7_EELb1EEENS5_IS8_EEE8__rehashEm, 
                        __ZNSt3__112__hash_tableINS_17__hash_value_typeIP8__MDItemPKcEENS_22__unordered_map_hasherIS3_S6_NS_4hashIS3_EELb1EEENS_21__unordered_map_equalIS3_S6_NS_8equal_toIS3_EELb1EEENS_9allocatorIS6_EEE6rehashEm, 
                        __ZNSt3__112__hash_tableINS_17__hash_value_typeIP8__MDItemPKcEENS_22__unordered_map_hasherIS3_S6_NS_4hashIS3_EELb1EEENS_21__unordered_map_equalIS3_S6_NS_8equal_toIS3_EELb1EEENS_9allocatorIS6_EEE8__rehashEm, 
                        __ZNSt3__112__hash_tableINS_17__hash_value_typeIPKcP13UUIDEntries_tEENS_22__unordered_map_hasherIS3_S6_NS_4hashIS3_EELb1EEENS_21__unordered_map_equalIS3_S6_NS_8equal_toIS3_EELb1EEENS_9allocatorIS6_EEE6rehashEm, 
                        __ZNSt3__112__hash_tableINS_17__hash_value_typeIPKcP13UUIDEntries_tEENS_22__unordered_map_hasherIS3_S6_NS_4hashIS3_EELb1EEENS_21__unordered_map_equalIS3_S6_NS_8equal_toIS3_EELb1EEENS_9allocatorIS6_EEE8__rehashEm, 
                        __ZNSt3__112__hash_tableINS_17__hash_value_typeIPKcjEENS_22__unordered_map_hasherIS3_S4_11CStringHashLb1EEENS_21__unordered_map_equalIS3_S4_27CStringEqualBinaryPredicateLb1EEENS_9allocatorIS4_EEE19__node_insert_multiEPNS_11__hash_nodeIS4_PvEE, 
                        __ZNSt3__112__hash_tableINS_17__hash_value_typeIPKcjEENS_22__unordered_map_hasherIS3_S4_11CStringHashLb1EEENS_21__unordered_map_equalIS3_S4_27CStringEqualBinaryPredicateLb1EEENS_9allocatorIS4_EEE4findIS3_EENS_15__hash_iteratorIPNS_11__hash_nodeIS4_PvEEEERKT_, 
                        __ZNSt3__112__hash_tableINS_17__hash_value_typeIPKcjEENS_22__unordered_map_hasherIS3_S4_11CStringHashLb1EEENS_21__unordered_map_equalIS3_S4_27CStringEqualBinaryPredicateLb1EEENS_9allocatorIS4_EEE6rehashEm, 
                        __ZNSt3__112__hash_tableINS_17__hash_value_typeIPKcjEENS_22__unordered_map_hasherIS3_S4_11CStringHashLb1EEENS_21__unordered_map_equalIS3_S4_27CStringEqualBinaryPredicateLb1EEENS_9allocatorIS4_EEE8__rehashEm, 
                        __ZNSt3__112__hash_tableINS_4pairIiyEEN6DSFSDB15DeviceInodeHashENS3_16DeviceInodeEqualENS_9allocatorIS2_EEE6rehashEm, 
                        __ZNSt3__112__hash_tableINS_4pairIiyEEN6DSFSDB15DeviceInodeHashENS3_16DeviceInodeEqualENS_9allocatorIS2_EEE8__rehashEm, 
                        __ZNSt3__112__hash_tableIPKcN15DSFSStringTable13ConstCharHashENS3_16ConstCharEqualToENS_9allocatorIS2_EEE4findIS2_EENS_15__hash_iteratorIPNS_11__hash_nodeIS2_PvEEEERKT_, 
                        __ZNSt3__112__hash_tableIPKcN15DSFSStringTable13ConstCharHashENS3_16ConstCharEqualToENS_9allocatorIS2_EEE6rehashEm, 
                        __ZNSt3__112__hash_tableIPKcN15DSFSStringTable13ConstCharHashENS3_16ConstCharEqualToENS_9allocatorIS2_EEE8__rehashEm, 
                        __ZNSt3__112basic_stringIhNS_11char_traitsIhEENS_9allocatorIhEEE21__grow_by_and_replaceEmmmmmmPKh, 
                        __ZNSt3__112basic_stringIhNS_11char_traitsIhEENS_9allocatorIhEEE6assignEPKhm, 
                        __ZNSt3__112basic_stringIhNS_11char_traitsIhEENS_9allocatorIhEEE9__grow_byEmmmmmm, 
                        __ZNSt3__116__copy_unalignedINS_6vectorIbNS_9allocatorIbEEEELb0EEENS_14__bit_iteratorIT_Lb0EXLi0EEEENS5_IS6_XT0_EXLi0EEEES8_S7_, 
                        __ZNSt3__116__pad_and_outputIcNS_11char_traitsIcEEEENS_19ostreambuf_iteratorIT_T0_EES6_PKS4_S8_S8_RNS_8ios_baseES4_, 
                        __ZNSt3__120__shared_ptr_pointerIP16DWARFCompileUnitNS_14default_deleteIS1_EENS_9allocatorIS1_EEE16__on_zero_sharedEv, 
                        __ZNSt3__120__shared_ptr_pointerIP16DWARFCompileUnitNS_14default_deleteIS1_EENS_9allocatorIS1_EEE21__on_zero_shared_weakEv, 
                        __ZNSt3__120__shared_ptr_pointerIP16DWARFCompileUnitNS_14default_deleteIS1_EENS_9allocatorIS1_EEED0Ev, 
                        __ZNSt3__120__shared_ptr_pointerIP16DWARFCompileUnitNS_14default_deleteIS1_EENS_9allocatorIS1_EEED1Ev, 
                        __ZNSt3__120__shared_ptr_pointerIP24MachO32RuntimeFileParserNS_14default_deleteIS1_EENS_9allocatorIS1_EEE16__on_zero_sharedEv, 
                        __ZNSt3__120__shared_ptr_pointerIP24MachO32RuntimeFileParserNS_14default_deleteIS1_EENS_9allocatorIS1_EEED0Ev, 
                        __ZNSt3__120__shared_ptr_pointerIP24MachO32RuntimeFileParserNS_14default_deleteIS1_EENS_9allocatorIS1_EEED1Ev, 
                        __ZNSt3__120__shared_ptr_pointerIP24MachO64RuntimeFileParserNS_14default_deleteIS1_EENS_9allocatorIS1_EEED0Ev, 
                        __ZNSt3__120__shared_ptr_pointerIP24MachO64RuntimeFileParserNS_14default_deleteIS1_EENS_9allocatorIS1_EEED1Ev, 
                        __ZNSt3__120__shared_ptr_pointerIP27BSDArchiveRuntimeFileParserNS_14default_deleteIS1_EENS_9allocatorIS1_EEED0Ev, 
                        __ZNSt3__120__shared_ptr_pointerIP27BSDArchiveRuntimeFileParserNS_14default_deleteIS1_EENS_9allocatorIS1_EEED1Ev, 
                        __ZNSt3__120__shared_ptr_pointerIPN14DWARFDebugLine8PrologueENS_14default_deleteIS2_EENS_9allocatorIS2_EEE16__on_zero_sharedEv, 
                        __ZNSt3__120__shared_ptr_pointerIPN14DWARFDebugLine8PrologueENS_14default_deleteIS2_EENS_9allocatorIS2_EEE21__on_zero_shared_weakEv, 
                        __ZNSt3__120__shared_ptr_pointerIPN14DWARFDebugLine8PrologueENS_14default_deleteIS2_EENS_9allocatorIS2_EEED0Ev, 
                        __ZNSt3__120__shared_ptr_pointerIPN14DWARFDebugLine8PrologueENS_14default_deleteIS2_EENS_9allocatorIS2_EEED1Ev, 
                        __ZNSt3__120__shared_ptr_pointerIPN14DWARFDebugLine9LineTableENS_14default_deleteIS2_EENS_9allocatorIS2_EEE16__on_zero_sharedEv, 
                        __ZNSt3__120__shared_ptr_pointerIPN14DWARFDebugLine9LineTableENS_14default_deleteIS2_EENS_9allocatorIS2_EEED0Ev, 
                        __ZNSt3__120__shared_ptr_pointerIPN14DWARFDebugLine9LineTableENS_14default_deleteIS2_EENS_9allocatorIS2_EEED1Ev, 
                        __ZNSt3__120__shared_ptr_pointerIPN6Mach327SectionENS_14default_deleteIS2_EENS_9allocatorIS2_EEE16__on_zero_sharedEv, 
                        __ZNSt3__120__shared_ptr_pointerIPN6Mach327SectionENS_14default_deleteIS2_EENS_9allocatorIS2_EEED0Ev, 
                        __ZNSt3__120__shared_ptr_pointerIPN6Mach327SectionENS_14default_deleteIS2_EENS_9allocatorIS2_EEED1Ev, 
                        __ZNSt3__120__shared_ptr_pointerIPN6Mach327SegmentENS_14default_deleteIS2_EENS_9allocatorIS2_EEE16__on_zero_sharedEv, 
                        __ZNSt3__120__shared_ptr_pointerIPN6Mach327SegmentENS_14default_deleteIS2_EENS_9allocatorIS2_EEED0Ev, 
                        __ZNSt3__120__shared_ptr_pointerIPN6Mach327SegmentENS_14default_deleteIS2_EENS_9allocatorIS2_EEED1Ev, 
                        __ZNSt3__120__shared_ptr_pointerIPN6Mach647SectionENS_14default_deleteIS2_EENS_9allocatorIS2_EEE16__on_zero_sharedEv, 
                        __ZNSt3__120__shared_ptr_pointerIPN6Mach647SectionENS_14default_deleteIS2_EENS_9allocatorIS2_EEED0Ev, 
                        __ZNSt3__120__shared_ptr_pointerIPN6Mach647SectionENS_14default_deleteIS2_EENS_9allocatorIS2_EEED1Ev, 
                        __ZNSt3__120__shared_ptr_pointerIPN6Mach647SegmentENS_14default_deleteIS2_EENS_9allocatorIS2_EEE16__on_zero_sharedEv, 
                        __ZNSt3__120__shared_ptr_pointerIPN6Mach647SegmentENS_14default_deleteIS2_EENS_9allocatorIS2_EEED0Ev, 
                        __ZNSt3__120__shared_ptr_pointerIPN6Mach647SegmentENS_14default_deleteIS2_EENS_9allocatorIS2_EEED1Ev, 
                        __ZNSt3__124__put_character_sequenceIcNS_11char_traitsIcEEEERNS_13basic_ostreamIT_T0_EES7_PKS4_m, 
                        __ZNSt3__127__insertion_sort_incompleteIRPFbRKN17DWARFDebugAranges5RangeES4_EPS2_EEbT0_S9_T_, 
                        __ZNSt3__127__tree_balance_after_insertIPNS_16__tree_node_baseIPvEEEEvT_S5_, 
                        __ZNSt3__16__sortIRPFbRKN17DWARFDebugAranges5RangeES4_EPS2_EEvT0_S9_T_, 
                        __ZNSt3__16__treeINS_12__value_typeIj31DWARFAbbreviationDeclarationSetEENS_19__map_value_compareIjS3_NS_4lessIjEELb1EEENS_9allocatorIS3_EEE7destroyEPNS_11__tree_nodeIS3_PvEE, 
                        __ZNSt3__16__treeINS_12__value_typeIjNS_10shared_ptrIN14DWARFDebugLine9LineTableEEEEENS_19__map_value_compareIjS6_NS_4lessIjEELb1EEENS_9allocatorIS6_EEE7destroyEPNS_11__tree_nodeIS6_PvEE, 
                        __ZNSt3__16__treeINS_12__value_typeIjyEENS_19__map_value_compareIjS2_NS_4lessIjEELb1EEENS_9allocatorIS2_EEE7destroyEPNS_11__tree_nodeIS2_PvEE, 
                        __ZNSt3__16vectorI10section_64NS_9allocatorIS1_EEE21__push_back_slow_pathIRKS1_EEvOT_, 
                        __ZNSt3__16vectorI12DBGSymbolTagNS_9allocatorIS1_EEE8__appendEm, 
                        __ZNSt3__16vectorI14DWARFAttributeNS_9allocatorIS1_EEE21__push_back_slow_pathIS1_EEvOT_, 
                        __ZNSt3__16vectorI14DWARFAttributeNS_9allocatorIS1_EEE6assignIPS1_EENS_9enable_ifIXaasr21__is_forward_iteratorIT_EE5valuesr16is_constructibleIS1_NS_15iterator_traitsIS8_E9referenceEEE5valueEvE4typeES8_S8_, 
                        __ZNSt3__16vectorI14Elf64_Phdr_TagNS_9allocatorIS1_EEE8__appendEm, 
                        __ZNSt3__16vectorI14Elf64_Shdr_TagNS_9allocatorIS1_EEE8__appendEm, 
                        __ZNSt3__16vectorI15DBGLineEntryTagNS_9allocatorIS1_EEE8__appendEm, 
                        __ZNSt3__16vectorI15segment_commandNS_9allocatorIS1_EEE21__push_back_slow_pathIRKS1_EEvOT_, 
                        __ZNSt3__16vectorI16FullUUIDRecord_tNS_9allocatorIS1_EEE21__push_back_slow_pathIS1_EEvOT_, 
                        __ZNSt3__16vectorI18segment_command_64NS_9allocatorIS1_EEE21__push_back_slow_pathIRKS1_EEvOT_, 
                        __ZNSt3__16vectorI19DWARFDebugArangeSetNS_9allocatorIS1_EEE21__push_back_slow_pathIRKS1_EEvOT_, 
                        __ZNSt3__16vectorI19DWARFDebugInfoEntryNS_9allocatorIS1_EEE21__push_back_slow_pathIRKS1_EEvOT_, 
                        __ZNSt3__16vectorI28DWARFAbbreviationDeclarationNS_9allocatorIS1_EEE21__push_back_slow_pathIRKS1_EEvOT_, 
                        __ZNSt3__16vectorI28DWARFAbbreviationDeclarationNS_9allocatorIS1_EEE6assignIPS1_EENS_9enable_ifIXaasr21__is_forward_iteratorIT_EE5valuesr16is_constructibleIS1_NS_15iterator_traitsIS8_E9referenceEEE5valueEvE4typeES8_S8_, 
                        __ZNSt3__16vectorI7sectionNS_9allocatorIS1_EEE21__push_back_slow_pathIRKS1_EEvOT_, 
                        __ZNSt3__16vectorI8fat_archNS_9allocatorIS1_EEE8__appendEm, 
                        __ZNSt3__16vectorI9dw_symbolNS_9allocatorIS1_EEE21__push_back_slow_pathIRKS1_EEvOT_, 
                        __ZNSt3__16vectorIN14DWARFDebugLine16FileNameEntryTagENS_9allocatorIS2_EEE21__push_back_slow_pathIRKS2_EEvOT_, 
                        __ZNSt3__16vectorIN17DWARFDebugAranges5RangeENS_9allocatorIS2_EEE6insertENS_11__wrap_iterIPKS2_EERS7_, 
                        __ZNSt3__16vectorIN19DWARFDebugArangeSet13DescriptorTagENS_9allocatorIS2_EEE21__push_back_slow_pathIRKS2_EEvOT_, 
                        __ZNSt3__16vectorIN27BSDArchiveRuntimeFileParser6ObjectENS_9allocatorIS2_EEE21__push_back_slow_pathIRKS2_EEvOT_, 
                        __ZNSt3__16vectorINS_10shared_ptrI16DWARFCompileUnitEENS_9allocatorIS3_EEE21__push_back_slow_pathIRKS3_EEvOT_, 
                        __ZNSt3__16vectorINS_10shared_ptrI25RuntimeFileParserProtocolEENS_9allocatorIS3_EEE8__appendEm, 
                        __ZNSt3__16vectorINS_12basic_stringIcNS_11char_traitsIcEENS_9allocatorIcEEEENS4_IS6_EEE21__push_back_slow_pathIS6_EEvOT_, 
                        __ZNSt3__16vectorINS_12basic_stringIcNS_11char_traitsIcEENS_9allocatorIcEEEENS4_IS6_EEE8__appendEm, 
                        __ZNSt3__16vectorIP13UUIDEntries_tNS_9allocatorIS2_EEED1Ev, 
                        __ZNSt3__16vectorIP18_DBGDSYMObserverIDNS_9allocatorIS2_EEE21__push_back_slow_pathIRKS2_EEvOT_, 
                        __ZNSt3__16vectorIPK10__CFStringNS_9allocatorIS3_EEE6assignEmRKS3_, 
                        __ZNSt3__16vectorIbNS_9allocatorIbEEE18__construct_at_endINS_14__bit_iteratorIS3_Lb0ELm0EEEEENS_9enable_ifIXsr21__is_forward_iteratorIT_EE5valueEvE4typeES8_S8_, 
                        __ZNSt3__16vectorIbNS_9allocatorIbEEE6resizeEmb, 
                        __ZNSt3__16vectorIbNS_9allocatorIbEEE7reserveEm, 
                        __ZNSt3__17__sort4IRPFbRKN17DWARFDebugAranges5RangeES4_EPS2_EEjT0_S9_S9_S9_T_, 
                        __ZTI10CFReleaserIP14__CFDictionaryE, __ZTI10CFReleaserIP7__CFSetE, 
                        __ZTI10CFReleaserIP9__CFArrayE, __ZTI10CFReleaserIPK10__CFStringE, 
                        __ZTI10CFReleaserIPK8__CFDataE, __ZTI25RuntimeFileParserProtocol, 
                        __ZTI8ArchSpec, __ZTINSt3__120__shared_ptr_pointerIP16DWARFCompileUnitNS_14default_deleteIS1_EENS_9allocatorIS1_EEEE, 
                        __ZTINSt3__120__shared_ptr_pointerIP24MachO32RuntimeFileParserNS_14default_deleteIS1_EENS_9allocatorIS1_EEEE, 
                        __ZTINSt3__120__shared_ptr_pointerIP24MachO64RuntimeFileParserNS_14default_deleteIS1_EENS_9allocatorIS1_EEEE, 
                        __ZTINSt3__120__shared_ptr_pointerIP27BSDArchiveRuntimeFileParserNS_14default_deleteIS1_EENS_9allocatorIS1_EEEE, 
                        __ZTINSt3__120__shared_ptr_pointerIPN14DWARFDebugLine8PrologueENS_14default_deleteIS2_EENS_9allocatorIS2_EEEE, 
                        __ZTINSt3__120__shared_ptr_pointerIPN14DWARFDebugLine9LineTableENS_14default_deleteIS2_EENS_9allocatorIS2_EEEE, 
                        __ZTINSt3__120__shared_ptr_pointerIPN6Mach327SectionENS_14default_deleteIS2_EENS_9allocatorIS2_EEEE, 
                        __ZTINSt3__120__shared_ptr_pointerIPN6Mach327SegmentENS_14default_deleteIS2_EENS_9allocatorIS2_EEEE, 
                        __ZTINSt3__120__shared_ptr_pointerIPN6Mach647SectionENS_14default_deleteIS2_EENS_9allocatorIS2_EEEE, 
                        __ZTINSt3__120__shared_ptr_pointerIPN6Mach647SegmentENS_14default_deleteIS2_EENS_9allocatorIS2_EEEE, 
                        __ZTS10CFReleaserIP14__CFDictionaryE, __ZTS10CFReleaserIP7__CFSetE, 
                        __ZTS10CFReleaserIP9__CFArrayE, __ZTS10CFReleaserIPK10__CFStringE, 
                        __ZTS10CFReleaserIPK8__CFDataE, __ZTS25RuntimeFileParserProtocol, 
                        __ZTS8ArchSpec, __ZTSNSt3__114default_deleteI16DWARFCompileUnitEE, 
                        __ZTSNSt3__114default_deleteI24MachO32RuntimeFileParserEE, 
                        __ZTSNSt3__114default_deleteI24MachO64RuntimeFileParserEE, 
                        __ZTSNSt3__114default_deleteI27BSDArchiveRuntimeFileParserEE, 
                        __ZTSNSt3__114default_deleteIN14DWARFDebugLine8PrologueEEE, 
                        __ZTSNSt3__114default_deleteIN14DWARFDebugLine9LineTableEEE, 
                        __ZTSNSt3__114default_deleteIN6Mach327SectionEEE, 
                        __ZTSNSt3__114default_deleteIN6Mach327SegmentEEE, 
                        __ZTSNSt3__114default_deleteIN6Mach647SectionEEE, 
                        __ZTSNSt3__114default_deleteIN6Mach647SegmentEEE, 
                        __ZTSNSt3__120__shared_ptr_pointerIP16DWARFCompileUnitNS_14default_deleteIS1_EENS_9allocatorIS1_EEEE, 
                        __ZTSNSt3__120__shared_ptr_pointerIP24MachO32RuntimeFileParserNS_14default_deleteIS1_EENS_9allocatorIS1_EEEE, 
                        __ZTSNSt3__120__shared_ptr_pointerIP24MachO64RuntimeFileParserNS_14default_deleteIS1_EENS_9allocatorIS1_EEEE, 
                        __ZTSNSt3__120__shared_ptr_pointerIP27BSDArchiveRuntimeFileParserNS_14default_deleteIS1_EENS_9allocatorIS1_EEEE, 
                        __ZTSNSt3__120__shared_ptr_pointerIPN14DWARFDebugLine8PrologueENS_14default_deleteIS2_EENS_9allocatorIS2_EEEE, 
                        __ZTSNSt3__120__shared_ptr_pointerIPN14DWARFDebugLine9LineTableENS_14default_deleteIS2_EENS_9allocatorIS2_EEEE, 
                        __ZTSNSt3__120__shared_ptr_pointerIPN6Mach327SectionENS_14default_deleteIS2_EENS_9allocatorIS2_EEEE, 
                        __ZTSNSt3__120__shared_ptr_pointerIPN6Mach327SegmentENS_14default_deleteIS2_EENS_9allocatorIS2_EEEE, 
                        __ZTSNSt3__120__shared_ptr_pointerIPN6Mach647SectionENS_14default_deleteIS2_EENS_9allocatorIS2_EEEE, 
                        __ZTSNSt3__120__shared_ptr_pointerIPN6Mach647SegmentENS_14default_deleteIS2_EENS_9allocatorIS2_EEEE, 
                        __ZTV10CFReleaserIP14__CFDictionaryE, __ZTV10CFReleaserIP7__CFSetE, 
                        __ZTV10CFReleaserIP9__CFArrayE, __ZTV10CFReleaserIPK10__CFStringE, 
                        __ZTV10CFReleaserIPK8__CFDataE, __ZTV8ArchSpec, 
                        __ZTVNSt3__120__shared_ptr_pointerIP16DWARFCompileUnitNS_14default_deleteIS1_EENS_9allocatorIS1_EEEE, 
                        __ZTVNSt3__120__shared_ptr_pointerIP24MachO32RuntimeFileParserNS_14default_deleteIS1_EENS_9allocatorIS1_EEEE, 
                        __ZTVNSt3__120__shared_ptr_pointerIP24MachO64RuntimeFileParserNS_14default_deleteIS1_EENS_9allocatorIS1_EEEE, 
                        __ZTVNSt3__120__shared_ptr_pointerIP27BSDArchiveRuntimeFileParserNS_14default_deleteIS1_EENS_9allocatorIS1_EEEE, 
                        __ZTVNSt3__120__shared_ptr_pointerIPN14DWARFDebugLine8PrologueENS_14default_deleteIS2_EENS_9allocatorIS2_EEEE, 
                        __ZTVNSt3__120__shared_ptr_pointerIPN14DWARFDebugLine9LineTableENS_14default_deleteIS2_EENS_9allocatorIS2_EEEE, 
                        __ZTVNSt3__120__shared_ptr_pointerIPN6Mach327SectionENS_14default_deleteIS2_EENS_9allocatorIS2_EEEE, 
                        __ZTVNSt3__120__shared_ptr_pointerIPN6Mach327SegmentENS_14default_deleteIS2_EENS_9allocatorIS2_EEEE, 
                        __ZTVNSt3__120__shared_ptr_pointerIPN6Mach647SectionENS_14default_deleteIS2_EENS_9allocatorIS2_EEEE, 
                        __ZTVNSt3__120__shared_ptr_pointerIPN6Mach647SegmentENS_14default_deleteIS2_EENS_9allocatorIS2_EEEE, 
                        ___clang_call_terminate ]
...
