---
archs:           [ x86_64 ]
platform:        macosx
install-name:    '@rpath/GLToolsAnalysisEngine.framework/Versions/A/GLToolsAnalysisEngine'
exports:         
  - archs:           [ x86_64 ]
    symbols:         [ ____Z24DYInitializeUtilityFuncsv_block_invoke, '+[DYGLAnalyzerEngine getLocalizedString:table:]', 
                       '+[DYGLAnalyzerEngine initNSUnarchiverClassTranslationMappings]', 
                       '+[DYGLAnalyzerHeuristic supportsAPI:]', '-[DYGLAnalyzerEngine .cxx_construct]', 
                       '-[DYGLAnalyzerEngine .cxx_destruct]', '-[DYGLAnalyzerEngine _newHeuristicPoolWithGraphicsEngineID:]', 
                       '-[DYGLAnalyzerEngine _populateHeuristicPool:]', 
                       '-[DYGLAnalyzerEngine _setContextIfPlatformFunc:]', 
                       '-[DYGLAnalyzerEngine _stateMirrorInitialize]', 
                       '-[DYGLAnalyzerEngine _stateMirrorProcessFunction:functionIndex:]', 
                       '-[DYGLAnalyzerEngine _stateMirrorProcessFunctionAndAnnotate:functionIndex:]', 
                       '-[DYGLAnalyzerEngine _supportedGraphicsAPI]', '-[DYGLAnalyzerEngine configureForArchive:]', 
                       '-[DYGLAnalyzerEngine deviceIsSGX535ForContext:]', 
                       '-[DYGLAnalyzerEngine doesProgramHaveLinkedShader:programID:shaderType:]', 
                       '-[DYGLAnalyzerEngine drawCallsUsingProgram:graphicsEngineID:]', 
                       '-[DYGLAnalyzerEngine enableAllHeuristics]', '-[DYGLAnalyzerEngine enableStateDeltaGeneratorHeuristics]', 
                       '-[DYGLAnalyzerEngine getObjectLabel:objectType:objectID:]', 
                       '-[DYGLAnalyzerEngine getPerStateMirrorAnnotation]', 
                       '-[DYGLAnalyzerEngine getProgramArrayUsingShader:shaderID:]', 
                       '-[DYGLAnalyzerEngine getShaderIDFromProgram:shaderType:programID:]', 
                       '-[DYGLAnalyzerEngine getShaderType:shaderID:]', 
                       '-[DYGLAnalyzerEngine getSharegroupObjectCoverage:]', 
                       '-[DYGLAnalyzerEngine getStateMirrorContext:]', 
                       '-[DYGLAnalyzerEngine getStateMirrorContextOpenGLFunctionalityLevel:]', 
                       '-[DYGLAnalyzerEngine getStateMirrorManager]', '-[DYGLAnalyzerEngine getStaticBufferIdArray:]', 
                       '-[DYGLAnalyzerEngine getStaticObjectIDArray:objectType:]', 
                       '-[DYGLAnalyzerEngine getStaticProgramIdArray:]', 
                       '-[DYGLAnalyzerEngine getStaticShaderIdArray:]', 
                       '-[DYGLAnalyzerEngine getStaticTextureIdArray:]', 
                       '-[DYGLAnalyzerEngine init]', '-[DYGLAnalyzerEngine isMultiSampledRenderingEnabledForContext:]', 
                       '-[DYGLAnalyzerEngine isObjectCreatedInCapture:objectType:objectID:]', 
                       '-[DYGLAnalyzerEngine isObjectDataUpdatedInCapture:objectType:objectID:]', 
                       '-[DYGLAnalyzerEngine isObjectFullyPreUpdatedInCapture:objectType:objectID:]', 
                       '-[DYGLAnalyzerEngine isObjectUsedInCapture:objectType:objectID:]', 
                       '-[DYGLAnalyzerEngine isUniformFullyPreUpdatedInCapture:programID:uniformLoc:]', 
                       '-[DYGLAnalyzerEngine maxColorAttachmentsForContext:]', 
                       '-[DYGLAnalyzerEngine maxDrawBuffersForContext:]', 
                       '-[DYGLAnalyzerEngine maxTransformFeedbackSeparateAttribsForContext:]', 
                       '-[DYGLAnalyzerEngine maxUniformBufferBindingsForContext:]', 
                       '-[DYGLAnalyzerEngine maxVertexAttribsForContext:]', 
                       '-[DYGLAnalyzerEngine nameForVariable:graphicsEngineID:]', 
                       '-[DYGLAnalyzerEngine newFrameStatisticsFinding]', 
                       '-[DYGLAnalyzerEngine processFunction:blockMode:streamMode:analyzeInserted:findingsHandler:]', 
                       '-[DYGLAnalyzerErrorFinding isBufferDataCompletelyUpdated]', 
                       '-[DYGLAnalyzerErrorFinding isDataRestoreUnnecessaryForFunc:targetArgIndex:objectType:analyzerEngine:]', 
                       '-[DYGLAnalyzerErrorFinding isFrameStatistics]', 
                       '-[DYGLAnalyzerErrorFinding isInefficientStateUpdate]', 
                       '-[DYGLAnalyzerErrorFinding isRedundantCallOrQuery]', 
                       '-[DYGLAnalyzerErrorFinding isRedundantCall]', '-[DYGLAnalyzerErrorFinding isTextureImageCompletelyUpdated]', 
                       '-[DYGLAnalyzerErrorFinding localizedKind]', '-[DYGLAnalyzerErrorFinding synopsis]', 
                       '-[DYGLAnalyzerFinding _simplifiedDetailsStringSubstituted:plural:]', 
                       '-[DYGLAnalyzerFinding isBufferDataCompletelyUpdated]', 
                       '-[DYGLAnalyzerFinding isDataRestoreUnnecessaryForFunc:targetArgIndex:objectType:analyzerEngine:]', 
                       '-[DYGLAnalyzerFinding isFrameStatistics]', '-[DYGLAnalyzerFinding isInefficientStateUpdate]', 
                       '-[DYGLAnalyzerFinding isRedundantCallOrQuery]', 
                       '-[DYGLAnalyzerFinding isRedundantCall]', '-[DYGLAnalyzerFinding isTextureImageCompletelyUpdated]', 
                       '-[DYGLAnalyzerFinding localizedKind]', '-[DYGLAnalyzerFinding synopsis]', 
                       '-[DYGLAnalyzerFindingPunchThrough _apiSpecificReasonString:]', 
                       '-[DYGLAnalyzerFindingPunchThrough localizedKind]', 
                       '-[DYGLAnalyzerFindingPunchThrough synopsis]', '-[DYGLAnalyzerHeuristic .cxx_destruct]', 
                       '-[DYGLAnalyzerHeuristic _setGenerationEnvironmentForFinding:]', 
                       '-[DYGLAnalyzerHeuristic addFunctionIndexFBOAttachments:]', 
                       '-[DYGLAnalyzerHeuristic addFunctionIndexTextureCreation:textureID:]', 
                       '-[DYGLAnalyzerHeuristic addFunctionIndexTextureMip:textureID:]', 
                       '-[DYGLAnalyzerHeuristic appendBoundObjectDescription:target:andShortDesc:]', 
                       '-[DYGLAnalyzerHeuristic appendObjectDescription:objectType:objectID:andShortDesc:]', 
                       '-[DYGLAnalyzerHeuristic boundObjectDescription:]', 
                       '-[DYGLAnalyzerHeuristic errorFindingFromFunction:]', 
                       '-[DYGLAnalyzerHeuristic finding]', '-[DYGLAnalyzerHeuristic objectDescription:objectID:]', 
                       '-[DYGLAnalyzerHeuristic platformConstraints]', 
                       '-[DYGLAnalyzerHeuristic processFunction:stateMirrorRetCode:]', 
                       '-[DYGLAnalyzerHeuristicPool firstBindAfterOutOfContextUpdate]', 
                       '-[DYGLAnalyzerHeuristicPool initWithEngine:graphicsEngineID:]', 
                       '-[DYGLAnalyzerHeuristicPool processPreMirrorHeuristics:captureBlockMode:functionIndex:]', 
                       '-[DYGLAnalyzerHeuristicPool setFirstBindAfterOutOfContextUpdate:]', 
                       '-[DYGLAnalyzerSharegroupObjectCoverage .cxx_construct]', 
                       '-[DYGLAnalyzerSharegroupObjectCoverage .cxx_destruct]', 
                       '-[DYGLAnalyzerSharegroupObjectCoverage _functionIndexSetFromDictionary:forObject:]', 
                       '-[DYGLAnalyzerSharegroupObjectCoverage addBufferFunctionIndex:functionIndex:]', 
                       '-[DYGLAnalyzerSharegroupObjectCoverage addRenderbufferFunctionIndex:functionIndex:]', 
                       '-[DYGLAnalyzerSharegroupObjectCoverage addTextureFunctionIndex:functionIndex:]', 
                       '-[DYGLAnalyzerSharegroupObjectCoverage clearBufferCoverage:]', 
                       '-[DYGLAnalyzerSharegroupObjectCoverage clearBufferFunctionIndexSet:]', 
                       '-[DYGLAnalyzerSharegroupObjectCoverage clearRenderbufferCoverage:]', 
                       '-[DYGLAnalyzerSharegroupObjectCoverage clearRenderbufferCoverage:inRect:]', 
                       '-[DYGLAnalyzerSharegroupObjectCoverage clearRenderbufferFunctionIndexSet:]', 
                       '-[DYGLAnalyzerSharegroupObjectCoverage clearTextureCoverage:target:level:layer:inRect:]', 
                       '-[DYGLAnalyzerSharegroupObjectCoverage clearTextureFunctionIndexSet:]', 
                       '-[DYGLAnalyzerSharegroupObjectCoverage coveredFunctionIndexSetForBuffer:]', 
                       '-[DYGLAnalyzerSharegroupObjectCoverage coveredFunctionIndexSetForTexture:]', 
                       '-[DYGLAnalyzerSharegroupObjectCoverage getBufferFunctionIndexSet:]', 
                       '-[DYGLAnalyzerSharegroupObjectCoverage getBufferSize:]', 
                       '-[DYGLAnalyzerSharegroupObjectCoverage getRenderbufferFunctionIndexSet:]', 
                       '-[DYGLAnalyzerSharegroupObjectCoverage getTextureFunctionIndexSet:]', 
                       '-[DYGLAnalyzerSharegroupObjectCoverage init]', 
                       '-[DYGLAnalyzerSharegroupObjectCoverage isBufferCovered:]', 
                       '-[DYGLAnalyzerSharegroupObjectCoverage isBufferCovered:offset:length:]', 
                       '-[DYGLAnalyzerSharegroupObjectCoverage isRenderbufferCovered:coverageMask:]', 
                       '-[DYGLAnalyzerSharegroupObjectCoverage isRenderbufferCovered:inRect:coverageMask:]', 
                       '-[DYGLAnalyzerSharegroupObjectCoverage isRenderbufferRetainedBacking:]', 
                       '-[DYGLAnalyzerSharegroupObjectCoverage isTextureCovered:target:level:coverageMask:]', 
                       '-[DYGLAnalyzerSharegroupObjectCoverage isTextureCovered:target:level:inRect:coverageMask:]', 
                       '-[DYGLAnalyzerSharegroupObjectCoverage isTextureCovered:target:level:layer:inRect:coverageMask:]', 
                       '-[DYGLAnalyzerSharegroupObjectCoverage removeBufferCoverage:offset:length:]', 
                       '-[DYGLAnalyzerSharegroupObjectCoverage setRenderbufferRetainedBacking:bWriteable:]', 
                       '-[DYGLAnalyzerSharegroupObjectCoverage specifyBuffer:size:]', 
                       '-[DYGLAnalyzerSharegroupObjectCoverage specifyRenderbuffer:width:height:]', 
                       '-[DYGLAnalyzerSharegroupObjectCoverage specifyTexture:target:level:width:height:]', 
                       '-[DYGLAnalyzerSharegroupObjectCoverage specifyTexture:target:level:width:height:depth:]', 
                       '-[DYGLAnalyzerSharegroupObjectCoverage tagBufferAsCovered:]', 
                       '-[DYGLAnalyzerSharegroupObjectCoverage tagBufferAsCovered:start:end:]', 
                       '-[DYGLAnalyzerSharegroupObjectCoverage tagRenderbufferAsCovered:coverageMask:]', 
                       '-[DYGLAnalyzerSharegroupObjectCoverage tagRenderbufferAsCovered:coverageMask:bottom:top:left:right:]', 
                       '-[DYGLAnalyzerSharegroupObjectCoverage tagTextureAsCovered:target:level:coverageMask:]', 
                       '-[DYGLAnalyzerSharegroupObjectCoverage tagTextureAsCovered:target:level:coverageMask:bottom:top:left:right:]', 
                       '-[DYGLAnalyzerSharegroupObjectCoverage tagTextureAsCovered:target:level:coverageMask:bottom:top:left:right:lowLayer:highLayer:]', 
                       '-[DYGLProfileConstraints constRefToConstraintsData]', 
                       '-[DYGLProfileConstraints initWithConstraints:]', 
                       '-[DYGLProfileConstraints refToConstraintsData]', 
                       GCC_except_table0, GCC_except_table0, GCC_except_table0, 
                       GCC_except_table0, GCC_except_table1, GCC_except_table1, 
                       GCC_except_table1, GCC_except_table1, GCC_except_table10, 
                       GCC_except_table1013, GCC_except_table104, GCC_except_table1044, 
                       GCC_except_table108, GCC_except_table11, GCC_except_table111, 
                       GCC_except_table1127, GCC_except_table1128, GCC_except_table1132, 
                       GCC_except_table1135, GCC_except_table12, GCC_except_table1228, 
                       GCC_except_table128, GCC_except_table1285, GCC_except_table1286, 
                       GCC_except_table13, GCC_except_table13, GCC_except_table1302, 
                       GCC_except_table1315, GCC_except_table132, GCC_except_table1357, 
                       GCC_except_table1358, GCC_except_table1391, GCC_except_table14, 
                       GCC_except_table14, GCC_except_table14, GCC_except_table1445, 
                       GCC_except_table1447, GCC_except_table1452, GCC_except_table1455, 
                       GCC_except_table1456, GCC_except_table15, GCC_except_table15, 
                       GCC_except_table1573, GCC_except_table16, GCC_except_table16, 
                       GCC_except_table164, GCC_except_table166, GCC_except_table1675, 
                       GCC_except_table1698, GCC_except_table1699, GCC_except_table17, 
                       GCC_except_table17, GCC_except_table170, GCC_except_table1709, 
                       GCC_except_table1721, GCC_except_table1740, GCC_except_table1741, 
                       GCC_except_table178, GCC_except_table18, GCC_except_table18, 
                       GCC_except_table18, GCC_except_table1855, GCC_except_table1856, 
                       GCC_except_table1883, GCC_except_table19, GCC_except_table19, 
                       GCC_except_table1901, GCC_except_table1902, GCC_except_table1909, 
                       GCC_except_table1910, GCC_except_table1920, GCC_except_table1922, 
                       GCC_except_table1926, GCC_except_table1929, GCC_except_table1932, 
                       GCC_except_table1933, GCC_except_table1937, GCC_except_table1940, 
                       GCC_except_table1946, GCC_except_table1947, GCC_except_table1950, 
                       GCC_except_table1952, GCC_except_table1980, GCC_except_table1995, 
                       GCC_except_table1997, GCC_except_table2, GCC_except_table2, 
                       GCC_except_table2, GCC_except_table2, GCC_except_table20, 
                       GCC_except_table201, GCC_except_table21, GCC_except_table216, 
                       GCC_except_table22, GCC_except_table220, GCC_except_table222, 
                       GCC_except_table237, GCC_except_table24, GCC_except_table244, 
                       GCC_except_table25, GCC_except_table253, GCC_except_table26, 
                       GCC_except_table262, GCC_except_table27, GCC_except_table270, 
                       GCC_except_table275, GCC_except_table28, GCC_except_table282, 
                       GCC_except_table283, GCC_except_table283, GCC_except_table284, 
                       GCC_except_table3, GCC_except_table3, GCC_except_table30, 
                       GCC_except_table305, GCC_except_table32, GCC_except_table32, 
                       GCC_except_table333, GCC_except_table348, GCC_except_table37, 
                       GCC_except_table37, GCC_except_table373, GCC_except_table385, 
                       GCC_except_table39, GCC_except_table390, GCC_except_table394, 
                       GCC_except_table396, GCC_except_table4, GCC_except_table4, 
                       GCC_except_table40, GCC_except_table40, GCC_except_table401, 
                       GCC_except_table402, GCC_except_table405, GCC_except_table41, 
                       GCC_except_table41, GCC_except_table43, GCC_except_table430, 
                       GCC_except_table434, GCC_except_table435, GCC_except_table437, 
                       GCC_except_table439, GCC_except_table44, GCC_except_table442, 
                       GCC_except_table444, GCC_except_table446, GCC_except_table452, 
                       GCC_except_table453, GCC_except_table456, GCC_except_table460, 
                       GCC_except_table464, GCC_except_table469, GCC_except_table47, 
                       GCC_except_table48, GCC_except_table484, GCC_except_table49, 
                       GCC_except_table490, GCC_except_table494, GCC_except_table499, 
                       GCC_except_table5, GCC_except_table5, GCC_except_table50, 
                       GCC_except_table502, GCC_except_table508, GCC_except_table51, 
                       GCC_except_table518, GCC_except_table519, GCC_except_table524, 
                       GCC_except_table528, GCC_except_table533, GCC_except_table534, 
                       GCC_except_table537, GCC_except_table546, GCC_except_table55, 
                       GCC_except_table553, GCC_except_table562, GCC_except_table57, 
                       GCC_except_table578, GCC_except_table579, GCC_except_table581, 
                       GCC_except_table582, GCC_except_table586, GCC_except_table587, 
                       GCC_except_table590, GCC_except_table592, GCC_except_table593, 
                       GCC_except_table594, GCC_except_table596, GCC_except_table6, 
                       GCC_except_table6, GCC_except_table6, GCC_except_table602, 
                       GCC_except_table628, GCC_except_table633, GCC_except_table634, 
                       GCC_except_table635, GCC_except_table636, GCC_except_table637, 
                       GCC_except_table642, GCC_except_table645, GCC_except_table648, 
                       GCC_except_table65, GCC_except_table653, GCC_except_table654, 
                       GCC_except_table657, GCC_except_table66, GCC_except_table662, 
                       GCC_except_table664, GCC_except_table666, GCC_except_table669, 
                       GCC_except_table7, GCC_except_table70, GCC_except_table71, 
                       GCC_except_table719, GCC_except_table72, GCC_except_table72, 
                       GCC_except_table723, GCC_except_table73, GCC_except_table734, 
                       GCC_except_table739, GCC_except_table74, GCC_except_table743, 
                       GCC_except_table744, GCC_except_table745, GCC_except_table747, 
                       GCC_except_table749, GCC_except_table75, GCC_except_table752, 
                       GCC_except_table76, GCC_except_table77, GCC_except_table78, 
                       GCC_except_table8, GCC_except_table80, GCC_except_table80, 
                       GCC_except_table81, GCC_except_table81, GCC_except_table82, 
                       GCC_except_table842, GCC_except_table852, GCC_except_table9, 
                       GCC_except_table90, GCC_except_table92, GCC_except_table926, 
                       GCC_except_table944, GCC_except_table97, GCC_except_table971, 
                       GCC_except_table98, GCC_except_table98, GCC_except_table980, 
                       _DYBufferBindingArray, _DYFEIBufferID, _DYFEIFramebufferID, 
                       _DYFEIFunctionEnum, _DYFEIProgramID, _DYFEIProgramPipelineID, 
                       _DYFEIQueryID, _DYFEIRenderbufferID, _DYFEISamplerObjectID, 
                       _DYFEIShaderID, _DYFEISyncObjectID, _DYFEITextureID, 
                       _DYFEITransformFeedbackBufferID, _DYFEIVertexArrayObjectID, 
                       _DYFGDKBufferMemUploaded, _DYFGDKNumBuffersUploaded, 
                       _DYFGDKNumDisables, _DYFGDKNumDrawCalls, _DYFGDKNumEnables, 
                       _DYFGDKNumFinishes, _DYFGDKNumFlushes, _DYFGDKNumGLAndPlatformCalls, 
                       _DYFGDKNumGLCalls, _DYFGDKNumGetCalls, _DYFGDKNumLinesRendered, 
                       _DYFGDKNumMSAAResolves, _DYFGDKNumNonMipTexUsed, 
                       _DYFGDKNumPlatformCalls, _DYFGDKNumPointsRendered, 
                       _DYFGDKNumReadPixels, _DYFGDKNumRenderPasses, _DYFGDKNumTexLoads, 
                       _DYFGDKNumTexUploaded, _DYFGDKNumTexUsed, _DYFGDKNumTrianglesRendered, 
                       _DYFGDKNumUpdateCalls, _DYFGDKPresentedRenderbufferHeight, 
                       _DYFGDKPresentedRenderbufferWidth, _DYFGDKRedundantStateFuncCount, 
                       _DYFGDKTexMemUploaded, _DYFKAttachProgramWithoutProgramSeparable, 
                       _DYFKAttachmentInternalFormatIsNotTextureFilterable, 
                       _DYFKAttachmentNumMultisampleMismatch, _DYFKAttachmentSizeMismatch, 
                       _DYFKAttemptToChangeQueryTarget, _DYFKBeginQueryQueryIsAlreadyActive, 
                       _DYFKBindAttribAfterLink, _DYFKBlitFramebufferReadFromUninitializedAttachment, 
                       _DYFKBufferBindingVAODependency, _DYFKBufferDataCompletelyUpdated, 
                       _DYFKClearBufferInvalidBufferType, _DYFKClearWithRasterizerDiscard, 
                       _DYFKClientSidePerVertexDataAlignmentIssue, _DYFKColorAttachmentInternalFormatIsNotColorRenderable, 
                       _DYFKCompileError, _DYFKDepthAttachmentInternalFormatIsNotDepthRenderable, 
                       _DYFKDepthStencilAttachmentsAreNotSameImage, _DYFKDepthTestEnabledWithoutDepthBuffer, 
                       _DYFKDifferentStrides, _DYFKDiscardFramebufferBeforePresent, 
                       _DYFKDrawCallAfterReadPixels, _DYFKDrawCallWithIncompletePrimitives, 
                       _DYFKDrawCallWithZeroPrimitives, _DYFKDrawExceededArrayBufferSize, 
                       _DYFKDrawExceededElementArrayBufferSize, _DYFKEndQueryWithoutActiveQuery, 
                       _DYFKExceededUniformArrayBounds, _DYFKExcessiveSmallBatchUsage, 
                       _DYFKExtraneousShaderForPipelineStage, _DYFKGLErrorInvalidEnum, 
                       _DYFKGLErrorInvalidFramebufferOperation, _DYFKGLErrorInvalidOperation, 
                       _DYFKGLErrorInvalidValue, _DYFKGLErrorOutOfMemory, 
                       _DYFKGLErrorStackOverflow, _DYFKGLErrorStackUnderflow, 
                       _DYFKGetQueryObjectuivQueryIsActive, _DYFKHeavyLightUsage, 
                       _DYFKInconsistentMipchainInternalFormats, _DYFKInconsistentMipchainSizes, 
                       _DYFKIncorrectMulticontextObjectUsage, _DYFKIndexedDrawExceededArrayBufferSize, 
                       _DYFKIndexedDrawTransformFeedbackActiveNotPaused, 
                       _DYFKIneffectiveSetUniformCall, _DYFKInefficientStateUpdate, 
                       _DYFKInvalidMipLevelInternalFormat, _DYFKInvalidWrapParameter, 
                       _DYFKLinkError, _DYFKMSAAResolveUninitializedColorAttachment, 
                       _DYFKMinLODExceedsMaxLOD, _DYFKMipchainWithoutMipmapping, 
                       _DYFKMipmappingWithNPOT, _DYFKMipmappingWithoutCompleteMipchain, 
                       _DYFKMissingShaderTypeForPipelineStage, _DYFKMonolithicProgramWithProgramSeparable, 
                       _DYFKMulticontextBufferUsageWithoutFlush, _DYFKMulticontextBufferUsageWithoutRebinding, 
                       _DYFKMulticontextRenderbufferUsageWithoutFlush, 
                       _DYFKMulticontextRenderbufferUsageWithoutRebinding, 
                       _DYFKMulticontextTextureUsageWithoutFlush, _DYFKMulticontextTextureUsageWithoutRebinding, 
                       _DYFKMulticontextTransformFeedbackBufferUsageWithoutEnd, 
                       _DYFKMultithreadedContextUsage, _DYFKMultithreadedContextUsageError, 
                       _DYFKNoAttachments, _DYFKNoBufferData, _DYFKNonExistentAttachment, 
                       _DYFKNonExistentBufferUsage, _DYFKNonExistentUniform, 
                       _DYFKObjectIsNotAQueryObject, _DYFKOverlappingVertexData, 
                       _DYFKPerFrameStatistics, _DYFKPipelineValidateError, 
                       _DYFKPresentNonExistentRenderbuffer, _DYFKPresentNonLayerBackedRenderbuffer, 
                       _DYFKQueryIsAlreadyActive, _DYFKQueryStillActiveAtEndOfFrame, 
                       _DYFKQueryingOcclusionQueryLaunchedInThisFrame, 
                       _DYFKReadPixelsSuboptimalDimensions, _DYFKReadPixelsSuboptimalFormat, 
                       _DYFKReadPixelsSuboptimalPacking, _DYFKReadPixelsUninitializedColorAttachment, 
                       _DYFKRecommendByteSizedColorData, _DYFKRecommendCompactTextureCoordinatesData, 
                       _DYFKRecommendCompressedTexture, _DYFKRecommendCompressedTextureES3, 
                       _DYFKRecommendFourComponentsForByteData, _DYFKRecommendIndexedRendering, 
                       _DYFKRecommendNotUsingFixed, _DYFKRecommendNotUsingSignedByte, 
                       _DYFKRecommendShortElementData, _DYFKRecommendTexParameterSetupBeforeUpload, 
                       _DYFKRecommendTwoOrFourComponentsForShortData, _DYFKRecommendUsingElementBuffers, 
                       _DYFKRecommendUsingInterleavingForStaticVBOs, _DYFKRecommendUsingVAO, 
                       _DYFKRecommendUsingVBO, _DYFKRedundantAttribLocationQuery, 
                       _DYFKRedundantCall, _DYFKRedundantUniformLocationQuery, 
                       _DYFKSameVertexData, _DYFKStateQueryCallCount, _DYFKStencilAttachmentInternalFormatIsNotStencilRenderable, 
                       _DYFKStencilTestEnabledWithoutStencilBuffer, _DYFKTextureImageCompletelyUpdated, 
                       _DYFKTextureInternalFormatIsNotTextureFilterable, 
                       _DYFKTextureLayerAttachmentExceedsDepth, _DYFKTextureNotCubeComplete, 
                       _DYFKTransformFeedbackIsOverflowingBuffer, _DYFKTransformFeedbackNoVaryings, 
                       _DYFKTransformFeedbackWithUnlinkedVaryings, _DYFKUniformBufferTooSmallForUniformBlock, 
                       _DYFKUninitializedBufferData, _DYFKUninitializedColorAttachment, 
                       _DYFKUninitializedTextureData, _DYFKUseOfIncompletePipeline, 
                       _DYFKUseOfNonExistentPipeline, _DYFKUseOfNonExistentProgram, 
                       _DYFKUseOfPipelineWithUnlinkedProgram, _DYFKUseOfUnlinkedProgram, 
                       _DYFKUseProgramTransformFeedbackActiveNotPaused, 
                       _DYFKVertexBufferObjectDataAlignmentIssue, _DYFKZeroSizedAttachment, 
                       __Z15DYDecodePointerRKN8GPUTools2FD8ArgumentE, __Z15DYNumLinesDrawnRKN8GPUTools2FD8FunctionE, 
                       __Z16DYDebugPrintFuncRKN8GPUTools2FD8FunctionE, 
                       __Z16DYDecodeArgumentRKN8GPUTools2FD8ArgumentE, 
                       __Z16DYNumPointsDrawnRKN8GPUTools2FD8FunctionE, 
                       __Z17DYAUIsGetFunctionRKN8GPUTools2FD8FunctionE, 
                       __Z19DYNumTrianglesDrawnRKN8GPUTools2FD8FunctionE, 
                       __Z21DYAppendVectorToArrayP14NSMutableArrayRNSt3__16vectorIiNS1_9allocatorIiEEEE, 
                       __Z21DYGetTexturePixelSizeii, __Z23DYAUIsNULLTexUploadFuncRKN8GPUTools2FD8FunctionE, 
                       __Z23DYIsPointerArgumentNULLRKN8GPUTools2FD8ArgumentE, 
                       __Z23DYNewNumberWithArgumentRKN8GPUTools2FD8ArgumentE, 
                       __Z23DYTextureUploadedMemoryRKN8GPUTools2FD8FunctionEi, 
                       __Z24DYAUDecodeParameterInt32RKN8GPUTools2FD8ArgumentE, 
                       __Z24DYDebugPrintFuncNSStringRKN8GPUTools2FD8FunctionE, 
                       __Z24DYGetPrimTypeAndNumVertsRKN8GPUTools2FD8FunctionEPiS4_S4_, 
                       __Z24DYInitializeUtilityFuncsv, __Z27DYAUIsTextureUploadFunctionRKN8GPUTools2FD8FunctionE, 
                       __Z30DYEnumerateEnabledArrayBuffersP18DYGLAnalyzerEnginePKN8GPUTools2SM2GL18ContextStateMirrorINS1_24AnnotatedBaseObjectTypesEEERKNS1_2FD8FunctionEU13block_pointerFvPKNS3_12BufferObjectIS5_EEiiiiiiPbE, 
                       __ZL15s_fenumGetFuncs, __ZL21s_fenumGetFuncsSetPtr, 
                       __ZL21s_fenumTexUploadFuncs, __ZL22GetPlatformConstraints26DYOpenGLFunctionalityLevelP13DYContextInfo, 
                       __ZL27s_fenumTexUploadFuncsSetPtr, __ZN8GPUTools19CObjectBaseAnalysis19processFunctionBaseERKNS_2FD8FunctionEi, 
                       __ZN8GPUTools19CStateBaseAnnotated19processFunctionBaseERKNS_2FD8FunctionEi, 
                       __ZN8GPUTools20CObjectBaseAnnotated19processFunctionBaseERKNS_2FD8FunctionEi, 
                       __ZN8GPUTools20CObjectBaseAnnotatedC1Ev, __ZN8GPUTools20CObjectBaseAnnotatedC2Ev, 
                       __ZN8GPUTools24PerStateMirrorAnnotation13_ProcessClearEPNS_2SM2GL18ContextStateMirrorINS_24AnnotatedBaseObjectTypesEEERKNS_2FD8FunctionEPjjji, 
                       __ZN8GPUTools24PerStateMirrorAnnotation15ProcessFunctionERKNS_2FD8FunctionEi, 
                       __ZN8GPUTools24PerStateMirrorAnnotation15_GetBoundBufferEPNS_2SM2GL18ContextStateMirrorINS_24AnnotatedBaseObjectTypesEEEj, 
                       __ZN8GPUTools24PerStateMirrorAnnotation17_SaveDrawCallInfoEPNS_2SM2GL18ContextStateMirrorINS_24AnnotatedBaseObjectTypesEEEi, 
                       __ZN8GPUTools24PerStateMirrorAnnotation20GetFlushTimestampSetEy, 
                       __ZN8GPUTools24PerStateMirrorAnnotation21_ProcessBlitOrResolveEPNS_2SM2GL18ContextStateMirrorINS_24AnnotatedBaseObjectTypesEEERKNS_2FD8FunctionEPjji, 
                       __ZN8GPUTools24PerStateMirrorAnnotation22AddPreviousUpdateIndexEi, 
                       __ZN8GPUTools24PerStateMirrorAnnotation24GetLastDrawForSharegroupEy, 
                       __ZN8GPUTools24PerStateMirrorAnnotation24GetPreviousUpdateIndicesEv, 
                       __ZN8GPUTools24PerStateMirrorAnnotation25GetLastClearForSharegroupEy, 
                       __ZN8GPUTools24PerStateMirrorAnnotation26ClearPreviousUpdateIndicesEv, 
                       __ZN8GPUTools24PerStateMirrorAnnotation27GetLastPresentForSharegroupEy, 
                       __ZN8GPUTools24PerStateMirrorAnnotation28DidFlushOccurWithinTimerangeEyyy, 
                       __ZN8GPUTools24PerStateMirrorAnnotationC1Ev, __ZN8GPUTools24PerStateMirrorAnnotationC2Ev, 
                       __ZN8GPUTools26CProgramTokenBaseAnnotated19processFunctionBaseERKNS_2FD8FunctionEi, 
                       __ZNK8GPUTools24PerStateMirrorAnnotation25GetDrawCallInfoForContextEy, 
                       __ZNSt3__1L19piecewise_constructE, __ZNSt3__1L19piecewise_constructE, 
                       __ZZ24DYInitializeUtilityFuncsvE17lookup_table_once, 
                       __ZZL19create_debug_tracervE11tracer_once, __ZZL19create_debug_tracervE6tracer, 
                       '___42-[DYGLAnalyzerEngine configureForArchive:]_block_invoke', 
                       '___56-[DYGLAnalyzerHeuristic addFunctionIndexFBOAttachments:]_block_invoke', 
                       '___63-[DYGLAnalyzerEngine isMultiSampledRenderingEnabledForContext:]_block_invoke', 
                       ____ZL19create_debug_tracerv_block_invoke, ____ZN8GPUTools24PerStateMirrorAnnotation15ProcessFunctionERKNS_2FD8FunctionEi_block_invoke, 
                       ____ZN8GPUTools2SM2GL13TextureObjectINS_24AnnotatedBaseObjectTypesEE24processCopyTextureLevelsERKNS_2FD8FunctionEiPS4__block_invoke, 
                       ____ZN8GPUTools2SM2GL18StateMirrorManagerINS_24AnnotatedBaseObjectTypesEE15ProcessFunctionERKNS_2FD8FunctionEi_block_invoke, 
                       ____ZNK8GPUTools2SM2GL18ContextStateMirrorINS_24AnnotatedBaseObjectTypesEE25GetSamplersInUseForTargetEjjRNSt3__16vectorINS1_11SamplerInfoENS5_9allocatorIS7_EEEE_block_invoke, 
                       ___block_descriptor_tmp, ___block_descriptor_tmp, 
                       ___block_descriptor_tmp, ___block_descriptor_tmp.132, 
                       ___block_descriptor_tmp.237, ___block_descriptor_tmp.244, 
                       ___block_descriptor_tmp.4, ___block_descriptor_tmp.42, 
                       ___block_descriptor_tmp.9, ___block_literal_global, 
                       ___block_literal_global.43, ___copy_helper_block_, 
                       ___copy_helper_block_, ___copy_helper_block_, ___copy_helper_block_.129, 
                       ___destroy_helper_block_, ___destroy_helper_block_, 
                       ___destroy_helper_block_, ___destroy_helper_block_.130 ]
    weak-def-symbols: [ __ZNSt3__112__hash_tableIiNS_4hashIiEENS_8equal_toIiEENS_9allocatorIiEEE6rehashEm, 
                        __ZN8GPUTools10DYSpanListINS0_INS0_IjEEEEE5mergeERKNS_6DYSpanIS2_EE, 
                        __ZN8GPUTools10DYSpanListINS0_INS0_IjEEEEE5mergeExxRKS2_, 
                        __ZN8GPUTools10DYSpanListINS0_IjEEE5mergeERKNS_6DYSpanIS1_EE, 
                        __ZN8GPUTools10DYSpanListINS0_IjEEE5mergeERKS2_, 
                        __ZN8GPUTools10DYSpanListINS0_IjEEE5mergeExxRKS1_, 
                        __ZN8GPUTools10DYSpanListIjE5mergeERKNS_6DYSpanIjEE, 
                        __ZN8GPUTools10DYSpanListIjE5mergeERKS1_, __ZN8GPUTools13ScopeFunctionD2Ev, 
                        __ZN8GPUTools19DYCoverageElement1D12tagAsCoveredExx, 
                        __ZN8GPUTools19DYCoverageElement1D20spanListCoversExtentERKNS_10DYSpanListIjEExxj, 
                        __ZN8GPUTools19DYCoverageElement1D22spanListRemoveCoverageERNS_10DYSpanListIjEExx, 
                        __ZN8GPUTools19DYCoverageElement1D5clearEv, __ZN8GPUTools19DYCoverageElement2D12tagAsCoveredExxxxj, 
                        __ZN8GPUTools19DYCoverageElement2D18spanListCoversRectERKNS_10DYSpanListINS1_IjEEEERK12DYRegionRectj, 
                        __ZN8GPUTools19DYCoverageElement2D22spanListRemoveCoverageERNS_10DYSpanListINS1_IjEEEERK12DYRegionRect, 
                        __ZN8GPUTools19DYCoverageElement2D5clearEv, __ZN8GPUTools19DYCoverageElement3D12tagAsCoveredExxxxxxj, 
                        __ZN8GPUTools19DYCoverageElement3D20isRectCoveredInLayerEijRK12DYRegionRect, 
                        __ZN8GPUTools19DYCoverageElement3D22spanListRemoveCoverageERNS_10DYSpanListINS1_INS1_IjEEEEEEiRK12DYRegionRect, 
                        __ZN8GPUTools19DYCoverageElement3D5clearEv, __ZN8GPUTools20CObjectBaseAnnotated18setBaseParameterTvIiEEbiPKT_, 
                        __ZN8GPUTools2SM14DYStateElementINS0_4VecNIdLj16EEENS_19CStateBaseAnnotatedEE6setValERKS3_i, 
                        __ZN8GPUTools2SM14DYStateElementINS0_4VecNIdLj2EEENS_19CStateBaseAnnotatedEE6setValERKS3_i, 
                        __ZN8GPUTools2SM14DYStateElementINS0_4VecNIdLj4EEENS_19CStateBaseAnnotatedEE6setValERKS3_i, 
                        __ZN8GPUTools2SM14DYStateElementINS0_4VecNIfLj2EEENS_19CStateBaseAnnotatedEE6setValERKS3_i, 
                        __ZN8GPUTools2SM14DYStateElementINS0_4VecNIfLj3EEENS_19CStateBaseAnnotatedEE6setValERKS3_i, 
                        __ZN8GPUTools2SM14DYStateElementINS0_4VecNIfLj4EEENS_19CStateBaseAnnotatedEE6setValERKS3_i, 
                        __ZN8GPUTools2SM14DYStateElementINS0_4VecNIiLj4EEENS_19CStateBaseAnnotatedEE6setValERKS3_i, 
                        __ZN8GPUTools2SM14DYStateElementINSt3__112basic_stringIcNS2_11char_traitsIcEENS2_9allocatorIcEEEENS_19CStateBaseAnnotatedEE14setValFromFuncERKNS_2FD8FunctionEiiii, 
                        __ZN8GPUTools2SM14DYStateElementINSt3__112basic_stringIcNS2_11char_traitsIcEENS2_9allocatorIcEEEENS_19CStateBaseAnnotatedEE6setValERKS8_i, 
                        __ZN8GPUTools2SM14DYStateElementINSt3__16vectorINS2_12basic_stringIcNS2_11char_traitsIcEENS2_9allocatorIcEEEENS7_IS9_EEEENS_19CStateBaseAnnotatedEE14setValFromFuncERKNS_2FD8FunctionEiiii, 
                        __ZN8GPUTools2SM14DYStateElementINSt3__16vectorINS2_12basic_stringIcNS2_11char_traitsIcEENS2_9allocatorIcEEEENS7_IS9_EEEENS_19CStateBaseAnnotatedEE6setValERKSB_i, 
                        __ZN8GPUTools2SM14DYStateElementINSt3__16vectorIdNS2_9allocatorIdEEEENS_19CStateBaseAnnotatedEE14setValFromFuncERKNS_2FD8FunctionEiiii, 
                        __ZN8GPUTools2SM14DYStateElementINSt3__16vectorIdNS2_9allocatorIdEEEENS_19CStateBaseAnnotatedEE6setValERKS6_i, 
                        __ZN8GPUTools2SM17GetStateMemberValINSt3__112basic_stringIcNS2_11char_traitsIcEENS2_9allocatorIcEEEES8_EEvPT_RKT0_, 
                        __ZN8GPUTools2SM17GetStateMemberValIbNSt3__112basic_stringIcNS2_11char_traitsIcEENS2_9allocatorIcEEEEEEvPT_RKT0_, 
                        __ZN8GPUTools2SM17GetStateMemberValIiNSt3__112basic_stringIcNS2_11char_traitsIcEENS2_9allocatorIcEEEEEEvPT_RKT0_, 
                        __ZN8GPUTools2SM17GetStateMemberValIjNSt3__112basic_stringIcNS2_11char_traitsIcEENS2_9allocatorIcEEEEEEvPT_RKT0_, 
                        __ZN8GPUTools2SM21__DYGetStateMemberValINSt3__112basic_stringIcNS2_11char_traitsIcEENS2_9allocatorIcEEEEEEvPS8_RKNS2_6vectorIT_NS6_ISB_EEEENS2_17integral_constantIbLb0EEESH_, 
                        __ZN8GPUTools2SM21__DYGetStateMemberValIbEEvPNSt3__112basic_stringIcNS2_11char_traitsIcEENS2_9allocatorIcEEEERKT_NS2_17integral_constantIbLb0EEENSD_IbLb1EEE, 
                        __ZN8GPUTools2SM21__DYGetStateMemberValIbEEvPT_NSt3__112basic_stringIcNS4_11char_traitsIcEENS4_9allocatorIcEEEENS4_17integral_constantIbLb1EEENSB_IbLb0EEE, 
                        __ZN8GPUTools2SM21__DYGetStateMemberValIbNSt3__112basic_stringIcNS2_11char_traitsIcEENS2_9allocatorIcEEEEEEvPT_RKNS2_6vectorIT0_NS6_ISC_EEEENS2_17integral_constantIbLb1EEENSH_IbLb0EEE, 
                        __ZN8GPUTools2SM21__DYGetStateMemberValIdEEvPNSt3__112basic_stringIcNS2_11char_traitsIcEENS2_9allocatorIcEEEERKNS2_6vectorIT_NS6_ISB_EEEENS2_17integral_constantIbLb0EEESH_, 
                        __ZN8GPUTools2SM21__DYGetStateMemberValIdEEvPNSt3__112basic_stringIcNS2_11char_traitsIcEENS2_9allocatorIcEEEERKT_NS2_17integral_constantIbLb0EEENSD_IbLb1EEE, 
                        __ZN8GPUTools2SM21__DYGetStateMemberValIfEEvPNSt3__112basic_stringIcNS2_11char_traitsIcEENS2_9allocatorIcEEEERKT_NS2_17integral_constantIbLb0EEENSD_IbLb1EEE, 
                        __ZN8GPUTools2SM21__DYGetStateMemberValIiEEvPNSt3__112basic_stringIcNS2_11char_traitsIcEENS2_9allocatorIcEEEERKT_NS2_17integral_constantIbLb0EEENSD_IbLb1EEE, 
                        __ZN8GPUTools2SM21__DYGetStateMemberValIiEEvPT_NSt3__112basic_stringIcNS4_11char_traitsIcEENS4_9allocatorIcEEEENS4_17integral_constantIbLb1EEENSB_IbLb0EEE, 
                        __ZN8GPUTools2SM21__DYGetStateMemberValIiLj4EEEvPNSt3__112basic_stringIcNS2_11char_traitsIcEENS2_9allocatorIcEEEERKNS0_4VecNIT_XT0_EEENS2_17integral_constantIbLb0EEESG_, 
                        __ZN8GPUTools2SM21__DYGetStateMemberValIiNSt3__112basic_stringIcNS2_11char_traitsIcEENS2_9allocatorIcEEEEEEvPT_RKNS2_6vectorIT0_NS6_ISC_EEEENS2_17integral_constantIbLb1EEENSH_IbLb0EEE, 
                        __ZN8GPUTools2SM21__DYGetStateMemberValIjEEvPNSt3__112basic_stringIcNS2_11char_traitsIcEENS2_9allocatorIcEEEERKT_NS2_17integral_constantIbLb0EEENSD_IbLb1EEE, 
                        __ZN8GPUTools2SM21__DYGetStateMemberValIjEEvPT_NSt3__112basic_stringIcNS4_11char_traitsIcEENS4_9allocatorIcEEEENS4_17integral_constantIbLb1EEENSB_IbLb0EEE, 
                        __ZN8GPUTools2SM21__DYGetStateMemberValIjNSt3__112basic_stringIcNS2_11char_traitsIcEENS2_9allocatorIcEEEEEEvPT_RKNS2_6vectorIT0_NS6_ISC_EEEENS2_17integral_constantIbLb1EEENSH_IbLb0EEE, 
                        __ZN8GPUTools2SM21__DYGetStateMemberValImEEvPNSt3__112basic_stringIcNS2_11char_traitsIcEENS2_9allocatorIcEEEERKT_NS2_17integral_constantIbLb0EEENSD_IbLb1EEE, 
                        __ZN8GPUTools2SM21__DYGetStateMemberValIxEEvPNSt3__112basic_stringIcNS2_11char_traitsIcEENS2_9allocatorIcEEEERKT_NS2_17integral_constantIbLb0EEENSD_IbLb1EEE, 
                        __ZN8GPUTools2SM21__DYGetStateMemberValIyEEvPNSt3__112basic_stringIcNS2_11char_traitsIcEENS2_9allocatorIcEEEERKT_NS2_17integral_constantIbLb0EEENSD_IbLb1EEE, 
                        __ZN8GPUTools2SM23DYDecodeRawDataToVectorIddEEvRNSt3__16vectorIT_NS2_9allocatorIS4_EEEEPT0_jj, 
                        __ZN8GPUTools2SM23DYDecodeRawDataToVectorIdfEEvRNSt3__16vectorIT_NS2_9allocatorIS4_EEEEPT0_jj, 
                        __ZN8GPUTools2SM23DYDecodeRawDataToVectorIdiEEvRNSt3__16vectorIT_NS2_9allocatorIS4_EEEEPT0_jj, 
                        __ZN8GPUTools2SM23DYDecodeRawDataToVectorIdjEEvRNSt3__16vectorIT_NS2_9allocatorIS4_EEEEPT0_jj, 
                        __ZN8GPUTools2SM26DYDecodeArgumentToVecNTypeINS0_4VecNIdLj16EEEEEvRT_RKNS_2FD8FunctionEjjj, 
                        __ZN8GPUTools2SM26DYDecodeArgumentToVecNTypeINS0_4VecNIdLj2EEEEEvRT_RKNS_2FD8FunctionEjjj, 
                        __ZN8GPUTools2SM26DYDecodeArgumentToVecNTypeINS0_4VecNIdLj4EEEEEvRT_RKNS_2FD8FunctionEjjj, 
                        __ZN8GPUTools2SM26DYDecodeArgumentToVecNTypeINS0_4VecNIfLj2EEEEEvRT_RKNS_2FD8FunctionEjjj, 
                        __ZN8GPUTools2SM26DYDecodeArgumentToVecNTypeINS0_4VecNIfLj3EEEEEvRT_RKNS_2FD8FunctionEjjj, 
                        __ZN8GPUTools2SM26DYDecodeArgumentToVecNTypeINS0_4VecNIfLj4EEEEEvRT_RKNS_2FD8FunctionEjjj, 
                        __ZN8GPUTools2SM26DYDecodeArgumentToVecNTypeINS0_4VecNIiLj4EEEEEvRT_RKNS_2FD8FunctionEjjj, 
                        __ZN8GPUTools2SM28DYDecodeArgumentToVectorTypeINSt3__112basic_stringIcNS2_11char_traitsIcEENS2_9allocatorIcEEEEEEvRNS2_6vectorIT_NS6_ISA_EEEERKNS_2FD8FunctionEjjj, 
                        __ZN8GPUTools2SM28DYDecodeArgumentToVectorTypeIdEEvRNSt3__16vectorIT_NS2_9allocatorIS4_EEEERKNS_2FD8FunctionEjjj, 
                        __ZN8GPUTools2SM2GL10SyncObjectINS_24AnnotatedBaseObjectTypesEE15processFunctionERKNS_2FD8FunctionEi, 
                        __ZN8GPUTools2SM2GL11QueryObjectINS_24AnnotatedBaseObjectTypesEE11setDefaultsEv, 
                        __ZN8GPUTools2SM2GL11QueryObjectINS_24AnnotatedBaseObjectTypesEE15processFunctionERKNS_2FD8FunctionEi, 
                        __ZN8GPUTools2SM2GL11QueryObjectINS_24AnnotatedBaseObjectTypesEEC2Ev, 
                        __ZN8GPUTools2SM2GL12BindingPoint4bindINS1_11QueryObjectINS_24AnnotatedBaseObjectTypesEEES6_EENS0_18StateSettingResultEiPNS1_17ObjectTrackingMapIT_iEEPNS8_IT0_iEE, 
                        __ZN8GPUTools2SM2GL12BindingPoint4bindINS1_12BufferObjectINS_24AnnotatedBaseObjectTypesEEES6_EENS0_18StateSettingResultEiPNS1_17ObjectTrackingMapIT_iEEPNS8_IT0_iEE, 
                        __ZN8GPUTools2SM2GL12BindingPoint4bindINS1_12ShaderObjectINS_24AnnotatedBaseObjectTypesEEES6_EENS0_18StateSettingResultEiPNS1_17ObjectTrackingMapIT_iEEPNS8_IT0_iEE, 
                        __ZN8GPUTools2SM2GL12BindingPoint4bindINS1_13ProgramObjectINS_24AnnotatedBaseObjectTypesEEES6_EENS0_18StateSettingResultEiPNS1_17ObjectTrackingMapIT_iEEPNS8_IT0_iEE, 
                        __ZN8GPUTools2SM2GL12BindingPoint4bindINS1_13SamplerObjectINS_24AnnotatedBaseObjectTypesEEES6_EENS0_18StateSettingResultEiPNS1_17ObjectTrackingMapIT_iEEPNS8_IT0_iEE, 
                        __ZN8GPUTools2SM2GL12BindingPoint4bindINS1_13TextureObjectINS_24AnnotatedBaseObjectTypesEEENS1_18RenderbufferObjectIS5_EEEENS0_18StateSettingResultEiPNS1_17ObjectTrackingMapIT_iEEPNSA_IT0_iEE, 
                        __ZN8GPUTools2SM2GL12BindingPoint4bindINS1_13TextureObjectINS_24AnnotatedBaseObjectTypesEEES6_EENS0_18StateSettingResultEiPNS1_17ObjectTrackingMapIT_iEEPNS8_IT0_iEE, 
                        __ZN8GPUTools2SM2GL12BindingPoint4bindINS1_17FramebufferObjectINS_24AnnotatedBaseObjectTypesEEES6_EENS0_18StateSettingResultEiPNS1_17ObjectTrackingMapIT_iEEPNS8_IT0_iEE, 
                        __ZN8GPUTools2SM2GL12BindingPoint4bindINS1_17VertexArrayObjectINS_24AnnotatedBaseObjectTypesEEES6_EENS0_18StateSettingResultEiPNS1_17ObjectTrackingMapIT_iEEPNS8_IT0_iEE, 
                        __ZN8GPUTools2SM2GL12BindingPoint4bindINS1_18RenderbufferObjectINS_24AnnotatedBaseObjectTypesEEENS1_13TextureObjectIS5_EEEENS0_18StateSettingResultEiPNS1_17ObjectTrackingMapIT_iEEPNSA_IT0_iEE, 
                        __ZN8GPUTools2SM2GL12BindingPoint4bindINS1_18RenderbufferObjectINS_24AnnotatedBaseObjectTypesEEES6_EENS0_18StateSettingResultEiPNS1_17ObjectTrackingMapIT_iEEPNS8_IT0_iEE, 
                        __ZN8GPUTools2SM2GL12BindingPoint4bindINS1_21ProgramPipelineObjectINS_24AnnotatedBaseObjectTypesEEES6_EENS0_18StateSettingResultEiPNS1_17ObjectTrackingMapIT_iEEPNS8_IT0_iEE, 
                        __ZN8GPUTools2SM2GL12BindingPoint4bindINS1_23TransformFeedbackObjectINS_24AnnotatedBaseObjectTypesEEES6_EENS0_18StateSettingResultEiPNS1_17ObjectTrackingMapIT_iEEPNS8_IT0_iEE, 
                        __ZN8GPUTools2SM2GL12BufferObjectINS_24AnnotatedBaseObjectTypesEE11setDefaultsEv, 
                        __ZN8GPUTools2SM2GL12BufferObjectINS_24AnnotatedBaseObjectTypesEE15processFunctionERKNS_2FD8FunctionEi, 
                        __ZN8GPUTools2SM2GL12BufferObjectINS_24AnnotatedBaseObjectTypesEEC2Ev, 
                        __ZN8GPUTools2SM2GL12DrawableInfoINS_24AnnotatedBaseObjectTypesEE11setDefaultsEv, 
                        __ZN8GPUTools2SM2GL12DrawableInfoINS_24AnnotatedBaseObjectTypesEE15processFunctionERKNS_2FD8FunctionEi, 
                        __ZN8GPUTools2SM2GL12DrawableInfoINS_24AnnotatedBaseObjectTypesEEC2Ev, 
                        __ZN8GPUTools2SM2GL12ShaderObjectINS_24AnnotatedBaseObjectTypesEE11setDefaultsEv, 
                        __ZN8GPUTools2SM2GL12ShaderObjectINS_24AnnotatedBaseObjectTypesEE15processFunctionERKNS_2FD8FunctionEi, 
                        __ZN8GPUTools2SM2GL12ShaderObjectINS_24AnnotatedBaseObjectTypesEEC2ERKS4_, 
                        __ZN8GPUTools2SM2GL12ShaderObjectINS_24AnnotatedBaseObjectTypesEEC2Ev, 
                        __ZN8GPUTools2SM2GL12TextureLayerINS_24AnnotatedBaseObjectTypesEE11setDefaultsEv, 
                        __ZN8GPUTools2SM2GL12TextureLayerINS_24AnnotatedBaseObjectTypesEE15processFunctionERKNS_2FD8FunctionEijj, 
                        __ZN8GPUTools2SM2GL12TextureLayerINS_24AnnotatedBaseObjectTypesEE16_IsFullSubUpdateERKNS_2FD8FunctionE, 
                        __ZN8GPUTools2SM2GL12TextureLayerINS_24AnnotatedBaseObjectTypesEE18_SetFormatsAndTypeERKNS_2FD8FunctionEij, 
                        __ZN8GPUTools2SM2GL12TextureLayerINS_24AnnotatedBaseObjectTypesEE24_UpdateTextureDataOffsetERKNS_2FD8FunctionEijj, 
                        __ZN8GPUTools2SM2GL12TextureLayerINS_24AnnotatedBaseObjectTypesEEC2ERKS4_, 
                        __ZN8GPUTools2SM2GL12TextureLayerINS_24AnnotatedBaseObjectTypesEEC2Ev, 
                        __ZN8GPUTools2SM2GL12TextureLevelINS_24AnnotatedBaseObjectTypesEE11_InitLayersEii, 
                        __ZN8GPUTools2SM2GL12TextureLevelINS_24AnnotatedBaseObjectTypesEE15processFunctionERKNS_2FD8FunctionEii, 
                        __ZN8GPUTools2SM2GL12TextureLevelINS_24AnnotatedBaseObjectTypesEE17_processAllLayersERKNS_2FD8FunctionEi, 
                        __ZN8GPUTools2SM2GL12TextureLevelINS_24AnnotatedBaseObjectTypesEE23processCopyTextureLevelERKNS_2FD8FunctionEiPS4_, 
                        __ZN8GPUTools2SM2GL13ProgramAttribINS_24AnnotatedBaseObjectTypesEE11setDefaultsEv, 
                        __ZN8GPUTools2SM2GL13ProgramAttribINS_24AnnotatedBaseObjectTypesEE15processFunctionERKNS_2FD8FunctionEi, 
                        __ZN8GPUTools2SM2GL13ProgramAttribINS_24AnnotatedBaseObjectTypesEEC2Ev, 
                        __ZN8GPUTools2SM2GL13ProgramObjectINS_24AnnotatedBaseObjectTypesEE11setDefaultsEv, 
                        __ZN8GPUTools2SM2GL13ProgramObjectINS_24AnnotatedBaseObjectTypesEE15processFunctionERKNS_2FD8FunctionEiPNS1_17ObjectTrackingMapINS1_12ShaderObjectIS3_EEiEE, 
                        __ZN8GPUTools2SM2GL13ProgramObjectINS_24AnnotatedBaseObjectTypesEE57_ApplyShaderAttachmentCountDeltaAndDeleteShaderIfRequiredEiiPNS1_17ObjectTrackingMapINS1_12ShaderObjectIS3_EEiEE, 
                        __ZN8GPUTools2SM2GL13ProgramObjectINS_24AnnotatedBaseObjectTypesEEC2ERKS4_, 
                        __ZN8GPUTools2SM2GL13ProgramObjectINS_24AnnotatedBaseObjectTypesEEC2Ev, 
                        __ZN8GPUTools2SM2GL13ProgramObjectINS_24AnnotatedBaseObjectTypesEED2Ev, 
                        __ZN8GPUTools2SM2GL13SamplerObjectINS_24AnnotatedBaseObjectTypesEE11setDefaultsEv, 
                        __ZN8GPUTools2SM2GL13SamplerObjectINS_24AnnotatedBaseObjectTypesEE15processFunctionERKNS_2FD8FunctionEi, 
                        __ZN8GPUTools2SM2GL13SamplerObjectINS_24AnnotatedBaseObjectTypesEEC2Ev, 
                        __ZN8GPUTools2SM2GL13TextureObjectINS_24AnnotatedBaseObjectTypesEE11setDefaultsEv, 
                        __ZN8GPUTools2SM2GL13TextureObjectINS_24AnnotatedBaseObjectTypesEE15processFunctionERKNS_2FD8FunctionEiiij, 
                        __ZN8GPUTools2SM2GL13TextureObjectINS_24AnnotatedBaseObjectTypesEE16_GetTextureLevelEib, 
                        __ZN8GPUTools2SM2GL13TextureObjectINS_24AnnotatedBaseObjectTypesEE19_CreateTextureLevelEiii, 
                        __ZN8GPUTools2SM2GL13TextureObjectINS_24AnnotatedBaseObjectTypesEE23_GenerateTargetMipchainEiRKNS_2FD8FunctionEii, 
                        __ZN8GPUTools2SM2GL13TextureObjectINS_24AnnotatedBaseObjectTypesEE24processCopyTextureLevelsERKNS_2FD8FunctionEiPS4_, 
                        __ZN8GPUTools2SM2GL13TextureObjectINS_24AnnotatedBaseObjectTypesEE24processCopyTextureLevelsERKNS_2FD8FunctionEiPS4_U13block_pointerFvPvSA_E, 
                        __ZN8GPUTools2SM2GL13TextureObjectINS_24AnnotatedBaseObjectTypesEEC2Ev, 
                        __ZN8GPUTools2SM2GL14ProgramUniformINS_24AnnotatedBaseObjectTypesEE11setDefaultsEv, 
                        __ZN8GPUTools2SM2GL14ProgramUniformINS_24AnnotatedBaseObjectTypesEE15processFunctionERKNS_2FD8FunctionEiiPv, 
                        __ZN8GPUTools2SM2GL14ProgramUniformINS_24AnnotatedBaseObjectTypesEE29_updateUniformDataFromRawDataEPvii, 
                        __ZN8GPUTools2SM2GL14ProgramUniformINS_24AnnotatedBaseObjectTypesEEC2Ev, 
                        __ZN8GPUTools2SM2GL17FramebufferObjectINS_24AnnotatedBaseObjectTypesEE11setDefaultsEv, 
                        __ZN8GPUTools2SM2GL17FramebufferObjectINS_24AnnotatedBaseObjectTypesEE13detachTextureEiPNS1_17ObjectTrackingMapINS1_13TextureObjectIS3_EEiEES9_, 
                        __ZN8GPUTools2SM2GL17FramebufferObjectINS_24AnnotatedBaseObjectTypesEE15processFunctionERKNS_2FD8FunctionEiPNS1_17ObjectTrackingMapINS1_13TextureObjectIS3_EEiEESD_PNS9_INS1_18RenderbufferObjectIS3_EEiEE, 
                        __ZN8GPUTools2SM2GL17FramebufferObjectINS_24AnnotatedBaseObjectTypesEE18detachRenderbufferEiPNS1_17ObjectTrackingMapINS1_18RenderbufferObjectIS3_EEiEE, 
                        __ZN8GPUTools2SM2GL17FramebufferObjectINS_24AnnotatedBaseObjectTypesEEC2Ev, 
                        __ZN8GPUTools2SM2GL17ObjectTrackingMapINS1_10SyncObjectINS_24AnnotatedBaseObjectTypesEEEiE12createObjectEi, 
                        __ZN8GPUTools2SM2GL17ObjectTrackingMapINS1_10SyncObjectINS_24AnnotatedBaseObjectTypesEEEiE16getMutableObjectEi, 
                        __ZN8GPUTools2SM2GL17ObjectTrackingMapINS1_10SyncObjectINS_24AnnotatedBaseObjectTypesEEEiE20deleteExternalObjectEi, 
                        __ZN8GPUTools2SM2GL17ObjectTrackingMapINS1_10SyncObjectINS_24AnnotatedBaseObjectTypesEEEiE21releaseObjectInternalEi, 
                        __ZN8GPUTools2SM2GL17ObjectTrackingMapINS1_10SyncObjectINS_24AnnotatedBaseObjectTypesEEEiE29getMutableObjectForInternalIDEi, 
                        __ZN8GPUTools2SM2GL17ObjectTrackingMapINS1_11QueryObjectINS_24AnnotatedBaseObjectTypesEEEiE12createObjectEi, 
                        __ZN8GPUTools2SM2GL17ObjectTrackingMapINS1_11QueryObjectINS_24AnnotatedBaseObjectTypesEEEiE16getMutableObjectEi, 
                        __ZN8GPUTools2SM2GL17ObjectTrackingMapINS1_11QueryObjectINS_24AnnotatedBaseObjectTypesEEEiE20deleteExternalObjectEi, 
                        __ZN8GPUTools2SM2GL17ObjectTrackingMapINS1_11QueryObjectINS_24AnnotatedBaseObjectTypesEEEiE21releaseObjectInternalEi, 
                        __ZN8GPUTools2SM2GL17ObjectTrackingMapINS1_11QueryObjectINS_24AnnotatedBaseObjectTypesEEEiE29getMutableObjectForInternalIDEi, 
                        __ZN8GPUTools2SM2GL17ObjectTrackingMapINS1_12BufferObjectINS_24AnnotatedBaseObjectTypesEEEiE12createObjectEi, 
                        __ZN8GPUTools2SM2GL17ObjectTrackingMapINS1_12BufferObjectINS_24AnnotatedBaseObjectTypesEEEiE16getMutableObjectEi, 
                        __ZN8GPUTools2SM2GL17ObjectTrackingMapINS1_12BufferObjectINS_24AnnotatedBaseObjectTypesEEEiE20deleteExternalObjectEi, 
                        __ZN8GPUTools2SM2GL17ObjectTrackingMapINS1_12BufferObjectINS_24AnnotatedBaseObjectTypesEEEiE21releaseObjectInternalEi, 
                        __ZN8GPUTools2SM2GL17ObjectTrackingMapINS1_12BufferObjectINS_24AnnotatedBaseObjectTypesEEEiE29getMutableObjectForInternalIDEi, 
                        __ZN8GPUTools2SM2GL17ObjectTrackingMapINS1_12DrawableInfoINS_24AnnotatedBaseObjectTypesEEEyE12createObjectEy, 
                        __ZN8GPUTools2SM2GL17ObjectTrackingMapINS1_12DrawableInfoINS_24AnnotatedBaseObjectTypesEEEyE16getMutableObjectEy, 
                        __ZN8GPUTools2SM2GL17ObjectTrackingMapINS1_12DrawableInfoINS_24AnnotatedBaseObjectTypesEEEyE29getMutableObjectForInternalIDEi, 
                        __ZN8GPUTools2SM2GL17ObjectTrackingMapINS1_12ShaderObjectINS_24AnnotatedBaseObjectTypesEEEiE12createObjectEi, 
                        __ZN8GPUTools2SM2GL17ObjectTrackingMapINS1_12ShaderObjectINS_24AnnotatedBaseObjectTypesEEEiE16getMutableObjectEi, 
                        __ZN8GPUTools2SM2GL17ObjectTrackingMapINS1_12ShaderObjectINS_24AnnotatedBaseObjectTypesEEEiE20deleteExternalObjectEi, 
                        __ZN8GPUTools2SM2GL17ObjectTrackingMapINS1_12ShaderObjectINS_24AnnotatedBaseObjectTypesEEEiE21releaseObjectInternalEi, 
                        __ZN8GPUTools2SM2GL17ObjectTrackingMapINS1_12ShaderObjectINS_24AnnotatedBaseObjectTypesEEEiE29getMutableObjectForInternalIDEi, 
                        __ZN8GPUTools2SM2GL17ObjectTrackingMapINS1_13ProgramObjectINS_24AnnotatedBaseObjectTypesEEEiE12createObjectEi, 
                        __ZN8GPUTools2SM2GL17ObjectTrackingMapINS1_13ProgramObjectINS_24AnnotatedBaseObjectTypesEEEiE16getMutableObjectEi, 
                        __ZN8GPUTools2SM2GL17ObjectTrackingMapINS1_13ProgramObjectINS_24AnnotatedBaseObjectTypesEEEiE20deleteExternalObjectEi, 
                        __ZN8GPUTools2SM2GL17ObjectTrackingMapINS1_13ProgramObjectINS_24AnnotatedBaseObjectTypesEEEiE21releaseObjectInternalEi, 
                        __ZN8GPUTools2SM2GL17ObjectTrackingMapINS1_13ProgramObjectINS_24AnnotatedBaseObjectTypesEEEiE29getMutableObjectForInternalIDEi, 
                        __ZN8GPUTools2SM2GL17ObjectTrackingMapINS1_13SamplerObjectINS_24AnnotatedBaseObjectTypesEEEiE12createObjectEi, 
                        __ZN8GPUTools2SM2GL17ObjectTrackingMapINS1_13SamplerObjectINS_24AnnotatedBaseObjectTypesEEEiE16getMutableObjectEi, 
                        __ZN8GPUTools2SM2GL17ObjectTrackingMapINS1_13SamplerObjectINS_24AnnotatedBaseObjectTypesEEEiE20deleteExternalObjectEi, 
                        __ZN8GPUTools2SM2GL17ObjectTrackingMapINS1_13SamplerObjectINS_24AnnotatedBaseObjectTypesEEEiE21releaseObjectInternalEi, 
                        __ZN8GPUTools2SM2GL17ObjectTrackingMapINS1_13SamplerObjectINS_24AnnotatedBaseObjectTypesEEEiE29getMutableObjectForInternalIDEi, 
                        __ZN8GPUTools2SM2GL17ObjectTrackingMapINS1_13TextureObjectINS_24AnnotatedBaseObjectTypesEEEiE12createObjectEi, 
                        __ZN8GPUTools2SM2GL17ObjectTrackingMapINS1_13TextureObjectINS_24AnnotatedBaseObjectTypesEEEiE16createObjectZeroEv, 
                        __ZN8GPUTools2SM2GL17ObjectTrackingMapINS1_13TextureObjectINS_24AnnotatedBaseObjectTypesEEEiE16getMutableObjectEi, 
                        __ZN8GPUTools2SM2GL17ObjectTrackingMapINS1_13TextureObjectINS_24AnnotatedBaseObjectTypesEEEiE20deleteExternalObjectEi, 
                        __ZN8GPUTools2SM2GL17ObjectTrackingMapINS1_13TextureObjectINS_24AnnotatedBaseObjectTypesEEEiE21releaseObjectInternalEi, 
                        __ZN8GPUTools2SM2GL17ObjectTrackingMapINS1_13TextureObjectINS_24AnnotatedBaseObjectTypesEEEiE29getMutableObjectForInternalIDEi, 
                        __ZN8GPUTools2SM2GL17ObjectTrackingMapINS1_17FramebufferObjectINS_24AnnotatedBaseObjectTypesEEEiE12createObjectEi, 
                        __ZN8GPUTools2SM2GL17ObjectTrackingMapINS1_17FramebufferObjectINS_24AnnotatedBaseObjectTypesEEEiE16getMutableObjectEi, 
                        __ZN8GPUTools2SM2GL17ObjectTrackingMapINS1_17FramebufferObjectINS_24AnnotatedBaseObjectTypesEEEiE20deleteExternalObjectEi, 
                        __ZN8GPUTools2SM2GL17ObjectTrackingMapINS1_17FramebufferObjectINS_24AnnotatedBaseObjectTypesEEEiE21releaseObjectInternalEi, 
                        __ZN8GPUTools2SM2GL17ObjectTrackingMapINS1_17FramebufferObjectINS_24AnnotatedBaseObjectTypesEEEiE29getMutableObjectForInternalIDEi, 
                        __ZN8GPUTools2SM2GL17ObjectTrackingMapINS1_17VertexArrayObjectINS_24AnnotatedBaseObjectTypesEEEiE12createObjectEi, 
                        __ZN8GPUTools2SM2GL17ObjectTrackingMapINS1_17VertexArrayObjectINS_24AnnotatedBaseObjectTypesEEEiE16createObjectZeroEv, 
                        __ZN8GPUTools2SM2GL17ObjectTrackingMapINS1_17VertexArrayObjectINS_24AnnotatedBaseObjectTypesEEEiE16getMutableObjectEi, 
                        __ZN8GPUTools2SM2GL17ObjectTrackingMapINS1_17VertexArrayObjectINS_24AnnotatedBaseObjectTypesEEEiE20deleteExternalObjectEi, 
                        __ZN8GPUTools2SM2GL17ObjectTrackingMapINS1_17VertexArrayObjectINS_24AnnotatedBaseObjectTypesEEEiE21releaseObjectInternalEi, 
                        __ZN8GPUTools2SM2GL17ObjectTrackingMapINS1_17VertexArrayObjectINS_24AnnotatedBaseObjectTypesEEEiE29getMutableObjectForInternalIDEi, 
                        __ZN8GPUTools2SM2GL17ObjectTrackingMapINS1_18RenderbufferObjectINS_24AnnotatedBaseObjectTypesEEEiE12createObjectEi, 
                        __ZN8GPUTools2SM2GL17ObjectTrackingMapINS1_18RenderbufferObjectINS_24AnnotatedBaseObjectTypesEEEiE16getMutableObjectEi, 
                        __ZN8GPUTools2SM2GL17ObjectTrackingMapINS1_18RenderbufferObjectINS_24AnnotatedBaseObjectTypesEEEiE20deleteExternalObjectEi, 
                        __ZN8GPUTools2SM2GL17ObjectTrackingMapINS1_18RenderbufferObjectINS_24AnnotatedBaseObjectTypesEEEiE21releaseObjectInternalEi, 
                        __ZN8GPUTools2SM2GL17ObjectTrackingMapINS1_18RenderbufferObjectINS_24AnnotatedBaseObjectTypesEEEiE29getMutableObjectForInternalIDEi, 
                        __ZN8GPUTools2SM2GL17ObjectTrackingMapINS1_21ProgramPipelineObjectINS_24AnnotatedBaseObjectTypesEEEiE12createObjectEi, 
                        __ZN8GPUTools2SM2GL17ObjectTrackingMapINS1_21ProgramPipelineObjectINS_24AnnotatedBaseObjectTypesEEEiE16getMutableObjectEi, 
                        __ZN8GPUTools2SM2GL17ObjectTrackingMapINS1_21ProgramPipelineObjectINS_24AnnotatedBaseObjectTypesEEEiE20deleteExternalObjectEi, 
                        __ZN8GPUTools2SM2GL17ObjectTrackingMapINS1_21ProgramPipelineObjectINS_24AnnotatedBaseObjectTypesEEEiE21releaseObjectInternalEi, 
                        __ZN8GPUTools2SM2GL17ObjectTrackingMapINS1_21ProgramPipelineObjectINS_24AnnotatedBaseObjectTypesEEEiE29getMutableObjectForInternalIDEi, 
                        __ZN8GPUTools2SM2GL17ObjectTrackingMapINS1_23TransformFeedbackObjectINS_24AnnotatedBaseObjectTypesEEEiE12createObjectEi, 
                        __ZN8GPUTools2SM2GL17ObjectTrackingMapINS1_23TransformFeedbackObjectINS_24AnnotatedBaseObjectTypesEEEiE16createObjectZeroEv, 
                        __ZN8GPUTools2SM2GL17ObjectTrackingMapINS1_23TransformFeedbackObjectINS_24AnnotatedBaseObjectTypesEEEiE16getMutableObjectEi, 
                        __ZN8GPUTools2SM2GL17ObjectTrackingMapINS1_23TransformFeedbackObjectINS_24AnnotatedBaseObjectTypesEEEiE20deleteExternalObjectEi, 
                        __ZN8GPUTools2SM2GL17ObjectTrackingMapINS1_23TransformFeedbackObjectINS_24AnnotatedBaseObjectTypesEEEiE21releaseObjectInternalEi, 
                        __ZN8GPUTools2SM2GL17ObjectTrackingMapINS1_23TransformFeedbackObjectINS_24AnnotatedBaseObjectTypesEEEiE29getMutableObjectForInternalIDEi, 
                        __ZN8GPUTools2SM2GL17VertexArrayObjectINS_24AnnotatedBaseObjectTypesEE11setDefaultsEv, 
                        __ZN8GPUTools2SM2GL17VertexArrayObjectINS_24AnnotatedBaseObjectTypesEE15processFunctionERKNS_2FD8FunctionEiiiPNS1_17ObjectTrackingMapINS1_12BufferObjectIS3_EEiEE, 
                        __ZN8GPUTools2SM2GL17VertexArrayObjectINS_24AnnotatedBaseObjectTypesEEC2ERKS4_, 
                        __ZN8GPUTools2SM2GL17VertexArrayObjectINS_24AnnotatedBaseObjectTypesEEC2Ev, 
                        __ZN8GPUTools2SM2GL17VertexArrayObjectINS_24AnnotatedBaseObjectTypesEED2Ev, 
                        __ZN8GPUTools2SM2GL18ContextStateMirrorINS_24AnnotatedBaseObjectTypesEE11setDefaultsEv, 
                        __ZN8GPUTools2SM2GL18ContextStateMirrorINS_24AnnotatedBaseObjectTypesEE15processFunctionERKNS_2FD8FunctionEi, 
                        __ZN8GPUTools2SM2GL18ContextStateMirrorINS_24AnnotatedBaseObjectTypesEE20_ProcessFunctionDrawEPNS1_23TransformFeedbackObjectIS3_EERKNS_2FD8FunctionEi, 
                        __ZN8GPUTools2SM2GL18ContextStateMirrorINS_24AnnotatedBaseObjectTypesEE22getMutableTextureLevelEii, 
                        __ZN8GPUTools2SM2GL18ContextStateMirrorINS_24AnnotatedBaseObjectTypesEE27_CreateDefaultTextureObjectERKNS_2FD8FunctionEi, 
                        __ZN8GPUTools2SM2GL18ContextStateMirrorINS_24AnnotatedBaseObjectTypesEE27getMutableBoundBufferObjectEi, 
                        __ZN8GPUTools2SM2GL18ContextStateMirrorINS_24AnnotatedBaseObjectTypesEE27processFunctionInternalDataERKNS_2FD8FunctionEi, 
                        __ZN8GPUTools2SM2GL18ContextStateMirrorINS_24AnnotatedBaseObjectTypesEE28_ProcessFunctionDrawExtendedEPKNS1_21FramebufferAttachmentIS3_EERKNS_2FD8FunctionEi, 
                        __ZN8GPUTools2SM2GL18ContextStateMirrorINS_24AnnotatedBaseObjectTypesEE28_ProcessFunctionDrawExtendedERKNS_2FD8FunctionEiji, 
                        __ZN8GPUTools2SM2GL18ContextStateMirrorINS_24AnnotatedBaseObjectTypesEE28getMutableBoundTextureObjectEi, 
                        __ZN8GPUTools2SM2GL18ContextStateMirrorINS_24AnnotatedBaseObjectTypesEE32getMutableBoundFramebufferObjectEi, 
                        __ZN8GPUTools2SM2GL18ContextStateMirrorINS_24AnnotatedBaseObjectTypesEE36getMutableBoundFramebufferAttachmentEii, 
                        __ZN8GPUTools2SM2GL18ContextStateMirrorINS_24AnnotatedBaseObjectTypesEE59_ApplyProgramAttachmentCountDeltaAndDeleteProgramIfRequiredEii, 
                        __ZN8GPUTools2SM2GL18ContextStateMirrorINS_24AnnotatedBaseObjectTypesEEC2Ev, 
                        __ZN8GPUTools2SM2GL18ContextStateMirrorINS_24AnnotatedBaseObjectTypesEED2Ev, 
                        __ZN8GPUTools2SM2GL18RenderbufferObjectINS_24AnnotatedBaseObjectTypesEE11setDefaultsEv, 
                        __ZN8GPUTools2SM2GL18RenderbufferObjectINS_24AnnotatedBaseObjectTypesEE15processFunctionERKNS_2FD8FunctionEiPKNS1_12DrawableInfoIS3_EE, 
                        __ZN8GPUTools2SM2GL18RenderbufferObjectINS_24AnnotatedBaseObjectTypesEEC2Ev, 
                        __ZN8GPUTools2SM2GL18StateMirrorManagerINS_24AnnotatedBaseObjectTypesEE15ProcessFunctionERKNS_2FD8FunctionEi, 
                        __ZN8GPUTools2SM2GL18StateMirrorManagerINS_24AnnotatedBaseObjectTypesEE24CreateContextStateMirrorEy, 
                        __ZN8GPUTools2SM2GL18StateMirrorManagerINS_24AnnotatedBaseObjectTypesEE24GetSharegroupStateMirrorEy, 
                        __ZN8GPUTools2SM2GL18StateMirrorManagerINS_24AnnotatedBaseObjectTypesEE5ClearEv, 
                        __ZN8GPUTools2SM2GL18StateMirrorManagerINS_24AnnotatedBaseObjectTypesEEC2Ev, 
                        __ZN8GPUTools2SM2GL18StateMirrorManagerINS_24AnnotatedBaseObjectTypesEED2Ev, 
                        __ZN8GPUTools2SM2GL19ProgramUniformBlockINS_24AnnotatedBaseObjectTypesEE11setDefaultsEv, 
                        __ZN8GPUTools2SM2GL19ProgramUniformBlockINS_24AnnotatedBaseObjectTypesEE15processFunctionERKNS_2FD8FunctionEi, 
                        __ZN8GPUTools2SM2GL19ProgramUniformBlockINS_24AnnotatedBaseObjectTypesEEC2Ev, 
                        __ZN8GPUTools2SM2GL21FramebufferAttachmentINS_24AnnotatedBaseObjectTypesEE15processFunctionERKNS_2FD8FunctionEiPNS1_17ObjectTrackingMapINS1_13TextureObjectIS3_EEiEESD_PNS9_INS1_18RenderbufferObjectIS3_EEiEE, 
                        __ZN8GPUTools2SM2GL21FramebufferAttachmentINS_24AnnotatedBaseObjectTypesEE38getMutableFramebufferAttachmentTextureEPNS1_18ContextStateMirrorIS3_EE, 
                        __ZN8GPUTools2SM2GL21FramebufferAttachmentINS_24AnnotatedBaseObjectTypesEE43getMutableFramebufferAttachmentRenderbufferEPNS1_18ContextStateMirrorIS3_EE, 
                        __ZN8GPUTools2SM2GL21FramebufferAttachmentINS_24AnnotatedBaseObjectTypesEEC2Ev, 
                        __ZN8GPUTools2SM2GL21ProgramPipelineObjectINS_24AnnotatedBaseObjectTypesEE11setDefaultsEv, 
                        __ZN8GPUTools2SM2GL21ProgramPipelineObjectINS_24AnnotatedBaseObjectTypesEE15processFunctionERKNS_2FD8FunctionEiPNS1_17ObjectTrackingMapINS1_13ProgramObjectIS3_EEiEE, 
                        __ZN8GPUTools2SM2GL21ProgramPipelineObjectINS_24AnnotatedBaseObjectTypesEE59_ApplyProgramAttachmentCountDeltaAndDeleteProgramIfRequiredEiiPNS1_17ObjectTrackingMapINS1_13ProgramObjectIS3_EEiEE, 
                        __ZN8GPUTools2SM2GL21ProgramPipelineObjectINS_24AnnotatedBaseObjectTypesEEC2Ev, 
                        __ZN8GPUTools2SM2GL21SharegroupStateMirrorINS_24AnnotatedBaseObjectTypesEE22getMutableTextureLevelEii, 
                        __ZN8GPUTools2SM2GL21SharegroupStateMirrorINS_24AnnotatedBaseObjectTypesEEC2Ey, 
                        __ZN8GPUTools2SM2GL21SharegroupStateMirrorINS_24AnnotatedBaseObjectTypesEED2Ev, 
                        __ZN8GPUTools2SM2GL21__DYGetStateMemberValINSt3__114is_fundamentalINS3_12basic_stringIcNS3_11char_traitsIcEENS3_9allocatorIcEEEEEEEEvPSA_RKNS1_12BindingPointET_NS3_17integral_constantIbLb0EEE, 
                        __ZN8GPUTools2SM2GL21__DYGetStateMemberValINSt3__114is_fundamentalINS3_12basic_stringIcNS3_11char_traitsIcEENS3_9allocatorIcEEEEEEEEvPSA_RKNS1_9StateBoolET_NS3_17integral_constantIbLb0EEE, 
                        __ZN8GPUTools2SM2GL21__DYGetStateMemberValINSt3__114is_fundamentalINS3_12basic_stringIcNS3_11char_traitsIcEENS3_9allocatorIcEEEEEEEEvPSA_RKNS1_9StateEnumET_NS3_17integral_constantIbLb0EEE, 
                        __ZN8GPUTools2SM2GL23TransformFeedbackObjectINS_24AnnotatedBaseObjectTypesEE11setDefaultsEv, 
                        __ZN8GPUTools2SM2GL23TransformFeedbackObjectINS_24AnnotatedBaseObjectTypesEE15processFunctionERKNS_2FD8FunctionEiPNS1_17ObjectTrackingMapINS1_12BufferObjectIS3_EEiEE, 
                        __ZN8GPUTools2SM2GL23TransformFeedbackObjectINS_24AnnotatedBaseObjectTypesEEC2Ev, 
                        __ZN8GPUTools2SM2GL31ProgramTransformFeedbackVaryingINS_24AnnotatedBaseObjectTypesEE11setDefaultsEv, 
                        __ZN8GPUTools2SM2GL31ProgramTransformFeedbackVaryingINS_24AnnotatedBaseObjectTypesEE15processFunctionERKNS_2FD8FunctionEi, 
                        __ZN8GPUTools2SM2GL31ProgramTransformFeedbackVaryingINS_24AnnotatedBaseObjectTypesEEC2Ev, 
                        __ZN8GPUTools2SMlsIiLj4EEERNSt3__113basic_ostreamIcNS2_11char_traitsIcEEEES7_RKNS0_4VecNIT_XT0_EEE, 
                        __ZN8GPUTools6DYSpanINS_10DYSpanListINS1_IjEEEEEC1ExxRKS3_, 
                        __ZN8GPUTools6DYSpanINS_10DYSpanListIjEEEC1ExxRKS2_, 
                        __ZNK8GPUTools10DYSpanListINS0_INS0_IjEEEEE8coverageEy, 
                        __ZNK8GPUTools10DYSpanListINS0_IjEEE8coverageEy, 
                        __ZNK8GPUTools10DYSpanListINS0_IjEEEeqERKS2_, __ZNK8GPUTools10DYSpanListIjE7isEmptyEv, 
                        __ZNK8GPUTools10DYSpanListIjE8coverageEy, __ZNK8GPUTools10DYSpanListIjEeqERKS1_, 
                        __ZNK8GPUTools20CObjectBaseAnnotated18getBaseParameterTvINSt3__112basic_stringIcNS2_11char_traitsIcEENS2_9allocatorIcEEEEEEbiPT_, 
                        __ZNK8GPUTools20CObjectBaseAnnotated18getBaseParameterTvIbEEbiPT_, 
                        __ZNK8GPUTools20CObjectBaseAnnotated18getBaseParameterTvIiEEbiPT_, 
                        __ZNK8GPUTools20CObjectBaseAnnotated18getBaseParameterTvIjEEbiPT_, 
                        __ZNK8GPUTools26CProgramTokenBaseAnnotated18getBaseParameterTvINSt3__112basic_stringIcNS2_11char_traitsIcEENS2_9allocatorIcEEEEEEbiPT_, 
                        __ZNK8GPUTools2FD8Argument17ViewAsScalarArrayIdEET_y, 
                        __ZNK8GPUTools2FD8Argument17ViewAsScalarArrayIfEET_y, 
                        __ZNK8GPUTools2FD8Argument17ViewAsScalarArrayIiEET_y, 
                        __ZNK8GPUTools2FD8Argument17ViewAsScalarArrayIjEET_y, 
                        __ZNK8GPUTools2FD8Argument17ViewAsScalarArrayIxEET_y, 
                        __ZNK8GPUTools2FD8Argument17ViewAsScalarArrayIyEET_y, 
                        __ZNK8GPUTools2SM2GL10SyncObjectINS_24AnnotatedBaseObjectTypesEE14getParameterTvINSt3__112basic_stringIcNS6_11char_traitsIcEENS6_9allocatorIcEEEEEEbiPT_, 
                        __ZNK8GPUTools2SM2GL10SyncObjectINS_24AnnotatedBaseObjectTypesEE14getParameterTvIbEEbiPT_, 
                        __ZNK8GPUTools2SM2GL10SyncObjectINS_24AnnotatedBaseObjectTypesEE14getParameterTvIiEEbiPT_, 
                        __ZNK8GPUTools2SM2GL11QueryObjectINS_24AnnotatedBaseObjectTypesEE14getParameterTvINSt3__112basic_stringIcNS6_11char_traitsIcEENS6_9allocatorIcEEEEEEbiPT_, 
                        __ZNK8GPUTools2SM2GL11QueryObjectINS_24AnnotatedBaseObjectTypesEE14getParameterTvIbEEbiPT_, 
                        __ZNK8GPUTools2SM2GL11QueryObjectINS_24AnnotatedBaseObjectTypesEE14getParameterTvIiEEbiPT_, 
                        __ZNK8GPUTools2SM2GL12BufferObjectINS_24AnnotatedBaseObjectTypesEE14getParameterTvINSt3__112basic_stringIcNS6_11char_traitsIcEENS6_9allocatorIcEEEEEEbiPT_, 
                        __ZNK8GPUTools2SM2GL12BufferObjectINS_24AnnotatedBaseObjectTypesEE14getParameterTvIbEEbiPT_, 
                        __ZNK8GPUTools2SM2GL12BufferObjectINS_24AnnotatedBaseObjectTypesEE14getParameterTvIiEEbiPT_, 
                        __ZNK8GPUTools2SM2GL12ShaderObjectINS_24AnnotatedBaseObjectTypesEE14getParameterTvINSt3__112basic_stringIcNS6_11char_traitsIcEENS6_9allocatorIcEEEEEEbiPT_, 
                        __ZNK8GPUTools2SM2GL12ShaderObjectINS_24AnnotatedBaseObjectTypesEE14getParameterTvIbEEbiPT_, 
                        __ZNK8GPUTools2SM2GL12ShaderObjectINS_24AnnotatedBaseObjectTypesEE14getParameterTvIiEEbiPT_, 
                        __ZNK8GPUTools2SM2GL12ShaderObjectINS_24AnnotatedBaseObjectTypesEE14getParameterTvIjEEbiPT_, 
                        __ZNK8GPUTools2SM2GL13ProgramObjectINS_24AnnotatedBaseObjectTypesEE14getParameterTvINSt3__112basic_stringIcNS6_11char_traitsIcEENS6_9allocatorIcEEEEEEbiPT_, 
                        __ZNK8GPUTools2SM2GL13ProgramObjectINS_24AnnotatedBaseObjectTypesEE14getParameterTvIbEEbiPT_, 
                        __ZNK8GPUTools2SM2GL13ProgramObjectINS_24AnnotatedBaseObjectTypesEE14getParameterTvIiEEbiPT_, 
                        __ZNK8GPUTools2SM2GL13ProgramObjectINS_24AnnotatedBaseObjectTypesEE14getParameterTvIjEEbiPT_, 
                        __ZNK8GPUTools2SM2GL13ProgramObjectINS_24AnnotatedBaseObjectTypesEE32getProgramActiveUniformLocationsERNSt3__16vectorIiNS5_9allocatorIiEEEE, 
                        __ZNK8GPUTools2SM2GL13SamplerObjectINS_24AnnotatedBaseObjectTypesEE14getParameterTvINSt3__112basic_stringIcNS6_11char_traitsIcEENS6_9allocatorIcEEEEEEbiPT_, 
                        __ZNK8GPUTools2SM2GL13SamplerObjectINS_24AnnotatedBaseObjectTypesEE14getParameterTvIbEEbiPT_, 
                        __ZNK8GPUTools2SM2GL13SamplerObjectINS_24AnnotatedBaseObjectTypesEE14getParameterTvIiEEbiPT_, 
                        __ZNK8GPUTools2SM2GL13TextureObjectINS_24AnnotatedBaseObjectTypesEE14getParameterTvINSt3__112basic_stringIcNS6_11char_traitsIcEENS6_9allocatorIcEEEEEEbiPT_, 
                        __ZNK8GPUTools2SM2GL13TextureObjectINS_24AnnotatedBaseObjectTypesEE14getParameterTvIbEEbiPT_, 
                        __ZNK8GPUTools2SM2GL13TextureObjectINS_24AnnotatedBaseObjectTypesEE14getParameterTvIiEEbiPT_, 
                        __ZNK8GPUTools2SM2GL14ProgramUniformINS_24AnnotatedBaseObjectTypesEE14getParameterTvINSt3__112basic_stringIcNS6_11char_traitsIcEENS6_9allocatorIcEEEEEEbiPT_, 
                        __ZNK8GPUTools2SM2GL17FramebufferObjectINS_24AnnotatedBaseObjectTypesEE14getParameterTvINSt3__112basic_stringIcNS6_11char_traitsIcEENS6_9allocatorIcEEEEEEbiPT_, 
                        __ZNK8GPUTools2SM2GL17FramebufferObjectINS_24AnnotatedBaseObjectTypesEE14getParameterTvIbEEbiPT_, 
                        __ZNK8GPUTools2SM2GL17FramebufferObjectINS_24AnnotatedBaseObjectTypesEE14getParameterTvIiEEbiPT_, 
                        __ZNK8GPUTools2SM2GL17FramebufferObjectINS_24AnnotatedBaseObjectTypesEE14getParameterTvIjEEbiPT_, 
                        __ZNK8GPUTools2SM2GL17FramebufferObjectINS_24AnnotatedBaseObjectTypesEE20enumerateAttachmentsEbbU13block_pointerFvPKNS1_21FramebufferAttachmentIS3_EEiPbE, 
                        __ZNK8GPUTools2SM2GL17ObjectTrackingMapINS1_10SyncObjectINS_24AnnotatedBaseObjectTypesEEEiE9getIDListERNSt3__16vectorINS7_4pairIiiEENS7_9allocatorISA_EEEE, 
                        __ZNK8GPUTools2SM2GL17ObjectTrackingMapINS1_10SyncObjectINS_24AnnotatedBaseObjectTypesEEEiE9getObjectEi, 
                        __ZNK8GPUTools2SM2GL17ObjectTrackingMapINS1_11QueryObjectINS_24AnnotatedBaseObjectTypesEEEiE9getIDListERNSt3__16vectorINS7_4pairIiiEENS7_9allocatorISA_EEEE, 
                        __ZNK8GPUTools2SM2GL17ObjectTrackingMapINS1_11QueryObjectINS_24AnnotatedBaseObjectTypesEEEiE9getObjectEi, 
                        __ZNK8GPUTools2SM2GL17ObjectTrackingMapINS1_12BufferObjectINS_24AnnotatedBaseObjectTypesEEEiE9getIDListERNSt3__16vectorINS7_4pairIiiEENS7_9allocatorISA_EEEE, 
                        __ZNK8GPUTools2SM2GL17ObjectTrackingMapINS1_12BufferObjectINS_24AnnotatedBaseObjectTypesEEEiE9getObjectEi, 
                        __ZNK8GPUTools2SM2GL17ObjectTrackingMapINS1_12DrawableInfoINS_24AnnotatedBaseObjectTypesEEEyE9getObjectEy, 
                        __ZNK8GPUTools2SM2GL17ObjectTrackingMapINS1_12ShaderObjectINS_24AnnotatedBaseObjectTypesEEEiE9getIDListERNSt3__16vectorINS7_4pairIiiEENS7_9allocatorISA_EEEE, 
                        __ZNK8GPUTools2SM2GL17ObjectTrackingMapINS1_12ShaderObjectINS_24AnnotatedBaseObjectTypesEEEiE9getObjectEi, 
                        __ZNK8GPUTools2SM2GL17ObjectTrackingMapINS1_13ProgramObjectINS_24AnnotatedBaseObjectTypesEEEiE9getIDListERNSt3__16vectorINS7_4pairIiiEENS7_9allocatorISA_EEEE, 
                        __ZNK8GPUTools2SM2GL17ObjectTrackingMapINS1_13ProgramObjectINS_24AnnotatedBaseObjectTypesEEEiE9getObjectEi, 
                        __ZNK8GPUTools2SM2GL17ObjectTrackingMapINS1_13SamplerObjectINS_24AnnotatedBaseObjectTypesEEEiE9getIDListERNSt3__16vectorINS7_4pairIiiEENS7_9allocatorISA_EEEE, 
                        __ZNK8GPUTools2SM2GL17ObjectTrackingMapINS1_13SamplerObjectINS_24AnnotatedBaseObjectTypesEEEiE9getObjectEi, 
                        __ZNK8GPUTools2SM2GL17ObjectTrackingMapINS1_13TextureObjectINS_24AnnotatedBaseObjectTypesEEEiE9getIDListERNSt3__16vectorINS7_4pairIiiEENS7_9allocatorISA_EEEE, 
                        __ZNK8GPUTools2SM2GL17ObjectTrackingMapINS1_13TextureObjectINS_24AnnotatedBaseObjectTypesEEEiE9getObjectEi, 
                        __ZNK8GPUTools2SM2GL17ObjectTrackingMapINS1_17FramebufferObjectINS_24AnnotatedBaseObjectTypesEEEiE9getIDListERNSt3__16vectorINS7_4pairIiiEENS7_9allocatorISA_EEEE, 
                        __ZNK8GPUTools2SM2GL17ObjectTrackingMapINS1_17FramebufferObjectINS_24AnnotatedBaseObjectTypesEEEiE9getObjectEi, 
                        __ZNK8GPUTools2SM2GL17ObjectTrackingMapINS1_17VertexArrayObjectINS_24AnnotatedBaseObjectTypesEEEiE9getIDListERNSt3__16vectorINS7_4pairIiiEENS7_9allocatorISA_EEEE, 
                        __ZNK8GPUTools2SM2GL17ObjectTrackingMapINS1_17VertexArrayObjectINS_24AnnotatedBaseObjectTypesEEEiE9getObjectEi, 
                        __ZNK8GPUTools2SM2GL17ObjectTrackingMapINS1_18RenderbufferObjectINS_24AnnotatedBaseObjectTypesEEEiE9getIDListERNSt3__16vectorINS7_4pairIiiEENS7_9allocatorISA_EEEE, 
                        __ZNK8GPUTools2SM2GL17ObjectTrackingMapINS1_18RenderbufferObjectINS_24AnnotatedBaseObjectTypesEEEiE9getObjectEi, 
                        __ZNK8GPUTools2SM2GL17ObjectTrackingMapINS1_21ProgramPipelineObjectINS_24AnnotatedBaseObjectTypesEEEiE9getIDListERNSt3__16vectorINS7_4pairIiiEENS7_9allocatorISA_EEEE, 
                        __ZNK8GPUTools2SM2GL17ObjectTrackingMapINS1_21ProgramPipelineObjectINS_24AnnotatedBaseObjectTypesEEEiE9getObjectEi, 
                        __ZNK8GPUTools2SM2GL17ObjectTrackingMapINS1_23TransformFeedbackObjectINS_24AnnotatedBaseObjectTypesEEEiE9getIDListERNSt3__16vectorINS7_4pairIiiEENS7_9allocatorISA_EEEE, 
                        __ZNK8GPUTools2SM2GL17ObjectTrackingMapINS1_23TransformFeedbackObjectINS_24AnnotatedBaseObjectTypesEEEiE9getObjectEi, 
                        __ZNK8GPUTools2SM2GL17VertexArrayObjectINS_24AnnotatedBaseObjectTypesEE14getParameterTvINSt3__112basic_stringIcNS6_11char_traitsIcEENS6_9allocatorIcEEEEEEbiiPT_, 
                        __ZNK8GPUTools2SM2GL17VertexArrayObjectINS_24AnnotatedBaseObjectTypesEE14getParameterTvIbEEbiiPT_, 
                        __ZNK8GPUTools2SM2GL17VertexArrayObjectINS_24AnnotatedBaseObjectTypesEE14getParameterTvIiEEbiiPT_, 
                        __ZNK8GPUTools2SM2GL17VertexArrayObjectINS_24AnnotatedBaseObjectTypesEE14getParameterTvIjEEbiiPT_, 
                        __ZNK8GPUTools2SM2GL18ContextStateMirrorINS_24AnnotatedBaseObjectTypesEE15_GetSamplerInfoINS1_13ProgramObjectIS3_EEEEvRNSt3__16vectorINS1_11SamplerInfoENS8_9allocatorISA_EEEEPKT_jijU13block_pointerFijE, 
                        __ZNK8GPUTools2SM2GL18ContextStateMirrorINS_24AnnotatedBaseObjectTypesEE15getAllObjectIDsEiRNSt3__16vectorINS5_4pairIiiEENS5_9allocatorIS8_EEEE, 
                        __ZNK8GPUTools2SM2GL18ContextStateMirrorINS_24AnnotatedBaseObjectTypesEE15getTextureLevelEii, 
                        __ZNK8GPUTools2SM2GL18ContextStateMirrorINS_24AnnotatedBaseObjectTypesEE15getVariableNameEPKc, 
                        __ZNK8GPUTools2SM2GL18ContextStateMirrorINS_24AnnotatedBaseObjectTypesEE17getTexParameterTvINSt3__112basic_stringIcNS6_11char_traitsIcEENS6_9allocatorIcEEEEEEbiiPT_, 
                        __ZNK8GPUTools2SM2GL18ContextStateMirrorINS_24AnnotatedBaseObjectTypesEE17getTexParameterTvIbEEbiiPT_, 
                        __ZNK8GPUTools2SM2GL18ContextStateMirrorINS_24AnnotatedBaseObjectTypesEE17getTexParameterTvIiEEbiiPT_, 
                        __ZNK8GPUTools2SM2GL18ContextStateMirrorINS_24AnnotatedBaseObjectTypesEE17getVAOParameterTvIbEEbiiiPT_, 
                        __ZNK8GPUTools2SM2GL18ContextStateMirrorINS_24AnnotatedBaseObjectTypesEE17getVAOParameterTvIiEEbiiiPT_, 
                        __ZNK8GPUTools2SM2GL18ContextStateMirrorINS_24AnnotatedBaseObjectTypesEE17getVAOParameterTvIjEEbiiiPT_, 
                        __ZNK8GPUTools2SM2GL18ContextStateMirrorINS_24AnnotatedBaseObjectTypesEE19GetBoundBuffersReadERNSt3__16vectorIjNS5_9allocatorIjEEEE, 
                        __ZNK8GPUTools2SM2GL18ContextStateMirrorINS_24AnnotatedBaseObjectTypesEE20GetObjectParameterTvINSt3__112basic_stringIcNS6_11char_traitsIcEENS6_9allocatorIcEEEEEEbiiiPT_, 
                        __ZNK8GPUTools2SM2GL18ContextStateMirrorINS_24AnnotatedBaseObjectTypesEE20GetObjectParameterTvIbEEbiiiPT_, 
                        __ZNK8GPUTools2SM2GL18ContextStateMirrorINS_24AnnotatedBaseObjectTypesEE20GetObjectParameterTvIiEEbiiiPT_, 
                        __ZNK8GPUTools2SM2GL18ContextStateMirrorINS_24AnnotatedBaseObjectTypesEE20_GetCurrentProgramIDEi, 
                        __ZNK8GPUTools2SM2GL18ContextStateMirrorINS_24AnnotatedBaseObjectTypesEE20getBufferParameterTvINSt3__112basic_stringIcNS6_11char_traitsIcEENS6_9allocatorIcEEEEEEbiiPT_, 
                        __ZNK8GPUTools2SM2GL18ContextStateMirrorINS_24AnnotatedBaseObjectTypesEE20getBufferParameterTvIbEEbiiPT_, 
                        __ZNK8GPUTools2SM2GL18ContextStateMirrorINS_24AnnotatedBaseObjectTypesEE20getBufferParameterTvIiEEbiiPT_, 
                        __ZNK8GPUTools2SM2GL18ContextStateMirrorINS_24AnnotatedBaseObjectTypesEE20getShaderParameterTvINSt3__112basic_stringIcNS6_11char_traitsIcEENS6_9allocatorIcEEEEEEbiiPT_, 
                        __ZNK8GPUTools2SM2GL18ContextStateMirrorINS_24AnnotatedBaseObjectTypesEE20getShaderParameterTvIbEEbiiPT_, 
                        __ZNK8GPUTools2SM2GL18ContextStateMirrorINS_24AnnotatedBaseObjectTypesEE20getShaderParameterTvIiEEbiiPT_, 
                        __ZNK8GPUTools2SM2GL18ContextStateMirrorINS_24AnnotatedBaseObjectTypesEE20getShaderParameterTvIjEEbiiPT_, 
                        __ZNK8GPUTools2SM2GL18ContextStateMirrorINS_24AnnotatedBaseObjectTypesEE21getProgramParameterTvINSt3__112basic_stringIcNS6_11char_traitsIcEENS6_9allocatorIcEEEEEEbiiPT_, 
                        __ZNK8GPUTools2SM2GL18ContextStateMirrorINS_24AnnotatedBaseObjectTypesEE21getProgramParameterTvIbEEbiiPT_, 
                        __ZNK8GPUTools2SM2GL18ContextStateMirrorINS_24AnnotatedBaseObjectTypesEE21getProgramParameterTvIiEEbiiPT_, 
                        __ZNK8GPUTools2SM2GL18ContextStateMirrorINS_24AnnotatedBaseObjectTypesEE21getProgramParameterTvIjEEbiiPT_, 
                        __ZNK8GPUTools2SM2GL18ContextStateMirrorINS_24AnnotatedBaseObjectTypesEE21getSamplerParameterTvINSt3__112basic_stringIcNS6_11char_traitsIcEENS6_9allocatorIcEEEEEEbiiPT_, 
                        __ZNK8GPUTools2SM2GL18ContextStateMirrorINS_24AnnotatedBaseObjectTypesEE21getSamplerParameterTvIbEEbiiPT_, 
                        __ZNK8GPUTools2SM2GL18ContextStateMirrorINS_24AnnotatedBaseObjectTypesEE21getSamplerParameterTvIiEEbiiPT_, 
                        __ZNK8GPUTools2SM2GL18ContextStateMirrorINS_24AnnotatedBaseObjectTypesEE22GetUniformBuffersInUseERNSt3__113unordered_setIjNS5_4hashIjEENS5_8equal_toIjEENS5_9allocatorIjEEEE, 
                        __ZNK8GPUTools2SM2GL18ContextStateMirrorINS_24AnnotatedBaseObjectTypesEE24getSyncObjectParameterTvINSt3__112basic_stringIcNS6_11char_traitsIcEENS6_9allocatorIcEEEEEEbiiPT_, 
                        __ZNK8GPUTools2SM2GL18ContextStateMirrorINS_24AnnotatedBaseObjectTypesEE24getSyncObjectParameterTvIbEEbiiPT_, 
                        __ZNK8GPUTools2SM2GL18ContextStateMirrorINS_24AnnotatedBaseObjectTypesEE24getSyncObjectParameterTvIiEEbiiPT_, 
                        __ZNK8GPUTools2SM2GL18ContextStateMirrorINS_24AnnotatedBaseObjectTypesEE25GetSamplersInUseForTargetEjjRNSt3__16vectorINS1_11SamplerInfoENS5_9allocatorIS7_EEEE, 
                        __ZNK8GPUTools2SM2GL18ContextStateMirrorINS_24AnnotatedBaseObjectTypesEE25getBoundFramebufferObjectEi, 
                        __ZNK8GPUTools2SM2GL18ContextStateMirrorINS_24AnnotatedBaseObjectTypesEE25getBoundVertexArrayObjectEv, 
                        __ZNK8GPUTools2SM2GL18ContextStateMirrorINS_24AnnotatedBaseObjectTypesEE25getQueryObjectParameterTvINSt3__112basic_stringIcNS6_11char_traitsIcEENS6_9allocatorIcEEEEEEbiiPT_, 
                        __ZNK8GPUTools2SM2GL18ContextStateMirrorINS_24AnnotatedBaseObjectTypesEE25getQueryObjectParameterTvIbEEbiiPT_, 
                        __ZNK8GPUTools2SM2GL18ContextStateMirrorINS_24AnnotatedBaseObjectTypesEE25getQueryObjectParameterTvIiEEbiiPT_, 
                        __ZNK8GPUTools2SM2GL18ContextStateMirrorINS_24AnnotatedBaseObjectTypesEE26getRenderbufferParameterTvINSt3__112basic_stringIcNS6_11char_traitsIcEENS6_9allocatorIcEEEEEEbiiPT_, 
                        __ZNK8GPUTools2SM2GL18ContextStateMirrorINS_24AnnotatedBaseObjectTypesEE26getRenderbufferParameterTvIbEEbiiPT_, 
                        __ZNK8GPUTools2SM2GL18ContextStateMirrorINS_24AnnotatedBaseObjectTypesEE26getRenderbufferParameterTvIiEEbiiPT_, 
                        __ZNK8GPUTools2SM2GL18ContextStateMirrorINS_24AnnotatedBaseObjectTypesEE28getProgramUniformParameterTvINSt3__112basic_stringIcNS6_11char_traitsIcEENS6_9allocatorIcEEEEEEbiiiPT_, 
                        __ZNK8GPUTools2SM2GL18ContextStateMirrorINS_24AnnotatedBaseObjectTypesEE29getProgramPipelineParameterTvINSt3__112basic_stringIcNS6_11char_traitsIcEENS6_9allocatorIcEEEEEEbiiPT_, 
                        __ZNK8GPUTools2SM2GL18ContextStateMirrorINS_24AnnotatedBaseObjectTypesEE29getProgramPipelineParameterTvIbEEbiiPT_, 
                        __ZNK8GPUTools2SM2GL18ContextStateMirrorINS_24AnnotatedBaseObjectTypesEE29getProgramPipelineParameterTvIiEEbiiPT_, 
                        __ZNK8GPUTools2SM2GL18ContextStateMirrorINS_24AnnotatedBaseObjectTypesEE31getTransformFeedbackParameterTvINSt3__112basic_stringIcNS6_11char_traitsIcEENS6_9allocatorIcEEEEEEbiiiPT_, 
                        __ZNK8GPUTools2SM2GL18ContextStateMirrorINS_24AnnotatedBaseObjectTypesEE31getTransformFeedbackParameterTvIbEEbiiiPT_, 
                        __ZNK8GPUTools2SM2GL18ContextStateMirrorINS_24AnnotatedBaseObjectTypesEE31getTransformFeedbackParameterTvIiEEbiiiPT_, 
                        __ZNK8GPUTools2SM2GL18ContextStateMirrorINS_24AnnotatedBaseObjectTypesEE5getTvIbEEbiiiiiPT_, 
                        __ZNK8GPUTools2SM2GL18ContextStateMirrorINS_24AnnotatedBaseObjectTypesEE5getTvIiEEbiiiiiPT_, 
                        __ZNK8GPUTools2SM2GL18ContextStateMirrorINS_24AnnotatedBaseObjectTypesEE5getTvIjEEbiiiiiPT_, 
                        __ZNK8GPUTools2SM2GL18RenderbufferObjectINS_24AnnotatedBaseObjectTypesEE14getParameterTvINSt3__112basic_stringIcNS6_11char_traitsIcEENS6_9allocatorIcEEEEEEbiPT_, 
                        __ZNK8GPUTools2SM2GL18RenderbufferObjectINS_24AnnotatedBaseObjectTypesEE14getParameterTvIbEEbiPT_, 
                        __ZNK8GPUTools2SM2GL18RenderbufferObjectINS_24AnnotatedBaseObjectTypesEE14getParameterTvIiEEbiPT_, 
                        __ZNK8GPUTools2SM2GL21FramebufferAttachmentINS_24AnnotatedBaseObjectTypesEE36getFramebufferAttachmentRenderbufferEPNS1_18ContextStateMirrorIS3_EE, 
                        __ZNK8GPUTools2SM2GL21ProgramPipelineObjectINS_24AnnotatedBaseObjectTypesEE14getParameterTvINSt3__112basic_stringIcNS6_11char_traitsIcEENS6_9allocatorIcEEEEEEbiPT_, 
                        __ZNK8GPUTools2SM2GL21ProgramPipelineObjectINS_24AnnotatedBaseObjectTypesEE14getParameterTvIbEEbiPT_, 
                        __ZNK8GPUTools2SM2GL21ProgramPipelineObjectINS_24AnnotatedBaseObjectTypesEE14getParameterTvIiEEbiPT_, 
                        __ZNK8GPUTools2SM2GL21SharegroupStateMirrorINS_24AnnotatedBaseObjectTypesEE15getTextureLevelEii, 
                        __ZNK8GPUTools2SM2GL21SharegroupStateMirrorINS_24AnnotatedBaseObjectTypesEE17getProgramUniformEii, 
                        __ZNK8GPUTools2SM2GL23TransformFeedbackObjectINS_24AnnotatedBaseObjectTypesEE14getParameterTvINSt3__112basic_stringIcNS6_11char_traitsIcEENS6_9allocatorIcEEEEEEbiiPT_, 
                        __ZNK8GPUTools2SM2GL23TransformFeedbackObjectINS_24AnnotatedBaseObjectTypesEE14getParameterTvIbEEbiiPT_, 
                        __ZNK8GPUTools2SM2GL23TransformFeedbackObjectINS_24AnnotatedBaseObjectTypesEE14getParameterTvIiEEbiiPT_, 
                        __ZNK8GPUTools2SM2GL23TransformFeedbackObjectINS_24AnnotatedBaseObjectTypesEE14getParameterTvIjEEbiiPT_, 
                        __ZNKSt3__110__function6__funcIU8__strongU13block_pointerFvvENS_9allocatorIS4_EES2_E7__cloneEPNS0_6__baseIS2_EE, 
                        __ZNKSt3__110__function6__funcIU8__strongU13block_pointerFvvENS_9allocatorIS4_EES2_E7__cloneEv, 
                        __ZNKSt3__112__hash_tableINS_17__hash_value_typeIiN8GPUTools2SM2GL14ProgramUniformINS2_24AnnotatedBaseObjectTypesEEEEENS_22__unordered_map_hasherIiS8_NS_4hashIiEELb1EEENS_21__unordered_map_equalIiS8_NS_8equal_toIiEELb1EEENS_9allocatorIS8_EEE4findIiEENS_21__hash_const_iteratorIPNS_11__hash_nodeIS8_PvEEEERKT_, 
                        __ZNKSt3__112__hash_tableINS_17__hash_value_typeIiN8GPUTools2SM2GL19ProgramUniformBlockINS2_24AnnotatedBaseObjectTypesEEEEENS_22__unordered_map_hasherIiS8_NS_4hashIiEELb1EEENS_21__unordered_map_equalIiS8_NS_8equal_toIiEELb1EEENS_9allocatorIS8_EEE4findIiEENS_21__hash_const_iteratorIPNS_11__hash_nodeIS8_PvEEEERKT_, 
                        __ZNKSt3__112__hash_tableINS_17__hash_value_typeIiNS_10shared_ptrIN8GPUTools2SM2GL10SyncObjectINS3_24AnnotatedBaseObjectTypesEEEEEEENS_22__unordered_map_hasherIiSA_NS_4hashIiEELb1EEENS_21__unordered_map_equalIiSA_NS_8equal_toIiEELb1EEENS_9allocatorISA_EEE4findIiEENS_21__hash_const_iteratorIPNS_11__hash_nodeISA_PvEEEERKT_, 
                        __ZNKSt3__112__hash_tableINS_17__hash_value_typeIiNS_10shared_ptrIN8GPUTools2SM2GL11QueryObjectINS3_24AnnotatedBaseObjectTypesEEEEEEENS_22__unordered_map_hasherIiSA_NS_4hashIiEELb1EEENS_21__unordered_map_equalIiSA_NS_8equal_toIiEELb1EEENS_9allocatorISA_EEE4findIiEENS_21__hash_const_iteratorIPNS_11__hash_nodeISA_PvEEEERKT_, 
                        __ZNKSt3__112__hash_tableINS_17__hash_value_typeIiNS_10shared_ptrIN8GPUTools2SM2GL12BufferObjectINS3_24AnnotatedBaseObjectTypesEEEEEEENS_22__unordered_map_hasherIiSA_NS_4hashIiEELb1EEENS_21__unordered_map_equalIiSA_NS_8equal_toIiEELb1EEENS_9allocatorISA_EEE4findIiEENS_21__hash_const_iteratorIPNS_11__hash_nodeISA_PvEEEERKT_, 
                        __ZNKSt3__112__hash_tableINS_17__hash_value_typeIiNS_10shared_ptrIN8GPUTools2SM2GL12DrawableInfoINS3_24AnnotatedBaseObjectTypesEEEEEEENS_22__unordered_map_hasherIiSA_NS_4hashIiEELb1EEENS_21__unordered_map_equalIiSA_NS_8equal_toIiEELb1EEENS_9allocatorISA_EEE4findIiEENS_21__hash_const_iteratorIPNS_11__hash_nodeISA_PvEEEERKT_, 
                        __ZNKSt3__112__hash_tableINS_17__hash_value_typeIiNS_10shared_ptrIN8GPUTools2SM2GL12ShaderObjectINS3_24AnnotatedBaseObjectTypesEEEEEEENS_22__unordered_map_hasherIiSA_NS_4hashIiEELb1EEENS_21__unordered_map_equalIiSA_NS_8equal_toIiEELb1EEENS_9allocatorISA_EEE4findIiEENS_21__hash_const_iteratorIPNS_11__hash_nodeISA_PvEEEERKT_, 
                        __ZNKSt3__112__hash_tableINS_17__hash_value_typeIiNS_10shared_ptrIN8GPUTools2SM2GL13ProgramObjectINS3_24AnnotatedBaseObjectTypesEEEEEEENS_22__unordered_map_hasherIiSA_NS_4hashIiEELb1EEENS_21__unordered_map_equalIiSA_NS_8equal_toIiEELb1EEENS_9allocatorISA_EEE4findIiEENS_21__hash_const_iteratorIPNS_11__hash_nodeISA_PvEEEERKT_, 
                        __ZNKSt3__112__hash_tableINS_17__hash_value_typeIiNS_10shared_ptrIN8GPUTools2SM2GL13SamplerObjectINS3_24AnnotatedBaseObjectTypesEEEEEEENS_22__unordered_map_hasherIiSA_NS_4hashIiEELb1EEENS_21__unordered_map_equalIiSA_NS_8equal_toIiEELb1EEENS_9allocatorISA_EEE4findIiEENS_21__hash_const_iteratorIPNS_11__hash_nodeISA_PvEEEERKT_, 
                        __ZNKSt3__112__hash_tableINS_17__hash_value_typeIiNS_10shared_ptrIN8GPUTools2SM2GL13TextureObjectINS3_24AnnotatedBaseObjectTypesEEEEEEENS_22__unordered_map_hasherIiSA_NS_4hashIiEELb1EEENS_21__unordered_map_equalIiSA_NS_8equal_toIiEELb1EEENS_9allocatorISA_EEE4findIiEENS_21__hash_const_iteratorIPNS_11__hash_nodeISA_PvEEEERKT_, 
                        __ZNKSt3__112__hash_tableINS_17__hash_value_typeIiNS_10shared_ptrIN8GPUTools2SM2GL17FramebufferObjectINS3_24AnnotatedBaseObjectTypesEEEEEEENS_22__unordered_map_hasherIiSA_NS_4hashIiEELb1EEENS_21__unordered_map_equalIiSA_NS_8equal_toIiEELb1EEENS_9allocatorISA_EEE4findIiEENS_21__hash_const_iteratorIPNS_11__hash_nodeISA_PvEEEERKT_, 
                        __ZNKSt3__112__hash_tableINS_17__hash_value_typeIiNS_10shared_ptrIN8GPUTools2SM2GL17VertexArrayObjectINS3_24AnnotatedBaseObjectTypesEEEEEEENS_22__unordered_map_hasherIiSA_NS_4hashIiEELb1EEENS_21__unordered_map_equalIiSA_NS_8equal_toIiEELb1EEENS_9allocatorISA_EEE4findIiEENS_21__hash_const_iteratorIPNS_11__hash_nodeISA_PvEEEERKT_, 
                        __ZNKSt3__112__hash_tableINS_17__hash_value_typeIiNS_10shared_ptrIN8GPUTools2SM2GL18RenderbufferObjectINS3_24AnnotatedBaseObjectTypesEEEEEEENS_22__unordered_map_hasherIiSA_NS_4hashIiEELb1EEENS_21__unordered_map_equalIiSA_NS_8equal_toIiEELb1EEENS_9allocatorISA_EEE4findIiEENS_21__hash_const_iteratorIPNS_11__hash_nodeISA_PvEEEERKT_, 
                        __ZNKSt3__112__hash_tableINS_17__hash_value_typeIiNS_10shared_ptrIN8GPUTools2SM2GL21ProgramPipelineObjectINS3_24AnnotatedBaseObjectTypesEEEEEEENS_22__unordered_map_hasherIiSA_NS_4hashIiEELb1EEENS_21__unordered_map_equalIiSA_NS_8equal_toIiEELb1EEENS_9allocatorISA_EEE4findIiEENS_21__hash_const_iteratorIPNS_11__hash_nodeISA_PvEEEERKT_, 
                        __ZNKSt3__112__hash_tableINS_17__hash_value_typeIiNS_10shared_ptrIN8GPUTools2SM2GL23TransformFeedbackObjectINS3_24AnnotatedBaseObjectTypesEEEEEEENS_22__unordered_map_hasherIiSA_NS_4hashIiEELb1EEENS_21__unordered_map_equalIiSA_NS_8equal_toIiEELb1EEENS_9allocatorISA_EEE4findIiEENS_21__hash_const_iteratorIPNS_11__hash_nodeISA_PvEEEERKT_, 
                        __ZNKSt3__112__hash_tableINS_17__hash_value_typeIiiEENS_22__unordered_map_hasherIiS2_NS_4hashIiEELb1EEENS_21__unordered_map_equalIiS2_NS_8equal_toIiEELb1EEENS_9allocatorIS2_EEE4findIiEENS_21__hash_const_iteratorIPNS_11__hash_nodeIS2_PvEEEERKT_, 
                        __ZNKSt3__112__hash_tableINS_17__hash_value_typeIyNS_6vectorINS_10shared_ptrIN8GPUTools21AnnotatedDrawCallInfoEEENS_9allocatorIS6_EEEEEENS_22__unordered_map_hasherIySA_NS_4hashIyEELb1EEENS_21__unordered_map_equalIySA_NS_8equal_toIyEELb1EEENS7_ISA_EEE4findIyEENS_21__hash_const_iteratorIPNS_11__hash_nodeISA_PvEEEERKT_, 
                        __ZNKSt3__112__hash_tableINS_17__hash_value_typeIyiEENS_22__unordered_map_hasherIyS2_NS_4hashIyEELb1EEENS_21__unordered_map_equalIyS2_NS_8equal_toIyEELb1EEENS_9allocatorIS2_EEE4findIyEENS_21__hash_const_iteratorIPNS_11__hash_nodeIS2_PvEEEERKT_, 
                        __ZNKSt3__115basic_stringbufIcNS_11char_traitsIcEENS_9allocatorIcEEE3strEv, 
                        __ZNKSt3__18functionIFPvPKcPmEEclES3_S4_, __ZNKSt3__18functionIFvvEEclEv, 
                        __ZNSt3__110__function6__funcIU8__strongU13block_pointerFvvENS_9allocatorIS4_EES2_E18destroy_deallocateEv, 
                        __ZNSt3__110__function6__funcIU8__strongU13block_pointerFvvENS_9allocatorIS4_EES2_E7destroyEv, 
                        __ZNSt3__110__function6__funcIU8__strongU13block_pointerFvvENS_9allocatorIS4_EES2_ED0Ev, 
                        __ZNSt3__110__function6__funcIU8__strongU13block_pointerFvvENS_9allocatorIS4_EES2_ED1Ev, 
                        __ZNSt3__110__function6__funcIU8__strongU13block_pointerFvvENS_9allocatorIS4_EES2_EclEv, 
                        __ZNSt3__110shared_ptrIN8GPUTools2SM2GL10SyncObjectINS1_24AnnotatedBaseObjectTypesEEEE11make_sharedIJEEES7_DpOT_, 
                        __ZNSt3__110shared_ptrIN8GPUTools2SM2GL10SyncObjectINS1_24AnnotatedBaseObjectTypesEEEE11make_sharedIJRS6_EEES7_DpOT_, 
                        __ZNSt3__110shared_ptrIN8GPUTools2SM2GL11QueryObjectINS1_24AnnotatedBaseObjectTypesEEEE11make_sharedIJEEES7_DpOT_, 
                        __ZNSt3__110shared_ptrIN8GPUTools2SM2GL11QueryObjectINS1_24AnnotatedBaseObjectTypesEEEE11make_sharedIJRS6_EEES7_DpOT_, 
                        __ZNSt3__110shared_ptrIN8GPUTools2SM2GL12BufferObjectINS1_24AnnotatedBaseObjectTypesEEEE11make_sharedIJEEES7_DpOT_, 
                        __ZNSt3__110shared_ptrIN8GPUTools2SM2GL12BufferObjectINS1_24AnnotatedBaseObjectTypesEEEE11make_sharedIJRS6_EEES7_DpOT_, 
                        __ZNSt3__110shared_ptrIN8GPUTools2SM2GL12ShaderObjectINS1_24AnnotatedBaseObjectTypesEEEE11make_sharedIJEEES7_DpOT_, 
                        __ZNSt3__110shared_ptrIN8GPUTools2SM2GL12ShaderObjectINS1_24AnnotatedBaseObjectTypesEEEE11make_sharedIJRS6_EEES7_DpOT_, 
                        __ZNSt3__110shared_ptrIN8GPUTools2SM2GL13ProgramObjectINS1_24AnnotatedBaseObjectTypesEEEE11make_sharedIJEEES7_DpOT_, 
                        __ZNSt3__110shared_ptrIN8GPUTools2SM2GL13ProgramObjectINS1_24AnnotatedBaseObjectTypesEEEE11make_sharedIJRS6_EEES7_DpOT_, 
                        __ZNSt3__110shared_ptrIN8GPUTools2SM2GL13SamplerObjectINS1_24AnnotatedBaseObjectTypesEEEE11make_sharedIJEEES7_DpOT_, 
                        __ZNSt3__110shared_ptrIN8GPUTools2SM2GL13SamplerObjectINS1_24AnnotatedBaseObjectTypesEEEE11make_sharedIJRS6_EEES7_DpOT_, 
                        __ZNSt3__110shared_ptrIN8GPUTools2SM2GL13TextureObjectINS1_24AnnotatedBaseObjectTypesEEEE11make_sharedIJEEES7_DpOT_, 
                        __ZNSt3__110shared_ptrIN8GPUTools2SM2GL13TextureObjectINS1_24AnnotatedBaseObjectTypesEEEE11make_sharedIJRS6_EEES7_DpOT_, 
                        __ZNSt3__110shared_ptrIN8GPUTools2SM2GL17FramebufferObjectINS1_24AnnotatedBaseObjectTypesEEEE11make_sharedIJEEES7_DpOT_, 
                        __ZNSt3__110shared_ptrIN8GPUTools2SM2GL17FramebufferObjectINS1_24AnnotatedBaseObjectTypesEEEE11make_sharedIJRS6_EEES7_DpOT_, 
                        __ZNSt3__110shared_ptrIN8GPUTools2SM2GL17VertexArrayObjectINS1_24AnnotatedBaseObjectTypesEEEE11make_sharedIJEEES7_DpOT_, 
                        __ZNSt3__110shared_ptrIN8GPUTools2SM2GL17VertexArrayObjectINS1_24AnnotatedBaseObjectTypesEEEE11make_sharedIJRS6_EEES7_DpOT_, 
                        __ZNSt3__110shared_ptrIN8GPUTools2SM2GL18RenderbufferObjectINS1_24AnnotatedBaseObjectTypesEEEE11make_sharedIJEEES7_DpOT_, 
                        __ZNSt3__110shared_ptrIN8GPUTools2SM2GL18RenderbufferObjectINS1_24AnnotatedBaseObjectTypesEEEE11make_sharedIJRS6_EEES7_DpOT_, 
                        __ZNSt3__110shared_ptrIN8GPUTools2SM2GL21ProgramPipelineObjectINS1_24AnnotatedBaseObjectTypesEEEE11make_sharedIJEEES7_DpOT_, 
                        __ZNSt3__110shared_ptrIN8GPUTools2SM2GL21ProgramPipelineObjectINS1_24AnnotatedBaseObjectTypesEEEE11make_sharedIJRS6_EEES7_DpOT_, 
                        __ZNSt3__110shared_ptrIN8GPUTools2SM2GL23TransformFeedbackObjectINS1_24AnnotatedBaseObjectTypesEEEE11make_sharedIJEEES7_DpOT_, 
                        __ZNSt3__110shared_ptrIN8GPUTools2SM2GL23TransformFeedbackObjectINS1_24AnnotatedBaseObjectTypesEEEE11make_sharedIJRS6_EEES7_DpOT_, 
                        __ZNSt3__112__hash_tableINS_17__hash_value_typeIN8GPUTools14DYTexObjectKeyENS2_19DYCoverageElement3DEEENS_22__unordered_map_hasherIS3_S5_NS2_18DYTexObjectKeyHashELb1EEENS_21__unordered_map_equalIS3_S5_NS_8equal_toIS3_EELb1EEENS_9allocatorIS5_EEE12__deallocateEPNS_11__hash_nodeIS5_PvEE, 
                        __ZNSt3__112__hash_tableINS_17__hash_value_typeIN8GPUTools14DYTexObjectKeyENS2_19DYCoverageElement3DEEENS_22__unordered_map_hasherIS3_S5_NS2_18DYTexObjectKeyHashELb1EEENS_21__unordered_map_equalIS3_S5_NS_8equal_toIS3_EELb1EEENS_9allocatorIS5_EEE6rehashEm, 
                        __ZNSt3__112__hash_tableINS_17__hash_value_typeIN8GPUTools14DYTexObjectKeyENS2_19DYCoverageElement3DEEENS_22__unordered_map_hasherIS3_S5_NS2_18DYTexObjectKeyHashELb1EEENS_21__unordered_map_equalIS3_S5_NS_8equal_toIS3_EELb1EEENS_9allocatorIS5_EEE8__rehashEm, 
                        __ZNSt3__112__hash_tableINS_17__hash_value_typeIN8GPUTools14DYTexObjectKeyENS2_19DYCoverageElement3DEEENS_22__unordered_map_hasherIS3_S5_NS2_18DYTexObjectKeyHashELb1EEENS_21__unordered_map_equalIS3_S5_NS_8equal_toIS3_EELb1EEENS_9allocatorIS5_EEED2Ev, 
                        __ZNSt3__112__hash_tableINS_17__hash_value_typeINS_12basic_stringIcNS_11char_traitsIcEENS_9allocatorIcEEEEiEENS_22__unordered_map_hasherIS7_S8_NS_4hashIS7_EELb1EEENS_21__unordered_map_equalIS7_S8_NS_8equal_toIS7_EELb1EEENS5_IS8_EEE12__deallocateEPNS_11__hash_nodeIS8_PvEE, 
                        __ZNSt3__112__hash_tableINS_17__hash_value_typeINS_12basic_stringIcNS_11char_traitsIcEENS_9allocatorIcEEEEiEENS_22__unordered_map_hasherIS7_S8_NS_4hashIS7_EELb1EEENS_21__unordered_map_equalIS7_S8_NS_8equal_toIS7_EELb1EEENS5_IS8_EEE21__construct_node_hashIRKNS_21piecewise_construct_tEJNS_5tupleIJRKS7_EEENSN_IJEEEEEENS_10unique_ptrINS_11__hash_nodeIS8_PvEENS_22__hash_node_destructorINS5_ISV_EEEEEEmOT_DpOT0_, 
                        __ZNSt3__112__hash_tableINS_17__hash_value_typeINS_12basic_stringIcNS_11char_traitsIcEENS_9allocatorIcEEEEiEENS_22__unordered_map_hasherIS7_S8_NS_4hashIS7_EELb1EEENS_21__unordered_map_equalIS7_S8_NS_8equal_toIS7_EELb1EEENS5_IS8_EEE21__construct_node_hashIRKNS_4pairIKS7_iEEJEEENS_10unique_ptrINS_11__hash_nodeIS8_PvEENS_22__hash_node_destructorINS5_ISS_EEEEEEmOT_DpOT0_, 
                        __ZNSt3__112__hash_tableINS_17__hash_value_typeINS_12basic_stringIcNS_11char_traitsIcEENS_9allocatorIcEEEEiEENS_22__unordered_map_hasherIS7_S8_NS_4hashIS7_EELb1EEENS_21__unordered_map_equalIS7_S8_NS_8equal_toIS7_EELb1EEENS5_IS8_EEE5clearEv, 
                        __ZNSt3__112__hash_tableINS_17__hash_value_typeINS_12basic_stringIcNS_11char_traitsIcEENS_9allocatorIcEEEEiEENS_22__unordered_map_hasherIS7_S8_NS_4hashIS7_EELb1EEENS_21__unordered_map_equalIS7_S8_NS_8equal_toIS7_EELb1EEENS5_IS8_EEE6rehashEm, 
                        __ZNSt3__112__hash_tableINS_17__hash_value_typeINS_12basic_stringIcNS_11char_traitsIcEENS_9allocatorIcEEEEiEENS_22__unordered_map_hasherIS7_S8_NS_4hashIS7_EELb1EEENS_21__unordered_map_equalIS7_S8_NS_8equal_toIS7_EELb1EEENS5_IS8_EEE8__rehashEm, 
                        __ZNSt3__112__hash_tableINS_17__hash_value_typeINS_12basic_stringIcNS_11char_traitsIcEENS_9allocatorIcEEEEiEENS_22__unordered_map_hasherIS7_S8_NS_4hashIS7_EELb1EEENS_21__unordered_map_equalIS7_S8_NS_8equal_toIS7_EELb1EEENS5_IS8_EEED2Ev, 
                        __ZNSt3__112__hash_tableINS_17__hash_value_typeIiN8GPUTools19DYCoverageElement1DEEENS_22__unordered_map_hasherIiS4_NS_4hashIiEELb1EEENS_21__unordered_map_equalIiS4_NS_8equal_toIiEELb1EEENS_9allocatorIS4_EEE12__deallocateEPNS_11__hash_nodeIS4_PvEE, 
                        __ZNSt3__112__hash_tableINS_17__hash_value_typeIiN8GPUTools19DYCoverageElement1DEEENS_22__unordered_map_hasherIiS4_NS_4hashIiEELb1EEENS_21__unordered_map_equalIiS4_NS_8equal_toIiEELb1EEENS_9allocatorIS4_EEE6rehashEm, 
                        __ZNSt3__112__hash_tableINS_17__hash_value_typeIiN8GPUTools19DYCoverageElement1DEEENS_22__unordered_map_hasherIiS4_NS_4hashIiEELb1EEENS_21__unordered_map_equalIiS4_NS_8equal_toIiEELb1EEENS_9allocatorIS4_EEE8__rehashEm, 
                        __ZNSt3__112__hash_tableINS_17__hash_value_typeIiN8GPUTools19DYCoverageElement1DEEENS_22__unordered_map_hasherIiS4_NS_4hashIiEELb1EEENS_21__unordered_map_equalIiS4_NS_8equal_toIiEELb1EEENS_9allocatorIS4_EEED2Ev, 
                        __ZNSt3__112__hash_tableINS_17__hash_value_typeIiN8GPUTools19DYCoverageElement2DEEENS_22__unordered_map_hasherIiS4_NS_4hashIiEELb1EEENS_21__unordered_map_equalIiS4_NS_8equal_toIiEELb1EEENS_9allocatorIS4_EEE12__deallocateEPNS_11__hash_nodeIS4_PvEE, 
                        __ZNSt3__112__hash_tableINS_17__hash_value_typeIiN8GPUTools19DYCoverageElement2DEEENS_22__unordered_map_hasherIiS4_NS_4hashIiEELb1EEENS_21__unordered_map_equalIiS4_NS_8equal_toIiEELb1EEENS_9allocatorIS4_EEE6rehashEm, 
                        __ZNSt3__112__hash_tableINS_17__hash_value_typeIiN8GPUTools19DYCoverageElement2DEEENS_22__unordered_map_hasherIiS4_NS_4hashIiEELb1EEENS_21__unordered_map_equalIiS4_NS_8equal_toIiEELb1EEENS_9allocatorIS4_EEE8__rehashEm, 
                        __ZNSt3__112__hash_tableINS_17__hash_value_typeIiN8GPUTools19DYCoverageElement2DEEENS_22__unordered_map_hasherIiS4_NS_4hashIiEELb1EEENS_21__unordered_map_equalIiS4_NS_8equal_toIiEELb1EEENS_9allocatorIS4_EEED2Ev, 
                        __ZNSt3__112__hash_tableINS_17__hash_value_typeIiN8GPUTools2SM2GL12TextureLevelINS2_24AnnotatedBaseObjectTypesEEEEENS_22__unordered_map_hasherIiS8_NS_4hashIiEELb1EEENS_21__unordered_map_equalIiS8_NS_8equal_toIiEELb1EEENS_9allocatorIS8_EEE12__deallocateEPNS_11__hash_nodeIS8_PvEE, 
                        __ZNSt3__112__hash_tableINS_17__hash_value_typeIiN8GPUTools2SM2GL12TextureLevelINS2_24AnnotatedBaseObjectTypesEEEEENS_22__unordered_map_hasherIiS8_NS_4hashIiEELb1EEENS_21__unordered_map_equalIiS8_NS_8equal_toIiEELb1EEENS_9allocatorIS8_EEE20__node_insert_uniqueEPNS_11__hash_nodeIS8_PvEE, 
                        __ZNSt3__112__hash_tableINS_17__hash_value_typeIiN8GPUTools2SM2GL12TextureLevelINS2_24AnnotatedBaseObjectTypesEEEEENS_22__unordered_map_hasherIiS8_NS_4hashIiEELb1EEENS_21__unordered_map_equalIiS8_NS_8equal_toIiEELb1EEENS_9allocatorIS8_EEE21__construct_node_hashIRKNS_21piecewise_construct_tEJNS_5tupleIJRKiEEENSO_IJEEEEEENS_10unique_ptrINS_11__hash_nodeIS8_PvEENS_22__hash_node_destructorINSH_ISW_EEEEEEmOT_DpOT0_, 
                        __ZNSt3__112__hash_tableINS_17__hash_value_typeIiN8GPUTools2SM2GL12TextureLevelINS2_24AnnotatedBaseObjectTypesEEEEENS_22__unordered_map_hasherIiS8_NS_4hashIiEELb1EEENS_21__unordered_map_equalIiS8_NS_8equal_toIiEELb1EEENS_9allocatorIS8_EEE21__construct_node_hashIRKNS_4pairIKiS7_EEJEEENS_10unique_ptrINS_11__hash_nodeIS8_PvEENS_22__hash_node_destructorINSH_IST_EEEEEEmOT_DpOT0_, 
                        __ZNSt3__112__hash_tableINS_17__hash_value_typeIiN8GPUTools2SM2GL12TextureLevelINS2_24AnnotatedBaseObjectTypesEEEEENS_22__unordered_map_hasherIiS8_NS_4hashIiEELb1EEENS_21__unordered_map_equalIiS8_NS_8equal_toIiEELb1EEENS_9allocatorIS8_EEE4findIiEENS_15__hash_iteratorIPNS_11__hash_nodeIS8_PvEEEERKT_, 
                        __ZNSt3__112__hash_tableINS_17__hash_value_typeIiN8GPUTools2SM2GL12TextureLevelINS2_24AnnotatedBaseObjectTypesEEEEENS_22__unordered_map_hasherIiS8_NS_4hashIiEELb1EEENS_21__unordered_map_equalIiS8_NS_8equal_toIiEELb1EEENS_9allocatorIS8_EEE5eraseENS_21__hash_const_iteratorIPNS_11__hash_nodeIS8_PvEEEE, 
                        __ZNSt3__112__hash_tableINS_17__hash_value_typeIiN8GPUTools2SM2GL12TextureLevelINS2_24AnnotatedBaseObjectTypesEEEEENS_22__unordered_map_hasherIiS8_NS_4hashIiEELb1EEENS_21__unordered_map_equalIiS8_NS_8equal_toIiEELb1EEENS_9allocatorIS8_EEE6rehashEm, 
                        __ZNSt3__112__hash_tableINS_17__hash_value_typeIiN8GPUTools2SM2GL12TextureLevelINS2_24AnnotatedBaseObjectTypesEEEEENS_22__unordered_map_hasherIiS8_NS_4hashIiEELb1EEENS_21__unordered_map_equalIiS8_NS_8equal_toIiEELb1EEENS_9allocatorIS8_EEE6removeENS_21__hash_const_iteratorIPNS_11__hash_nodeIS8_PvEEEE, 
                        __ZNSt3__112__hash_tableINS_17__hash_value_typeIiN8GPUTools2SM2GL12TextureLevelINS2_24AnnotatedBaseObjectTypesEEEEENS_22__unordered_map_hasherIiS8_NS_4hashIiEELb1EEENS_21__unordered_map_equalIiS8_NS_8equal_toIiEELb1EEENS_9allocatorIS8_EEE8__rehashEm, 
                        __ZNSt3__112__hash_tableINS_17__hash_value_typeIiN8GPUTools2SM2GL12TextureLevelINS2_24AnnotatedBaseObjectTypesEEEEENS_22__unordered_map_hasherIiS8_NS_4hashIiEELb1EEENS_21__unordered_map_equalIiS8_NS_8equal_toIiEELb1EEENS_9allocatorIS8_EEED2Ev, 
                        __ZNSt3__112__hash_tableINS_17__hash_value_typeIiN8GPUTools2SM2GL13ProgramAttribINS2_24AnnotatedBaseObjectTypesEEEEENS_22__unordered_map_hasherIiS8_NS_4hashIiEELb1EEENS_21__unordered_map_equalIiS8_NS_8equal_toIiEELb1EEENS_9allocatorIS8_EEE12__deallocateEPNS_11__hash_nodeIS8_PvEE, 
                        __ZNSt3__112__hash_tableINS_17__hash_value_typeIiN8GPUTools2SM2GL13ProgramAttribINS2_24AnnotatedBaseObjectTypesEEEEENS_22__unordered_map_hasherIiS8_NS_4hashIiEELb1EEENS_21__unordered_map_equalIiS8_NS_8equal_toIiEELb1EEENS_9allocatorIS8_EEE21__construct_node_hashIRKNS_21piecewise_construct_tEJNS_5tupleIJRKiEEENSO_IJEEEEEENS_10unique_ptrINS_11__hash_nodeIS8_PvEENS_22__hash_node_destructorINSH_ISW_EEEEEEmOT_DpOT0_, 
                        __ZNSt3__112__hash_tableINS_17__hash_value_typeIiN8GPUTools2SM2GL13ProgramAttribINS2_24AnnotatedBaseObjectTypesEEEEENS_22__unordered_map_hasherIiS8_NS_4hashIiEELb1EEENS_21__unordered_map_equalIiS8_NS_8equal_toIiEELb1EEENS_9allocatorIS8_EEE21__construct_node_hashIRKNS_4pairIKiS7_EEJEEENS_10unique_ptrINS_11__hash_nodeIS8_PvEENS_22__hash_node_destructorINSH_IST_EEEEEEmOT_DpOT0_, 
                        __ZNSt3__112__hash_tableINS_17__hash_value_typeIiN8GPUTools2SM2GL13ProgramAttribINS2_24AnnotatedBaseObjectTypesEEEEENS_22__unordered_map_hasherIiS8_NS_4hashIiEELb1EEENS_21__unordered_map_equalIiS8_NS_8equal_toIiEELb1EEENS_9allocatorIS8_EEE5clearEv, 
                        __ZNSt3__112__hash_tableINS_17__hash_value_typeIiN8GPUTools2SM2GL13ProgramAttribINS2_24AnnotatedBaseObjectTypesEEEEENS_22__unordered_map_hasherIiS8_NS_4hashIiEELb1EEENS_21__unordered_map_equalIiS8_NS_8equal_toIiEELb1EEENS_9allocatorIS8_EEE6rehashEm, 
                        __ZNSt3__112__hash_tableINS_17__hash_value_typeIiN8GPUTools2SM2GL13ProgramAttribINS2_24AnnotatedBaseObjectTypesEEEEENS_22__unordered_map_hasherIiS8_NS_4hashIiEELb1EEENS_21__unordered_map_equalIiS8_NS_8equal_toIiEELb1EEENS_9allocatorIS8_EEE8__rehashEm, 
                        __ZNSt3__112__hash_tableINS_17__hash_value_typeIiN8GPUTools2SM2GL13ProgramAttribINS2_24AnnotatedBaseObjectTypesEEEEENS_22__unordered_map_hasherIiS8_NS_4hashIiEELb1EEENS_21__unordered_map_equalIiS8_NS_8equal_toIiEELb1EEENS_9allocatorIS8_EEED2Ev, 
                        __ZNSt3__112__hash_tableINS_17__hash_value_typeIiN8GPUTools2SM2GL14ProgramUniformINS2_24AnnotatedBaseObjectTypesEEEEENS_22__unordered_map_hasherIiS8_NS_4hashIiEELb1EEENS_21__unordered_map_equalIiS8_NS_8equal_toIiEELb1EEENS_9allocatorIS8_EEE12__deallocateEPNS_11__hash_nodeIS8_PvEE, 
                        __ZNSt3__112__hash_tableINS_17__hash_value_typeIiN8GPUTools2SM2GL14ProgramUniformINS2_24AnnotatedBaseObjectTypesEEEEENS_22__unordered_map_hasherIiS8_NS_4hashIiEELb1EEENS_21__unordered_map_equalIiS8_NS_8equal_toIiEELb1EEENS_9allocatorIS8_EEE21__construct_node_hashIRKNS_21piecewise_construct_tEJNS_5tupleIJRKiEEENSO_IJEEEEEENS_10unique_ptrINS_11__hash_nodeIS8_PvEENS_22__hash_node_destructorINSH_ISW_EEEEEEmOT_DpOT0_, 
                        __ZNSt3__112__hash_tableINS_17__hash_value_typeIiN8GPUTools2SM2GL14ProgramUniformINS2_24AnnotatedBaseObjectTypesEEEEENS_22__unordered_map_hasherIiS8_NS_4hashIiEELb1EEENS_21__unordered_map_equalIiS8_NS_8equal_toIiEELb1EEENS_9allocatorIS8_EEE21__construct_node_hashIRKNS_4pairIKiS7_EEJEEENS_10unique_ptrINS_11__hash_nodeIS8_PvEENS_22__hash_node_destructorINSH_IST_EEEEEEmOT_DpOT0_, 
                        __ZNSt3__112__hash_tableINS_17__hash_value_typeIiN8GPUTools2SM2GL14ProgramUniformINS2_24AnnotatedBaseObjectTypesEEEEENS_22__unordered_map_hasherIiS8_NS_4hashIiEELb1EEENS_21__unordered_map_equalIiS8_NS_8equal_toIiEELb1EEENS_9allocatorIS8_EEE4findIiEENS_15__hash_iteratorIPNS_11__hash_nodeIS8_PvEEEERKT_, 
                        __ZNSt3__112__hash_tableINS_17__hash_value_typeIiN8GPUTools2SM2GL14ProgramUniformINS2_24AnnotatedBaseObjectTypesEEEEENS_22__unordered_map_hasherIiS8_NS_4hashIiEELb1EEENS_21__unordered_map_equalIiS8_NS_8equal_toIiEELb1EEENS_9allocatorIS8_EEE5clearEv, 
                        __ZNSt3__112__hash_tableINS_17__hash_value_typeIiN8GPUTools2SM2GL14ProgramUniformINS2_24AnnotatedBaseObjectTypesEEEEENS_22__unordered_map_hasherIiS8_NS_4hashIiEELb1EEENS_21__unordered_map_equalIiS8_NS_8equal_toIiEELb1EEENS_9allocatorIS8_EEE6rehashEm, 
                        __ZNSt3__112__hash_tableINS_17__hash_value_typeIiN8GPUTools2SM2GL14ProgramUniformINS2_24AnnotatedBaseObjectTypesEEEEENS_22__unordered_map_hasherIiS8_NS_4hashIiEELb1EEENS_21__unordered_map_equalIiS8_NS_8equal_toIiEELb1EEENS_9allocatorIS8_EEE8__rehashEm, 
                        __ZNSt3__112__hash_tableINS_17__hash_value_typeIiN8GPUTools2SM2GL14ProgramUniformINS2_24AnnotatedBaseObjectTypesEEEEENS_22__unordered_map_hasherIiS8_NS_4hashIiEELb1EEENS_21__unordered_map_equalIiS8_NS_8equal_toIiEELb1EEENS_9allocatorIS8_EEED2Ev, 
                        __ZNSt3__112__hash_tableINS_17__hash_value_typeIiN8GPUTools2SM2GL19ProgramUniformBlockINS2_24AnnotatedBaseObjectTypesEEEEENS_22__unordered_map_hasherIiS8_NS_4hashIiEELb1EEENS_21__unordered_map_equalIiS8_NS_8equal_toIiEELb1EEENS_9allocatorIS8_EEE12__deallocateEPNS_11__hash_nodeIS8_PvEE, 
                        __ZNSt3__112__hash_tableINS_17__hash_value_typeIiN8GPUTools2SM2GL19ProgramUniformBlockINS2_24AnnotatedBaseObjectTypesEEEEENS_22__unordered_map_hasherIiS8_NS_4hashIiEELb1EEENS_21__unordered_map_equalIiS8_NS_8equal_toIiEELb1EEENS_9allocatorIS8_EEE21__construct_node_hashIRKNS_21piecewise_construct_tEJNS_5tupleIJOiEEENSO_IJEEEEEENS_10unique_ptrINS_11__hash_nodeIS8_PvEENS_22__hash_node_destructorINSH_ISV_EEEEEEmOT_DpOT0_, 
                        __ZNSt3__112__hash_tableINS_17__hash_value_typeIiN8GPUTools2SM2GL19ProgramUniformBlockINS2_24AnnotatedBaseObjectTypesEEEEENS_22__unordered_map_hasherIiS8_NS_4hashIiEELb1EEENS_21__unordered_map_equalIiS8_NS_8equal_toIiEELb1EEENS_9allocatorIS8_EEE21__construct_node_hashIRKNS_21piecewise_construct_tEJNS_5tupleIJRKiEEENSO_IJEEEEEENS_10unique_ptrINS_11__hash_nodeIS8_PvEENS_22__hash_node_destructorINSH_ISW_EEEEEEmOT_DpOT0_, 
                        __ZNSt3__112__hash_tableINS_17__hash_value_typeIiN8GPUTools2SM2GL19ProgramUniformBlockINS2_24AnnotatedBaseObjectTypesEEEEENS_22__unordered_map_hasherIiS8_NS_4hashIiEELb1EEENS_21__unordered_map_equalIiS8_NS_8equal_toIiEELb1EEENS_9allocatorIS8_EEE21__construct_node_hashIRKNS_4pairIKiS7_EEJEEENS_10unique_ptrINS_11__hash_nodeIS8_PvEENS_22__hash_node_destructorINSH_IST_EEEEEEmOT_DpOT0_, 
                        __ZNSt3__112__hash_tableINS_17__hash_value_typeIiN8GPUTools2SM2GL19ProgramUniformBlockINS2_24AnnotatedBaseObjectTypesEEEEENS_22__unordered_map_hasherIiS8_NS_4hashIiEELb1EEENS_21__unordered_map_equalIiS8_NS_8equal_toIiEELb1EEENS_9allocatorIS8_EEE5clearEv, 
                        __ZNSt3__112__hash_tableINS_17__hash_value_typeIiN8GPUTools2SM2GL19ProgramUniformBlockINS2_24AnnotatedBaseObjectTypesEEEEENS_22__unordered_map_hasherIiS8_NS_4hashIiEELb1EEENS_21__unordered_map_equalIiS8_NS_8equal_toIiEELb1EEENS_9allocatorIS8_EEE6rehashEm, 
                        __ZNSt3__112__hash_tableINS_17__hash_value_typeIiN8GPUTools2SM2GL19ProgramUniformBlockINS2_24AnnotatedBaseObjectTypesEEEEENS_22__unordered_map_hasherIiS8_NS_4hashIiEELb1EEENS_21__unordered_map_equalIiS8_NS_8equal_toIiEELb1EEENS_9allocatorIS8_EEE8__rehashEm, 
                        __ZNSt3__112__hash_tableINS_17__hash_value_typeIiN8GPUTools2SM2GL19ProgramUniformBlockINS2_24AnnotatedBaseObjectTypesEEEEENS_22__unordered_map_hasherIiS8_NS_4hashIiEELb1EEENS_21__unordered_map_equalIiS8_NS_8equal_toIiEELb1EEENS_9allocatorIS8_EEED2Ev, 
                        __ZNSt3__112__hash_tableINS_17__hash_value_typeIiN8GPUTools2SM2GL31ProgramTransformFeedbackVaryingINS2_24AnnotatedBaseObjectTypesEEEEENS_22__unordered_map_hasherIiS8_NS_4hashIiEELb1EEENS_21__unordered_map_equalIiS8_NS_8equal_toIiEELb1EEENS_9allocatorIS8_EEE12__deallocateEPNS_11__hash_nodeIS8_PvEE, 
                        __ZNSt3__112__hash_tableINS_17__hash_value_typeIiN8GPUTools2SM2GL31ProgramTransformFeedbackVaryingINS2_24AnnotatedBaseObjectTypesEEEEENS_22__unordered_map_hasherIiS8_NS_4hashIiEELb1EEENS_21__unordered_map_equalIiS8_NS_8equal_toIiEELb1EEENS_9allocatorIS8_EEE21__construct_node_hashIRKNS_21piecewise_construct_tEJNS_5tupleIJRKiEEENSO_IJEEEEEENS_10unique_ptrINS_11__hash_nodeIS8_PvEENS_22__hash_node_destructorINSH_ISW_EEEEEEmOT_DpOT0_, 
                        __ZNSt3__112__hash_tableINS_17__hash_value_typeIiN8GPUTools2SM2GL31ProgramTransformFeedbackVaryingINS2_24AnnotatedBaseObjectTypesEEEEENS_22__unordered_map_hasherIiS8_NS_4hashIiEELb1EEENS_21__unordered_map_equalIiS8_NS_8equal_toIiEELb1EEENS_9allocatorIS8_EEE21__construct_node_hashIRKNS_4pairIKiS7_EEJEEENS_10unique_ptrINS_11__hash_nodeIS8_PvEENS_22__hash_node_destructorINSH_IST_EEEEEEmOT_DpOT0_, 
                        __ZNSt3__112__hash_tableINS_17__hash_value_typeIiN8GPUTools2SM2GL31ProgramTransformFeedbackVaryingINS2_24AnnotatedBaseObjectTypesEEEEENS_22__unordered_map_hasherIiS8_NS_4hashIiEELb1EEENS_21__unordered_map_equalIiS8_NS_8equal_toIiEELb1EEENS_9allocatorIS8_EEE5clearEv, 
                        __ZNSt3__112__hash_tableINS_17__hash_value_typeIiN8GPUTools2SM2GL31ProgramTransformFeedbackVaryingINS2_24AnnotatedBaseObjectTypesEEEEENS_22__unordered_map_hasherIiS8_NS_4hashIiEELb1EEENS_21__unordered_map_equalIiS8_NS_8equal_toIiEELb1EEENS_9allocatorIS8_EEE6rehashEm, 
                        __ZNSt3__112__hash_tableINS_17__hash_value_typeIiN8GPUTools2SM2GL31ProgramTransformFeedbackVaryingINS2_24AnnotatedBaseObjectTypesEEEEENS_22__unordered_map_hasherIiS8_NS_4hashIiEELb1EEENS_21__unordered_map_equalIiS8_NS_8equal_toIiEELb1EEENS_9allocatorIS8_EEE8__rehashEm, 
                        __ZNSt3__112__hash_tableINS_17__hash_value_typeIiN8GPUTools2SM2GL31ProgramTransformFeedbackVaryingINS2_24AnnotatedBaseObjectTypesEEEEENS_22__unordered_map_hasherIiS8_NS_4hashIiEELb1EEENS_21__unordered_map_equalIiS8_NS_8equal_toIiEELb1EEENS_9allocatorIS8_EEED2Ev, 
                        __ZNSt3__112__hash_tableINS_17__hash_value_typeIiNS_10shared_ptrIN8GPUTools2SM2GL10SyncObjectINS3_24AnnotatedBaseObjectTypesEEEEEEENS_22__unordered_map_hasherIiSA_NS_4hashIiEELb1EEENS_21__unordered_map_equalIiSA_NS_8equal_toIiEELb1EEENS_9allocatorISA_EEE12__deallocateEPNS_11__hash_nodeISA_PvEE, 
                        __ZNSt3__112__hash_tableINS_17__hash_value_typeIiNS_10shared_ptrIN8GPUTools2SM2GL10SyncObjectINS3_24AnnotatedBaseObjectTypesEEEEEEENS_22__unordered_map_hasherIiSA_NS_4hashIiEELb1EEENS_21__unordered_map_equalIiSA_NS_8equal_toIiEELb1EEENS_9allocatorISA_EEE14__erase_uniqueIiEEmRKT_, 
                        __ZNSt3__112__hash_tableINS_17__hash_value_typeIiNS_10shared_ptrIN8GPUTools2SM2GL10SyncObjectINS3_24AnnotatedBaseObjectTypesEEEEEEENS_22__unordered_map_hasherIiSA_NS_4hashIiEELb1EEENS_21__unordered_map_equalIiSA_NS_8equal_toIiEELb1EEENS_9allocatorISA_EEE4findIiEENS_15__hash_iteratorIPNS_11__hash_nodeISA_PvEEEERKT_, 
                        __ZNSt3__112__hash_tableINS_17__hash_value_typeIiNS_10shared_ptrIN8GPUTools2SM2GL10SyncObjectINS3_24AnnotatedBaseObjectTypesEEEEEEENS_22__unordered_map_hasherIiSA_NS_4hashIiEELb1EEENS_21__unordered_map_equalIiSA_NS_8equal_toIiEELb1EEENS_9allocatorISA_EEE5eraseENS_21__hash_const_iteratorIPNS_11__hash_nodeISA_PvEEEE, 
                        __ZNSt3__112__hash_tableINS_17__hash_value_typeIiNS_10shared_ptrIN8GPUTools2SM2GL10SyncObjectINS3_24AnnotatedBaseObjectTypesEEEEEEENS_22__unordered_map_hasherIiSA_NS_4hashIiEELb1EEENS_21__unordered_map_equalIiSA_NS_8equal_toIiEELb1EEENS_9allocatorISA_EEE6rehashEm, 
                        __ZNSt3__112__hash_tableINS_17__hash_value_typeIiNS_10shared_ptrIN8GPUTools2SM2GL10SyncObjectINS3_24AnnotatedBaseObjectTypesEEEEEEENS_22__unordered_map_hasherIiSA_NS_4hashIiEELb1EEENS_21__unordered_map_equalIiSA_NS_8equal_toIiEELb1EEENS_9allocatorISA_EEE6removeENS_21__hash_const_iteratorIPNS_11__hash_nodeISA_PvEEEE, 
                        __ZNSt3__112__hash_tableINS_17__hash_value_typeIiNS_10shared_ptrIN8GPUTools2SM2GL10SyncObjectINS3_24AnnotatedBaseObjectTypesEEEEEEENS_22__unordered_map_hasherIiSA_NS_4hashIiEELb1EEENS_21__unordered_map_equalIiSA_NS_8equal_toIiEELb1EEENS_9allocatorISA_EEE8__rehashEm, 
                        __ZNSt3__112__hash_tableINS_17__hash_value_typeIiNS_10shared_ptrIN8GPUTools2SM2GL10SyncObjectINS3_24AnnotatedBaseObjectTypesEEEEEEENS_22__unordered_map_hasherIiSA_NS_4hashIiEELb1EEENS_21__unordered_map_equalIiSA_NS_8equal_toIiEELb1EEENS_9allocatorISA_EEED2Ev, 
                        __ZNSt3__112__hash_tableINS_17__hash_value_typeIiNS_10shared_ptrIN8GPUTools2SM2GL11QueryObjectINS3_24AnnotatedBaseObjectTypesEEEEEEENS_22__unordered_map_hasherIiSA_NS_4hashIiEELb1EEENS_21__unordered_map_equalIiSA_NS_8equal_toIiEELb1EEENS_9allocatorISA_EEE12__deallocateEPNS_11__hash_nodeISA_PvEE, 
                        __ZNSt3__112__hash_tableINS_17__hash_value_typeIiNS_10shared_ptrIN8GPUTools2SM2GL11QueryObjectINS3_24AnnotatedBaseObjectTypesEEEEEEENS_22__unordered_map_hasherIiSA_NS_4hashIiEELb1EEENS_21__unordered_map_equalIiSA_NS_8equal_toIiEELb1EEENS_9allocatorISA_EEE14__erase_uniqueIiEEmRKT_, 
                        __ZNSt3__112__hash_tableINS_17__hash_value_typeIiNS_10shared_ptrIN8GPUTools2SM2GL11QueryObjectINS3_24AnnotatedBaseObjectTypesEEEEEEENS_22__unordered_map_hasherIiSA_NS_4hashIiEELb1EEENS_21__unordered_map_equalIiSA_NS_8equal_toIiEELb1EEENS_9allocatorISA_EEE4findIiEENS_15__hash_iteratorIPNS_11__hash_nodeISA_PvEEEERKT_, 
                        __ZNSt3__112__hash_tableINS_17__hash_value_typeIiNS_10shared_ptrIN8GPUTools2SM2GL11QueryObjectINS3_24AnnotatedBaseObjectTypesEEEEEEENS_22__unordered_map_hasherIiSA_NS_4hashIiEELb1EEENS_21__unordered_map_equalIiSA_NS_8equal_toIiEELb1EEENS_9allocatorISA_EEE5eraseENS_21__hash_const_iteratorIPNS_11__hash_nodeISA_PvEEEE, 
                        __ZNSt3__112__hash_tableINS_17__hash_value_typeIiNS_10shared_ptrIN8GPUTools2SM2GL11QueryObjectINS3_24AnnotatedBaseObjectTypesEEEEEEENS_22__unordered_map_hasherIiSA_NS_4hashIiEELb1EEENS_21__unordered_map_equalIiSA_NS_8equal_toIiEELb1EEENS_9allocatorISA_EEE6rehashEm, 
                        __ZNSt3__112__hash_tableINS_17__hash_value_typeIiNS_10shared_ptrIN8GPUTools2SM2GL11QueryObjectINS3_24AnnotatedBaseObjectTypesEEEEEEENS_22__unordered_map_hasherIiSA_NS_4hashIiEELb1EEENS_21__unordered_map_equalIiSA_NS_8equal_toIiEELb1EEENS_9allocatorISA_EEE6removeENS_21__hash_const_iteratorIPNS_11__hash_nodeISA_PvEEEE, 
                        __ZNSt3__112__hash_tableINS_17__hash_value_typeIiNS_10shared_ptrIN8GPUTools2SM2GL11QueryObjectINS3_24AnnotatedBaseObjectTypesEEEEEEENS_22__unordered_map_hasherIiSA_NS_4hashIiEELb1EEENS_21__unordered_map_equalIiSA_NS_8equal_toIiEELb1EEENS_9allocatorISA_EEE8__rehashEm, 
                        __ZNSt3__112__hash_tableINS_17__hash_value_typeIiNS_10shared_ptrIN8GPUTools2SM2GL11QueryObjectINS3_24AnnotatedBaseObjectTypesEEEEEEENS_22__unordered_map_hasherIiSA_NS_4hashIiEELb1EEENS_21__unordered_map_equalIiSA_NS_8equal_toIiEELb1EEENS_9allocatorISA_EEED2Ev, 
                        __ZNSt3__112__hash_tableINS_17__hash_value_typeIiNS_10shared_ptrIN8GPUTools2SM2GL12BufferObjectINS3_24AnnotatedBaseObjectTypesEEEEEEENS_22__unordered_map_hasherIiSA_NS_4hashIiEELb1EEENS_21__unordered_map_equalIiSA_NS_8equal_toIiEELb1EEENS_9allocatorISA_EEE12__deallocateEPNS_11__hash_nodeISA_PvEE, 
                        __ZNSt3__112__hash_tableINS_17__hash_value_typeIiNS_10shared_ptrIN8GPUTools2SM2GL12BufferObjectINS3_24AnnotatedBaseObjectTypesEEEEEEENS_22__unordered_map_hasherIiSA_NS_4hashIiEELb1EEENS_21__unordered_map_equalIiSA_NS_8equal_toIiEELb1EEENS_9allocatorISA_EEE14__erase_uniqueIiEEmRKT_, 
                        __ZNSt3__112__hash_tableINS_17__hash_value_typeIiNS_10shared_ptrIN8GPUTools2SM2GL12BufferObjectINS3_24AnnotatedBaseObjectTypesEEEEEEENS_22__unordered_map_hasherIiSA_NS_4hashIiEELb1EEENS_21__unordered_map_equalIiSA_NS_8equal_toIiEELb1EEENS_9allocatorISA_EEE4findIiEENS_15__hash_iteratorIPNS_11__hash_nodeISA_PvEEEERKT_, 
                        __ZNSt3__112__hash_tableINS_17__hash_value_typeIiNS_10shared_ptrIN8GPUTools2SM2GL12BufferObjectINS3_24AnnotatedBaseObjectTypesEEEEEEENS_22__unordered_map_hasherIiSA_NS_4hashIiEELb1EEENS_21__unordered_map_equalIiSA_NS_8equal_toIiEELb1EEENS_9allocatorISA_EEE5eraseENS_21__hash_const_iteratorIPNS_11__hash_nodeISA_PvEEEE, 
                        __ZNSt3__112__hash_tableINS_17__hash_value_typeIiNS_10shared_ptrIN8GPUTools2SM2GL12BufferObjectINS3_24AnnotatedBaseObjectTypesEEEEEEENS_22__unordered_map_hasherIiSA_NS_4hashIiEELb1EEENS_21__unordered_map_equalIiSA_NS_8equal_toIiEELb1EEENS_9allocatorISA_EEE6rehashEm, 
                        __ZNSt3__112__hash_tableINS_17__hash_value_typeIiNS_10shared_ptrIN8GPUTools2SM2GL12BufferObjectINS3_24AnnotatedBaseObjectTypesEEEEEEENS_22__unordered_map_hasherIiSA_NS_4hashIiEELb1EEENS_21__unordered_map_equalIiSA_NS_8equal_toIiEELb1EEENS_9allocatorISA_EEE6removeENS_21__hash_const_iteratorIPNS_11__hash_nodeISA_PvEEEE, 
                        __ZNSt3__112__hash_tableINS_17__hash_value_typeIiNS_10shared_ptrIN8GPUTools2SM2GL12BufferObjectINS3_24AnnotatedBaseObjectTypesEEEEEEENS_22__unordered_map_hasherIiSA_NS_4hashIiEELb1EEENS_21__unordered_map_equalIiSA_NS_8equal_toIiEELb1EEENS_9allocatorISA_EEE8__rehashEm, 
                        __ZNSt3__112__hash_tableINS_17__hash_value_typeIiNS_10shared_ptrIN8GPUTools2SM2GL12BufferObjectINS3_24AnnotatedBaseObjectTypesEEEEEEENS_22__unordered_map_hasherIiSA_NS_4hashIiEELb1EEENS_21__unordered_map_equalIiSA_NS_8equal_toIiEELb1EEENS_9allocatorISA_EEED2Ev, 
                        __ZNSt3__112__hash_tableINS_17__hash_value_typeIiNS_10shared_ptrIN8GPUTools2SM2GL12DrawableInfoINS3_24AnnotatedBaseObjectTypesEEEEEEENS_22__unordered_map_hasherIiSA_NS_4hashIiEELb1EEENS_21__unordered_map_equalIiSA_NS_8equal_toIiEELb1EEENS_9allocatorISA_EEE12__deallocateEPNS_11__hash_nodeISA_PvEE, 
                        __ZNSt3__112__hash_tableINS_17__hash_value_typeIiNS_10shared_ptrIN8GPUTools2SM2GL12DrawableInfoINS3_24AnnotatedBaseObjectTypesEEEEEEENS_22__unordered_map_hasherIiSA_NS_4hashIiEELb1EEENS_21__unordered_map_equalIiSA_NS_8equal_toIiEELb1EEENS_9allocatorISA_EEE4findIiEENS_15__hash_iteratorIPNS_11__hash_nodeISA_PvEEEERKT_, 
                        __ZNSt3__112__hash_tableINS_17__hash_value_typeIiNS_10shared_ptrIN8GPUTools2SM2GL12DrawableInfoINS3_24AnnotatedBaseObjectTypesEEEEEEENS_22__unordered_map_hasherIiSA_NS_4hashIiEELb1EEENS_21__unordered_map_equalIiSA_NS_8equal_toIiEELb1EEENS_9allocatorISA_EEE6rehashEm, 
                        __ZNSt3__112__hash_tableINS_17__hash_value_typeIiNS_10shared_ptrIN8GPUTools2SM2GL12DrawableInfoINS3_24AnnotatedBaseObjectTypesEEEEEEENS_22__unordered_map_hasherIiSA_NS_4hashIiEELb1EEENS_21__unordered_map_equalIiSA_NS_8equal_toIiEELb1EEENS_9allocatorISA_EEE8__rehashEm, 
                        __ZNSt3__112__hash_tableINS_17__hash_value_typeIiNS_10shared_ptrIN8GPUTools2SM2GL12DrawableInfoINS3_24AnnotatedBaseObjectTypesEEEEEEENS_22__unordered_map_hasherIiSA_NS_4hashIiEELb1EEENS_21__unordered_map_equalIiSA_NS_8equal_toIiEELb1EEENS_9allocatorISA_EEED2Ev, 
                        __ZNSt3__112__hash_tableINS_17__hash_value_typeIiNS_10shared_ptrIN8GPUTools2SM2GL12ShaderObjectINS3_24AnnotatedBaseObjectTypesEEEEEEENS_22__unordered_map_hasherIiSA_NS_4hashIiEELb1EEENS_21__unordered_map_equalIiSA_NS_8equal_toIiEELb1EEENS_9allocatorISA_EEE12__deallocateEPNS_11__hash_nodeISA_PvEE, 
                        __ZNSt3__112__hash_tableINS_17__hash_value_typeIiNS_10shared_ptrIN8GPUTools2SM2GL12ShaderObjectINS3_24AnnotatedBaseObjectTypesEEEEEEENS_22__unordered_map_hasherIiSA_NS_4hashIiEELb1EEENS_21__unordered_map_equalIiSA_NS_8equal_toIiEELb1EEENS_9allocatorISA_EEE14__erase_uniqueIiEEmRKT_, 
                        __ZNSt3__112__hash_tableINS_17__hash_value_typeIiNS_10shared_ptrIN8GPUTools2SM2GL12ShaderObjectINS3_24AnnotatedBaseObjectTypesEEEEEEENS_22__unordered_map_hasherIiSA_NS_4hashIiEELb1EEENS_21__unordered_map_equalIiSA_NS_8equal_toIiEELb1EEENS_9allocatorISA_EEE4findIiEENS_15__hash_iteratorIPNS_11__hash_nodeISA_PvEEEERKT_, 
                        __ZNSt3__112__hash_tableINS_17__hash_value_typeIiNS_10shared_ptrIN8GPUTools2SM2GL12ShaderObjectINS3_24AnnotatedBaseObjectTypesEEEEEEENS_22__unordered_map_hasherIiSA_NS_4hashIiEELb1EEENS_21__unordered_map_equalIiSA_NS_8equal_toIiEELb1EEENS_9allocatorISA_EEE5eraseENS_21__hash_const_iteratorIPNS_11__hash_nodeISA_PvEEEE, 
                        __ZNSt3__112__hash_tableINS_17__hash_value_typeIiNS_10shared_ptrIN8GPUTools2SM2GL12ShaderObjectINS3_24AnnotatedBaseObjectTypesEEEEEEENS_22__unordered_map_hasherIiSA_NS_4hashIiEELb1EEENS_21__unordered_map_equalIiSA_NS_8equal_toIiEELb1EEENS_9allocatorISA_EEE6rehashEm, 
                        __ZNSt3__112__hash_tableINS_17__hash_value_typeIiNS_10shared_ptrIN8GPUTools2SM2GL12ShaderObjectINS3_24AnnotatedBaseObjectTypesEEEEEEENS_22__unordered_map_hasherIiSA_NS_4hashIiEELb1EEENS_21__unordered_map_equalIiSA_NS_8equal_toIiEELb1EEENS_9allocatorISA_EEE6removeENS_21__hash_const_iteratorIPNS_11__hash_nodeISA_PvEEEE, 
                        __ZNSt3__112__hash_tableINS_17__hash_value_typeIiNS_10shared_ptrIN8GPUTools2SM2GL12ShaderObjectINS3_24AnnotatedBaseObjectTypesEEEEEEENS_22__unordered_map_hasherIiSA_NS_4hashIiEELb1EEENS_21__unordered_map_equalIiSA_NS_8equal_toIiEELb1EEENS_9allocatorISA_EEE8__rehashEm, 
                        __ZNSt3__112__hash_tableINS_17__hash_value_typeIiNS_10shared_ptrIN8GPUTools2SM2GL12ShaderObjectINS3_24AnnotatedBaseObjectTypesEEEEEEENS_22__unordered_map_hasherIiSA_NS_4hashIiEELb1EEENS_21__unordered_map_equalIiSA_NS_8equal_toIiEELb1EEENS_9allocatorISA_EEED2Ev, 
                        __ZNSt3__112__hash_tableINS_17__hash_value_typeIiNS_10shared_ptrIN8GPUTools2SM2GL13ProgramObjectINS3_24AnnotatedBaseObjectTypesEEEEEEENS_22__unordered_map_hasherIiSA_NS_4hashIiEELb1EEENS_21__unordered_map_equalIiSA_NS_8equal_toIiEELb1EEENS_9allocatorISA_EEE12__deallocateEPNS_11__hash_nodeISA_PvEE, 
                        __ZNSt3__112__hash_tableINS_17__hash_value_typeIiNS_10shared_ptrIN8GPUTools2SM2GL13ProgramObjectINS3_24AnnotatedBaseObjectTypesEEEEEEENS_22__unordered_map_hasherIiSA_NS_4hashIiEELb1EEENS_21__unordered_map_equalIiSA_NS_8equal_toIiEELb1EEENS_9allocatorISA_EEE14__erase_uniqueIiEEmRKT_, 
                        __ZNSt3__112__hash_tableINS_17__hash_value_typeIiNS_10shared_ptrIN8GPUTools2SM2GL13ProgramObjectINS3_24AnnotatedBaseObjectTypesEEEEEEENS_22__unordered_map_hasherIiSA_NS_4hashIiEELb1EEENS_21__unordered_map_equalIiSA_NS_8equal_toIiEELb1EEENS_9allocatorISA_EEE4findIiEENS_15__hash_iteratorIPNS_11__hash_nodeISA_PvEEEERKT_, 
                        __ZNSt3__112__hash_tableINS_17__hash_value_typeIiNS_10shared_ptrIN8GPUTools2SM2GL13ProgramObjectINS3_24AnnotatedBaseObjectTypesEEEEEEENS_22__unordered_map_hasherIiSA_NS_4hashIiEELb1EEENS_21__unordered_map_equalIiSA_NS_8equal_toIiEELb1EEENS_9allocatorISA_EEE5eraseENS_21__hash_const_iteratorIPNS_11__hash_nodeISA_PvEEEE, 
                        __ZNSt3__112__hash_tableINS_17__hash_value_typeIiNS_10shared_ptrIN8GPUTools2SM2GL13ProgramObjectINS3_24AnnotatedBaseObjectTypesEEEEEEENS_22__unordered_map_hasherIiSA_NS_4hashIiEELb1EEENS_21__unordered_map_equalIiSA_NS_8equal_toIiEELb1EEENS_9allocatorISA_EEE6rehashEm, 
                        __ZNSt3__112__hash_tableINS_17__hash_value_typeIiNS_10shared_ptrIN8GPUTools2SM2GL13ProgramObjectINS3_24AnnotatedBaseObjectTypesEEEEEEENS_22__unordered_map_hasherIiSA_NS_4hashIiEELb1EEENS_21__unordered_map_equalIiSA_NS_8equal_toIiEELb1EEENS_9allocatorISA_EEE6removeENS_21__hash_const_iteratorIPNS_11__hash_nodeISA_PvEEEE, 
                        __ZNSt3__112__hash_tableINS_17__hash_value_typeIiNS_10shared_ptrIN8GPUTools2SM2GL13ProgramObjectINS3_24AnnotatedBaseObjectTypesEEEEEEENS_22__unordered_map_hasherIiSA_NS_4hashIiEELb1EEENS_21__unordered_map_equalIiSA_NS_8equal_toIiEELb1EEENS_9allocatorISA_EEE8__rehashEm, 
                        __ZNSt3__112__hash_tableINS_17__hash_value_typeIiNS_10shared_ptrIN8GPUTools2SM2GL13ProgramObjectINS3_24AnnotatedBaseObjectTypesEEEEEEENS_22__unordered_map_hasherIiSA_NS_4hashIiEELb1EEENS_21__unordered_map_equalIiSA_NS_8equal_toIiEELb1EEENS_9allocatorISA_EEED2Ev, 
                        __ZNSt3__112__hash_tableINS_17__hash_value_typeIiNS_10shared_ptrIN8GPUTools2SM2GL13SamplerObjectINS3_24AnnotatedBaseObjectTypesEEEEEEENS_22__unordered_map_hasherIiSA_NS_4hashIiEELb1EEENS_21__unordered_map_equalIiSA_NS_8equal_toIiEELb1EEENS_9allocatorISA_EEE12__deallocateEPNS_11__hash_nodeISA_PvEE, 
                        __ZNSt3__112__hash_tableINS_17__hash_value_typeIiNS_10shared_ptrIN8GPUTools2SM2GL13SamplerObjectINS3_24AnnotatedBaseObjectTypesEEEEEEENS_22__unordered_map_hasherIiSA_NS_4hashIiEELb1EEENS_21__unordered_map_equalIiSA_NS_8equal_toIiEELb1EEENS_9allocatorISA_EEE14__erase_uniqueIiEEmRKT_, 
                        __ZNSt3__112__hash_tableINS_17__hash_value_typeIiNS_10shared_ptrIN8GPUTools2SM2GL13SamplerObjectINS3_24AnnotatedBaseObjectTypesEEEEEEENS_22__unordered_map_hasherIiSA_NS_4hashIiEELb1EEENS_21__unordered_map_equalIiSA_NS_8equal_toIiEELb1EEENS_9allocatorISA_EEE4findIiEENS_15__hash_iteratorIPNS_11__hash_nodeISA_PvEEEERKT_, 
                        __ZNSt3__112__hash_tableINS_17__hash_value_typeIiNS_10shared_ptrIN8GPUTools2SM2GL13SamplerObjectINS3_24AnnotatedBaseObjectTypesEEEEEEENS_22__unordered_map_hasherIiSA_NS_4hashIiEELb1EEENS_21__unordered_map_equalIiSA_NS_8equal_toIiEELb1EEENS_9allocatorISA_EEE5eraseENS_21__hash_const_iteratorIPNS_11__hash_nodeISA_PvEEEE, 
                        __ZNSt3__112__hash_tableINS_17__hash_value_typeIiNS_10shared_ptrIN8GPUTools2SM2GL13SamplerObjectINS3_24AnnotatedBaseObjectTypesEEEEEEENS_22__unordered_map_hasherIiSA_NS_4hashIiEELb1EEENS_21__unordered_map_equalIiSA_NS_8equal_toIiEELb1EEENS_9allocatorISA_EEE6rehashEm, 
                        __ZNSt3__112__hash_tableINS_17__hash_value_typeIiNS_10shared_ptrIN8GPUTools2SM2GL13SamplerObjectINS3_24AnnotatedBaseObjectTypesEEEEEEENS_22__unordered_map_hasherIiSA_NS_4hashIiEELb1EEENS_21__unordered_map_equalIiSA_NS_8equal_toIiEELb1EEENS_9allocatorISA_EEE6removeENS_21__hash_const_iteratorIPNS_11__hash_nodeISA_PvEEEE, 
                        __ZNSt3__112__hash_tableINS_17__hash_value_typeIiNS_10shared_ptrIN8GPUTools2SM2GL13SamplerObjectINS3_24AnnotatedBaseObjectTypesEEEEEEENS_22__unordered_map_hasherIiSA_NS_4hashIiEELb1EEENS_21__unordered_map_equalIiSA_NS_8equal_toIiEELb1EEENS_9allocatorISA_EEE8__rehashEm, 
                        __ZNSt3__112__hash_tableINS_17__hash_value_typeIiNS_10shared_ptrIN8GPUTools2SM2GL13SamplerObjectINS3_24AnnotatedBaseObjectTypesEEEEEEENS_22__unordered_map_hasherIiSA_NS_4hashIiEELb1EEENS_21__unordered_map_equalIiSA_NS_8equal_toIiEELb1EEENS_9allocatorISA_EEED2Ev, 
                        __ZNSt3__112__hash_tableINS_17__hash_value_typeIiNS_10shared_ptrIN8GPUTools2SM2GL13TextureObjectINS3_24AnnotatedBaseObjectTypesEEEEEEENS_22__unordered_map_hasherIiSA_NS_4hashIiEELb1EEENS_21__unordered_map_equalIiSA_NS_8equal_toIiEELb1EEENS_9allocatorISA_EEE12__deallocateEPNS_11__hash_nodeISA_PvEE, 
                        __ZNSt3__112__hash_tableINS_17__hash_value_typeIiNS_10shared_ptrIN8GPUTools2SM2GL13TextureObjectINS3_24AnnotatedBaseObjectTypesEEEEEEENS_22__unordered_map_hasherIiSA_NS_4hashIiEELb1EEENS_21__unordered_map_equalIiSA_NS_8equal_toIiEELb1EEENS_9allocatorISA_EEE14__erase_uniqueIiEEmRKT_, 
                        __ZNSt3__112__hash_tableINS_17__hash_value_typeIiNS_10shared_ptrIN8GPUTools2SM2GL13TextureObjectINS3_24AnnotatedBaseObjectTypesEEEEEEENS_22__unordered_map_hasherIiSA_NS_4hashIiEELb1EEENS_21__unordered_map_equalIiSA_NS_8equal_toIiEELb1EEENS_9allocatorISA_EEE4findIiEENS_15__hash_iteratorIPNS_11__hash_nodeISA_PvEEEERKT_, 
                        __ZNSt3__112__hash_tableINS_17__hash_value_typeIiNS_10shared_ptrIN8GPUTools2SM2GL13TextureObjectINS3_24AnnotatedBaseObjectTypesEEEEEEENS_22__unordered_map_hasherIiSA_NS_4hashIiEELb1EEENS_21__unordered_map_equalIiSA_NS_8equal_toIiEELb1EEENS_9allocatorISA_EEE5eraseENS_21__hash_const_iteratorIPNS_11__hash_nodeISA_PvEEEE, 
                        __ZNSt3__112__hash_tableINS_17__hash_value_typeIiNS_10shared_ptrIN8GPUTools2SM2GL13TextureObjectINS3_24AnnotatedBaseObjectTypesEEEEEEENS_22__unordered_map_hasherIiSA_NS_4hashIiEELb1EEENS_21__unordered_map_equalIiSA_NS_8equal_toIiEELb1EEENS_9allocatorISA_EEE6rehashEm, 
                        __ZNSt3__112__hash_tableINS_17__hash_value_typeIiNS_10shared_ptrIN8GPUTools2SM2GL13TextureObjectINS3_24AnnotatedBaseObjectTypesEEEEEEENS_22__unordered_map_hasherIiSA_NS_4hashIiEELb1EEENS_21__unordered_map_equalIiSA_NS_8equal_toIiEELb1EEENS_9allocatorISA_EEE6removeENS_21__hash_const_iteratorIPNS_11__hash_nodeISA_PvEEEE, 
                        __ZNSt3__112__hash_tableINS_17__hash_value_typeIiNS_10shared_ptrIN8GPUTools2SM2GL13TextureObjectINS3_24AnnotatedBaseObjectTypesEEEEEEENS_22__unordered_map_hasherIiSA_NS_4hashIiEELb1EEENS_21__unordered_map_equalIiSA_NS_8equal_toIiEELb1EEENS_9allocatorISA_EEE8__rehashEm, 
                        __ZNSt3__112__hash_tableINS_17__hash_value_typeIiNS_10shared_ptrIN8GPUTools2SM2GL13TextureObjectINS3_24AnnotatedBaseObjectTypesEEEEEEENS_22__unordered_map_hasherIiSA_NS_4hashIiEELb1EEENS_21__unordered_map_equalIiSA_NS_8equal_toIiEELb1EEENS_9allocatorISA_EEED2Ev, 
                        __ZNSt3__112__hash_tableINS_17__hash_value_typeIiNS_10shared_ptrIN8GPUTools2SM2GL17FramebufferObjectINS3_24AnnotatedBaseObjectTypesEEEEEEENS_22__unordered_map_hasherIiSA_NS_4hashIiEELb1EEENS_21__unordered_map_equalIiSA_NS_8equal_toIiEELb1EEENS_9allocatorISA_EEE12__deallocateEPNS_11__hash_nodeISA_PvEE, 
                        __ZNSt3__112__hash_tableINS_17__hash_value_typeIiNS_10shared_ptrIN8GPUTools2SM2GL17FramebufferObjectINS3_24AnnotatedBaseObjectTypesEEEEEEENS_22__unordered_map_hasherIiSA_NS_4hashIiEELb1EEENS_21__unordered_map_equalIiSA_NS_8equal_toIiEELb1EEENS_9allocatorISA_EEE14__erase_uniqueIiEEmRKT_, 
                        __ZNSt3__112__hash_tableINS_17__hash_value_typeIiNS_10shared_ptrIN8GPUTools2SM2GL17FramebufferObjectINS3_24AnnotatedBaseObjectTypesEEEEEEENS_22__unordered_map_hasherIiSA_NS_4hashIiEELb1EEENS_21__unordered_map_equalIiSA_NS_8equal_toIiEELb1EEENS_9allocatorISA_EEE4findIiEENS_15__hash_iteratorIPNS_11__hash_nodeISA_PvEEEERKT_, 
                        __ZNSt3__112__hash_tableINS_17__hash_value_typeIiNS_10shared_ptrIN8GPUTools2SM2GL17FramebufferObjectINS3_24AnnotatedBaseObjectTypesEEEEEEENS_22__unordered_map_hasherIiSA_NS_4hashIiEELb1EEENS_21__unordered_map_equalIiSA_NS_8equal_toIiEELb1EEENS_9allocatorISA_EEE5eraseENS_21__hash_const_iteratorIPNS_11__hash_nodeISA_PvEEEE, 
                        __ZNSt3__112__hash_tableINS_17__hash_value_typeIiNS_10shared_ptrIN8GPUTools2SM2GL17FramebufferObjectINS3_24AnnotatedBaseObjectTypesEEEEEEENS_22__unordered_map_hasherIiSA_NS_4hashIiEELb1EEENS_21__unordered_map_equalIiSA_NS_8equal_toIiEELb1EEENS_9allocatorISA_EEE6rehashEm, 
                        __ZNSt3__112__hash_tableINS_17__hash_value_typeIiNS_10shared_ptrIN8GPUTools2SM2GL17FramebufferObjectINS3_24AnnotatedBaseObjectTypesEEEEEEENS_22__unordered_map_hasherIiSA_NS_4hashIiEELb1EEENS_21__unordered_map_equalIiSA_NS_8equal_toIiEELb1EEENS_9allocatorISA_EEE6removeENS_21__hash_const_iteratorIPNS_11__hash_nodeISA_PvEEEE, 
                        __ZNSt3__112__hash_tableINS_17__hash_value_typeIiNS_10shared_ptrIN8GPUTools2SM2GL17FramebufferObjectINS3_24AnnotatedBaseObjectTypesEEEEEEENS_22__unordered_map_hasherIiSA_NS_4hashIiEELb1EEENS_21__unordered_map_equalIiSA_NS_8equal_toIiEELb1EEENS_9allocatorISA_EEE8__rehashEm, 
                        __ZNSt3__112__hash_tableINS_17__hash_value_typeIiNS_10shared_ptrIN8GPUTools2SM2GL17FramebufferObjectINS3_24AnnotatedBaseObjectTypesEEEEEEENS_22__unordered_map_hasherIiSA_NS_4hashIiEELb1EEENS_21__unordered_map_equalIiSA_NS_8equal_toIiEELb1EEENS_9allocatorISA_EEED2Ev, 
                        __ZNSt3__112__hash_tableINS_17__hash_value_typeIiNS_10shared_ptrIN8GPUTools2SM2GL17VertexArrayObjectINS3_24AnnotatedBaseObjectTypesEEEEEEENS_22__unordered_map_hasherIiSA_NS_4hashIiEELb1EEENS_21__unordered_map_equalIiSA_NS_8equal_toIiEELb1EEENS_9allocatorISA_EEE12__deallocateEPNS_11__hash_nodeISA_PvEE, 
                        __ZNSt3__112__hash_tableINS_17__hash_value_typeIiNS_10shared_ptrIN8GPUTools2SM2GL17VertexArrayObjectINS3_24AnnotatedBaseObjectTypesEEEEEEENS_22__unordered_map_hasherIiSA_NS_4hashIiEELb1EEENS_21__unordered_map_equalIiSA_NS_8equal_toIiEELb1EEENS_9allocatorISA_EEE14__erase_uniqueIiEEmRKT_, 
                        __ZNSt3__112__hash_tableINS_17__hash_value_typeIiNS_10shared_ptrIN8GPUTools2SM2GL17VertexArrayObjectINS3_24AnnotatedBaseObjectTypesEEEEEEENS_22__unordered_map_hasherIiSA_NS_4hashIiEELb1EEENS_21__unordered_map_equalIiSA_NS_8equal_toIiEELb1EEENS_9allocatorISA_EEE4findIiEENS_15__hash_iteratorIPNS_11__hash_nodeISA_PvEEEERKT_, 
                        __ZNSt3__112__hash_tableINS_17__hash_value_typeIiNS_10shared_ptrIN8GPUTools2SM2GL17VertexArrayObjectINS3_24AnnotatedBaseObjectTypesEEEEEEENS_22__unordered_map_hasherIiSA_NS_4hashIiEELb1EEENS_21__unordered_map_equalIiSA_NS_8equal_toIiEELb1EEENS_9allocatorISA_EEE5eraseENS_21__hash_const_iteratorIPNS_11__hash_nodeISA_PvEEEE, 
                        __ZNSt3__112__hash_tableINS_17__hash_value_typeIiNS_10shared_ptrIN8GPUTools2SM2GL17VertexArrayObjectINS3_24AnnotatedBaseObjectTypesEEEEEEENS_22__unordered_map_hasherIiSA_NS_4hashIiEELb1EEENS_21__unordered_map_equalIiSA_NS_8equal_toIiEELb1EEENS_9allocatorISA_EEE6rehashEm, 
                        __ZNSt3__112__hash_tableINS_17__hash_value_typeIiNS_10shared_ptrIN8GPUTools2SM2GL17VertexArrayObjectINS3_24AnnotatedBaseObjectTypesEEEEEEENS_22__unordered_map_hasherIiSA_NS_4hashIiEELb1EEENS_21__unordered_map_equalIiSA_NS_8equal_toIiEELb1EEENS_9allocatorISA_EEE6removeENS_21__hash_const_iteratorIPNS_11__hash_nodeISA_PvEEEE, 
                        __ZNSt3__112__hash_tableINS_17__hash_value_typeIiNS_10shared_ptrIN8GPUTools2SM2GL17VertexArrayObjectINS3_24AnnotatedBaseObjectTypesEEEEEEENS_22__unordered_map_hasherIiSA_NS_4hashIiEELb1EEENS_21__unordered_map_equalIiSA_NS_8equal_toIiEELb1EEENS_9allocatorISA_EEE8__rehashEm, 
                        __ZNSt3__112__hash_tableINS_17__hash_value_typeIiNS_10shared_ptrIN8GPUTools2SM2GL17VertexArrayObjectINS3_24AnnotatedBaseObjectTypesEEEEEEENS_22__unordered_map_hasherIiSA_NS_4hashIiEELb1EEENS_21__unordered_map_equalIiSA_NS_8equal_toIiEELb1EEENS_9allocatorISA_EEED2Ev, 
                        __ZNSt3__112__hash_tableINS_17__hash_value_typeIiNS_10shared_ptrIN8GPUTools2SM2GL18RenderbufferObjectINS3_24AnnotatedBaseObjectTypesEEEEEEENS_22__unordered_map_hasherIiSA_NS_4hashIiEELb1EEENS_21__unordered_map_equalIiSA_NS_8equal_toIiEELb1EEENS_9allocatorISA_EEE12__deallocateEPNS_11__hash_nodeISA_PvEE, 
                        __ZNSt3__112__hash_tableINS_17__hash_value_typeIiNS_10shared_ptrIN8GPUTools2SM2GL18RenderbufferObjectINS3_24AnnotatedBaseObjectTypesEEEEEEENS_22__unordered_map_hasherIiSA_NS_4hashIiEELb1EEENS_21__unordered_map_equalIiSA_NS_8equal_toIiEELb1EEENS_9allocatorISA_EEE14__erase_uniqueIiEEmRKT_, 
                        __ZNSt3__112__hash_tableINS_17__hash_value_typeIiNS_10shared_ptrIN8GPUTools2SM2GL18RenderbufferObjectINS3_24AnnotatedBaseObjectTypesEEEEEEENS_22__unordered_map_hasherIiSA_NS_4hashIiEELb1EEENS_21__unordered_map_equalIiSA_NS_8equal_toIiEELb1EEENS_9allocatorISA_EEE4findIiEENS_15__hash_iteratorIPNS_11__hash_nodeISA_PvEEEERKT_, 
                        __ZNSt3__112__hash_tableINS_17__hash_value_typeIiNS_10shared_ptrIN8GPUTools2SM2GL18RenderbufferObjectINS3_24AnnotatedBaseObjectTypesEEEEEEENS_22__unordered_map_hasherIiSA_NS_4hashIiEELb1EEENS_21__unordered_map_equalIiSA_NS_8equal_toIiEELb1EEENS_9allocatorISA_EEE5eraseENS_21__hash_const_iteratorIPNS_11__hash_nodeISA_PvEEEE, 
                        __ZNSt3__112__hash_tableINS_17__hash_value_typeIiNS_10shared_ptrIN8GPUTools2SM2GL18RenderbufferObjectINS3_24AnnotatedBaseObjectTypesEEEEEEENS_22__unordered_map_hasherIiSA_NS_4hashIiEELb1EEENS_21__unordered_map_equalIiSA_NS_8equal_toIiEELb1EEENS_9allocatorISA_EEE6rehashEm, 
                        __ZNSt3__112__hash_tableINS_17__hash_value_typeIiNS_10shared_ptrIN8GPUTools2SM2GL18RenderbufferObjectINS3_24AnnotatedBaseObjectTypesEEEEEEENS_22__unordered_map_hasherIiSA_NS_4hashIiEELb1EEENS_21__unordered_map_equalIiSA_NS_8equal_toIiEELb1EEENS_9allocatorISA_EEE6removeENS_21__hash_const_iteratorIPNS_11__hash_nodeISA_PvEEEE, 
                        __ZNSt3__112__hash_tableINS_17__hash_value_typeIiNS_10shared_ptrIN8GPUTools2SM2GL18RenderbufferObjectINS3_24AnnotatedBaseObjectTypesEEEEEEENS_22__unordered_map_hasherIiSA_NS_4hashIiEELb1EEENS_21__unordered_map_equalIiSA_NS_8equal_toIiEELb1EEENS_9allocatorISA_EEE8__rehashEm, 
                        __ZNSt3__112__hash_tableINS_17__hash_value_typeIiNS_10shared_ptrIN8GPUTools2SM2GL18RenderbufferObjectINS3_24AnnotatedBaseObjectTypesEEEEEEENS_22__unordered_map_hasherIiSA_NS_4hashIiEELb1EEENS_21__unordered_map_equalIiSA_NS_8equal_toIiEELb1EEENS_9allocatorISA_EEED2Ev, 
                        __ZNSt3__112__hash_tableINS_17__hash_value_typeIiNS_10shared_ptrIN8GPUTools2SM2GL21ProgramPipelineObjectINS3_24AnnotatedBaseObjectTypesEEEEEEENS_22__unordered_map_hasherIiSA_NS_4hashIiEELb1EEENS_21__unordered_map_equalIiSA_NS_8equal_toIiEELb1EEENS_9allocatorISA_EEE12__deallocateEPNS_11__hash_nodeISA_PvEE, 
                        __ZNSt3__112__hash_tableINS_17__hash_value_typeIiNS_10shared_ptrIN8GPUTools2SM2GL21ProgramPipelineObjectINS3_24AnnotatedBaseObjectTypesEEEEEEENS_22__unordered_map_hasherIiSA_NS_4hashIiEELb1EEENS_21__unordered_map_equalIiSA_NS_8equal_toIiEELb1EEENS_9allocatorISA_EEE14__erase_uniqueIiEEmRKT_, 
                        __ZNSt3__112__hash_tableINS_17__hash_value_typeIiNS_10shared_ptrIN8GPUTools2SM2GL21ProgramPipelineObjectINS3_24AnnotatedBaseObjectTypesEEEEEEENS_22__unordered_map_hasherIiSA_NS_4hashIiEELb1EEENS_21__unordered_map_equalIiSA_NS_8equal_toIiEELb1EEENS_9allocatorISA_EEE4findIiEENS_15__hash_iteratorIPNS_11__hash_nodeISA_PvEEEERKT_, 
                        __ZNSt3__112__hash_tableINS_17__hash_value_typeIiNS_10shared_ptrIN8GPUTools2SM2GL21ProgramPipelineObjectINS3_24AnnotatedBaseObjectTypesEEEEEEENS_22__unordered_map_hasherIiSA_NS_4hashIiEELb1EEENS_21__unordered_map_equalIiSA_NS_8equal_toIiEELb1EEENS_9allocatorISA_EEE5eraseENS_21__hash_const_iteratorIPNS_11__hash_nodeISA_PvEEEE, 
                        __ZNSt3__112__hash_tableINS_17__hash_value_typeIiNS_10shared_ptrIN8GPUTools2SM2GL21ProgramPipelineObjectINS3_24AnnotatedBaseObjectTypesEEEEEEENS_22__unordered_map_hasherIiSA_NS_4hashIiEELb1EEENS_21__unordered_map_equalIiSA_NS_8equal_toIiEELb1EEENS_9allocatorISA_EEE6rehashEm, 
                        __ZNSt3__112__hash_tableINS_17__hash_value_typeIiNS_10shared_ptrIN8GPUTools2SM2GL21ProgramPipelineObjectINS3_24AnnotatedBaseObjectTypesEEEEEEENS_22__unordered_map_hasherIiSA_NS_4hashIiEELb1EEENS_21__unordered_map_equalIiSA_NS_8equal_toIiEELb1EEENS_9allocatorISA_EEE6removeENS_21__hash_const_iteratorIPNS_11__hash_nodeISA_PvEEEE, 
                        __ZNSt3__112__hash_tableINS_17__hash_value_typeIiNS_10shared_ptrIN8GPUTools2SM2GL21ProgramPipelineObjectINS3_24AnnotatedBaseObjectTypesEEEEEEENS_22__unordered_map_hasherIiSA_NS_4hashIiEELb1EEENS_21__unordered_map_equalIiSA_NS_8equal_toIiEELb1EEENS_9allocatorISA_EEE8__rehashEm, 
                        __ZNSt3__112__hash_tableINS_17__hash_value_typeIiNS_10shared_ptrIN8GPUTools2SM2GL21ProgramPipelineObjectINS3_24AnnotatedBaseObjectTypesEEEEEEENS_22__unordered_map_hasherIiSA_NS_4hashIiEELb1EEENS_21__unordered_map_equalIiSA_NS_8equal_toIiEELb1EEENS_9allocatorISA_EEED2Ev, 
                        __ZNSt3__112__hash_tableINS_17__hash_value_typeIiNS_10shared_ptrIN8GPUTools2SM2GL23TransformFeedbackObjectINS3_24AnnotatedBaseObjectTypesEEEEEEENS_22__unordered_map_hasherIiSA_NS_4hashIiEELb1EEENS_21__unordered_map_equalIiSA_NS_8equal_toIiEELb1EEENS_9allocatorISA_EEE12__deallocateEPNS_11__hash_nodeISA_PvEE, 
                        __ZNSt3__112__hash_tableINS_17__hash_value_typeIiNS_10shared_ptrIN8GPUTools2SM2GL23TransformFeedbackObjectINS3_24AnnotatedBaseObjectTypesEEEEEEENS_22__unordered_map_hasherIiSA_NS_4hashIiEELb1EEENS_21__unordered_map_equalIiSA_NS_8equal_toIiEELb1EEENS_9allocatorISA_EEE14__erase_uniqueIiEEmRKT_, 
                        __ZNSt3__112__hash_tableINS_17__hash_value_typeIiNS_10shared_ptrIN8GPUTools2SM2GL23TransformFeedbackObjectINS3_24AnnotatedBaseObjectTypesEEEEEEENS_22__unordered_map_hasherIiSA_NS_4hashIiEELb1EEENS_21__unordered_map_equalIiSA_NS_8equal_toIiEELb1EEENS_9allocatorISA_EEE4findIiEENS_15__hash_iteratorIPNS_11__hash_nodeISA_PvEEEERKT_, 
                        __ZNSt3__112__hash_tableINS_17__hash_value_typeIiNS_10shared_ptrIN8GPUTools2SM2GL23TransformFeedbackObjectINS3_24AnnotatedBaseObjectTypesEEEEEEENS_22__unordered_map_hasherIiSA_NS_4hashIiEELb1EEENS_21__unordered_map_equalIiSA_NS_8equal_toIiEELb1EEENS_9allocatorISA_EEE5eraseENS_21__hash_const_iteratorIPNS_11__hash_nodeISA_PvEEEE, 
                        __ZNSt3__112__hash_tableINS_17__hash_value_typeIiNS_10shared_ptrIN8GPUTools2SM2GL23TransformFeedbackObjectINS3_24AnnotatedBaseObjectTypesEEEEEEENS_22__unordered_map_hasherIiSA_NS_4hashIiEELb1EEENS_21__unordered_map_equalIiSA_NS_8equal_toIiEELb1EEENS_9allocatorISA_EEE6rehashEm, 
                        __ZNSt3__112__hash_tableINS_17__hash_value_typeIiNS_10shared_ptrIN8GPUTools2SM2GL23TransformFeedbackObjectINS3_24AnnotatedBaseObjectTypesEEEEEEENS_22__unordered_map_hasherIiSA_NS_4hashIiEELb1EEENS_21__unordered_map_equalIiSA_NS_8equal_toIiEELb1EEENS_9allocatorISA_EEE6removeENS_21__hash_const_iteratorIPNS_11__hash_nodeISA_PvEEEE, 
                        __ZNSt3__112__hash_tableINS_17__hash_value_typeIiNS_10shared_ptrIN8GPUTools2SM2GL23TransformFeedbackObjectINS3_24AnnotatedBaseObjectTypesEEEEEEENS_22__unordered_map_hasherIiSA_NS_4hashIiEELb1EEENS_21__unordered_map_equalIiSA_NS_8equal_toIiEELb1EEENS_9allocatorISA_EEE8__rehashEm, 
                        __ZNSt3__112__hash_tableINS_17__hash_value_typeIiNS_10shared_ptrIN8GPUTools2SM2GL23TransformFeedbackObjectINS3_24AnnotatedBaseObjectTypesEEEEEEENS_22__unordered_map_hasherIiSA_NS_4hashIiEELb1EEENS_21__unordered_map_equalIiSA_NS_8equal_toIiEELb1EEENS_9allocatorISA_EEED2Ev, 
                        __ZNSt3__112__hash_tableINS_17__hash_value_typeIiiEENS_22__unordered_map_hasherIiS2_NS_4hashIiEELb1EEENS_21__unordered_map_equalIiS2_NS_8equal_toIiEELb1EEENS_9allocatorIS2_EEE14__erase_uniqueIiEEmRKT_, 
                        __ZNSt3__112__hash_tableINS_17__hash_value_typeIiiEENS_22__unordered_map_hasherIiS2_NS_4hashIiEELb1EEENS_21__unordered_map_equalIiS2_NS_8equal_toIiEELb1EEENS_9allocatorIS2_EEE4findIiEENS_15__hash_iteratorIPNS_11__hash_nodeIS2_PvEEEERKT_, 
                        __ZNSt3__112__hash_tableINS_17__hash_value_typeIiiEENS_22__unordered_map_hasherIiS2_NS_4hashIiEELb1EEENS_21__unordered_map_equalIiS2_NS_8equal_toIiEELb1EEENS_9allocatorIS2_EEE5eraseENS_21__hash_const_iteratorIPNS_11__hash_nodeIS2_PvEEEE, 
                        __ZNSt3__112__hash_tableINS_17__hash_value_typeIiiEENS_22__unordered_map_hasherIiS2_NS_4hashIiEELb1EEENS_21__unordered_map_equalIiS2_NS_8equal_toIiEELb1EEENS_9allocatorIS2_EEE6rehashEm, 
                        __ZNSt3__112__hash_tableINS_17__hash_value_typeIiiEENS_22__unordered_map_hasherIiS2_NS_4hashIiEELb1EEENS_21__unordered_map_equalIiS2_NS_8equal_toIiEELb1EEENS_9allocatorIS2_EEE6removeENS_21__hash_const_iteratorIPNS_11__hash_nodeIS2_PvEEEE, 
                        __ZNSt3__112__hash_tableINS_17__hash_value_typeIiiEENS_22__unordered_map_hasherIiS2_NS_4hashIiEELb1EEENS_21__unordered_map_equalIiS2_NS_8equal_toIiEELb1EEENS_9allocatorIS2_EEE8__rehashEm, 
                        __ZNSt3__112__hash_tableINS_17__hash_value_typeIiiEENS_22__unordered_map_hasherIiS2_NS_4hashIiEELb1EEENS_21__unordered_map_equalIiS2_NS_8equal_toIiEELb1EEENS_9allocatorIS2_EEED2Ev, 
                        __ZNSt3__112__hash_tableINS_17__hash_value_typeIyNS_3setIyNS_4lessIyEENS_9allocatorIyEEEEEENS_22__unordered_map_hasherIyS8_NS_4hashIyEELb1EEENS_21__unordered_map_equalIyS8_NS_8equal_toIyEELb1EEENS5_IS8_EEE12__deallocateEPNS_11__hash_nodeIS8_PvEE, 
                        __ZNSt3__112__hash_tableINS_17__hash_value_typeIyNS_3setIyNS_4lessIyEENS_9allocatorIyEEEEEENS_22__unordered_map_hasherIyS8_NS_4hashIyEELb1EEENS_21__unordered_map_equalIyS8_NS_8equal_toIyEELb1EEENS5_IS8_EEE4findIyEENS_15__hash_iteratorIPNS_11__hash_nodeIS8_PvEEEERKT_, 
                        __ZNSt3__112__hash_tableINS_17__hash_value_typeIyNS_3setIyNS_4lessIyEENS_9allocatorIyEEEEEENS_22__unordered_map_hasherIyS8_NS_4hashIyEELb1EEENS_21__unordered_map_equalIyS8_NS_8equal_toIyEELb1EEENS5_IS8_EEE5clearEv, 
                        __ZNSt3__112__hash_tableINS_17__hash_value_typeIyNS_3setIyNS_4lessIyEENS_9allocatorIyEEEEEENS_22__unordered_map_hasherIyS8_NS_4hashIyEELb1EEENS_21__unordered_map_equalIyS8_NS_8equal_toIyEELb1EEENS5_IS8_EEE6rehashEm, 
                        __ZNSt3__112__hash_tableINS_17__hash_value_typeIyNS_3setIyNS_4lessIyEENS_9allocatorIyEEEEEENS_22__unordered_map_hasherIyS8_NS_4hashIyEELb1EEENS_21__unordered_map_equalIyS8_NS_8equal_toIyEELb1EEENS5_IS8_EEE8__rehashEm, 
                        __ZNSt3__112__hash_tableINS_17__hash_value_typeIyNS_3setIyNS_4lessIyEENS_9allocatorIyEEEEEENS_22__unordered_map_hasherIyS8_NS_4hashIyEELb1EEENS_21__unordered_map_equalIyS8_NS_8equal_toIyEELb1EEENS5_IS8_EEED2Ev, 
                        __ZNSt3__112__hash_tableINS_17__hash_value_typeIyNS_6vectorINS_10shared_ptrIN8GPUTools21AnnotatedDrawCallInfoEEENS_9allocatorIS6_EEEEEENS_22__unordered_map_hasherIySA_NS_4hashIyEELb1EEENS_21__unordered_map_equalIySA_NS_8equal_toIyEELb1EEENS7_ISA_EEE12__deallocateEPNS_11__hash_nodeISA_PvEE, 
                        __ZNSt3__112__hash_tableINS_17__hash_value_typeIyNS_6vectorINS_10shared_ptrIN8GPUTools21AnnotatedDrawCallInfoEEENS_9allocatorIS6_EEEEEENS_22__unordered_map_hasherIySA_NS_4hashIyEELb1EEENS_21__unordered_map_equalIySA_NS_8equal_toIyEELb1EEENS7_ISA_EEE6rehashEm, 
                        __ZNSt3__112__hash_tableINS_17__hash_value_typeIyNS_6vectorINS_10shared_ptrIN8GPUTools21AnnotatedDrawCallInfoEEENS_9allocatorIS6_EEEEEENS_22__unordered_map_hasherIySA_NS_4hashIyEELb1EEENS_21__unordered_map_equalIySA_NS_8equal_toIyEELb1EEENS7_ISA_EEE8__rehashEm, 
                        __ZNSt3__112__hash_tableINS_17__hash_value_typeIyNS_6vectorINS_10shared_ptrIN8GPUTools21AnnotatedDrawCallInfoEEENS_9allocatorIS6_EEEEEENS_22__unordered_map_hasherIySA_NS_4hashIyEELb1EEENS_21__unordered_map_equalIySA_NS_8equal_toIyEELb1EEENS7_ISA_EEED2Ev, 
                        __ZNSt3__112__hash_tableINS_17__hash_value_typeIyPN8GPUTools2SM2GL18ContextStateMirrorINS2_24AnnotatedBaseObjectTypesEEEEENS_22__unordered_map_hasherIyS9_NS_4hashIyEELb1EEENS_21__unordered_map_equalIyS9_NS_8equal_toIyEELb1EEENS_9allocatorIS9_EEE4findIyEENS_15__hash_iteratorIPNS_11__hash_nodeIS9_PvEEEERKT_, 
                        __ZNSt3__112__hash_tableINS_17__hash_value_typeIyPN8GPUTools2SM2GL18ContextStateMirrorINS2_24AnnotatedBaseObjectTypesEEEEENS_22__unordered_map_hasherIyS9_NS_4hashIyEELb1EEENS_21__unordered_map_equalIyS9_NS_8equal_toIyEELb1EEENS_9allocatorIS9_EEE5clearEv, 
                        __ZNSt3__112__hash_tableINS_17__hash_value_typeIyPN8GPUTools2SM2GL18ContextStateMirrorINS2_24AnnotatedBaseObjectTypesEEEEENS_22__unordered_map_hasherIyS9_NS_4hashIyEELb1EEENS_21__unordered_map_equalIyS9_NS_8equal_toIyEELb1EEENS_9allocatorIS9_EEE6rehashEm, 
                        __ZNSt3__112__hash_tableINS_17__hash_value_typeIyPN8GPUTools2SM2GL18ContextStateMirrorINS2_24AnnotatedBaseObjectTypesEEEEENS_22__unordered_map_hasherIyS9_NS_4hashIyEELb1EEENS_21__unordered_map_equalIyS9_NS_8equal_toIyEELb1EEENS_9allocatorIS9_EEE8__rehashEm, 
                        __ZNSt3__112__hash_tableINS_17__hash_value_typeIyPN8GPUTools2SM2GL18ContextStateMirrorINS2_24AnnotatedBaseObjectTypesEEEEENS_22__unordered_map_hasherIyS9_NS_4hashIyEELb1EEENS_21__unordered_map_equalIyS9_NS_8equal_toIyEELb1EEENS_9allocatorIS9_EEED2Ev, 
                        __ZNSt3__112__hash_tableINS_17__hash_value_typeIyPN8GPUTools2SM2GL21SharegroupStateMirrorINS2_24AnnotatedBaseObjectTypesEEEEENS_22__unordered_map_hasherIyS9_NS_4hashIyEELb1EEENS_21__unordered_map_equalIyS9_NS_8equal_toIyEELb1EEENS_9allocatorIS9_EEE4findIyEENS_15__hash_iteratorIPNS_11__hash_nodeIS9_PvEEEERKT_, 
                        __ZNSt3__112__hash_tableINS_17__hash_value_typeIyPN8GPUTools2SM2GL21SharegroupStateMirrorINS2_24AnnotatedBaseObjectTypesEEEEENS_22__unordered_map_hasherIyS9_NS_4hashIyEELb1EEENS_21__unordered_map_equalIyS9_NS_8equal_toIyEELb1EEENS_9allocatorIS9_EEE5clearEv, 
                        __ZNSt3__112__hash_tableINS_17__hash_value_typeIyPN8GPUTools2SM2GL21SharegroupStateMirrorINS2_24AnnotatedBaseObjectTypesEEEEENS_22__unordered_map_hasherIyS9_NS_4hashIyEELb1EEENS_21__unordered_map_equalIyS9_NS_8equal_toIyEELb1EEENS_9allocatorIS9_EEE6rehashEm, 
                        __ZNSt3__112__hash_tableINS_17__hash_value_typeIyPN8GPUTools2SM2GL21SharegroupStateMirrorINS2_24AnnotatedBaseObjectTypesEEEEENS_22__unordered_map_hasherIyS9_NS_4hashIyEELb1EEENS_21__unordered_map_equalIyS9_NS_8equal_toIyEELb1EEENS_9allocatorIS9_EEE8__rehashEm, 
                        __ZNSt3__112__hash_tableINS_17__hash_value_typeIyPN8GPUTools2SM2GL21SharegroupStateMirrorINS2_24AnnotatedBaseObjectTypesEEEEENS_22__unordered_map_hasherIyS9_NS_4hashIyEELb1EEENS_21__unordered_map_equalIyS9_NS_8equal_toIyEELb1EEENS_9allocatorIS9_EEED2Ev, 
                        __ZNSt3__112__hash_tableINS_17__hash_value_typeIyiEENS_22__unordered_map_hasherIyS2_NS_4hashIyEELb1EEENS_21__unordered_map_equalIyS2_NS_8equal_toIyEELb1EEENS_9allocatorIS2_EEE4findIyEENS_15__hash_iteratorIPNS_11__hash_nodeIS2_PvEEEERKT_, 
                        __ZNSt3__112__hash_tableINS_17__hash_value_typeIyiEENS_22__unordered_map_hasherIyS2_NS_4hashIyEELb1EEENS_21__unordered_map_equalIyS2_NS_8equal_toIyEELb1EEENS_9allocatorIS2_EEE6rehashEm, 
                        __ZNSt3__112__hash_tableINS_17__hash_value_typeIyiEENS_22__unordered_map_hasherIyS2_NS_4hashIyEELb1EEENS_21__unordered_map_equalIyS2_NS_8equal_toIyEELb1EEENS_9allocatorIS2_EEE8__rehashEm, 
                        __ZNSt3__112__hash_tableINS_17__hash_value_typeIyiEENS_22__unordered_map_hasherIyS2_NS_4hashIyEELb1EEENS_21__unordered_map_equalIyS2_NS_8equal_toIyEELb1EEENS_9allocatorIS2_EEED2Ev, 
                        __ZNSt3__112__hash_tableIiNS_4hashIiEENS_8equal_toIiEENS_9allocatorIiEEE4findIiEENS_15__hash_iteratorIPNS_11__hash_nodeIiPvEEEERKT_, 
                        __ZNSt3__112__hash_tableIiNS_4hashIiEENS_8equal_toIiEENS_9allocatorIiEEE8__rehashEm, 
                        __ZNSt3__112__hash_tableIjNS_4hashIjEENS_8equal_toIjEENS_9allocatorIjEEE4findIjEENS_15__hash_iteratorIPNS_11__hash_nodeIjPvEEEERKT_, 
                        __ZNSt3__112__hash_tableIjNS_4hashIjEENS_8equal_toIjEENS_9allocatorIjEEE5clearEv, 
                        __ZNSt3__112__hash_tableIjNS_4hashIjEENS_8equal_toIjEENS_9allocatorIjEEE6rehashEm, 
                        __ZNSt3__112__hash_tableIjNS_4hashIjEENS_8equal_toIjEENS_9allocatorIjEEE8__rehashEm, 
                        __ZNSt3__112__hash_tableIjNS_4hashIjEENS_8equal_toIjEENS_9allocatorIjEEED2Ev, 
                        __ZNSt3__112basic_stringIcNS_11char_traitsIcEENS_9allocatorIcEEE6__initIPcEENS_9enable_ifIXsr21__is_forward_iteratorIT_EE5valueEvE4typeES9_S9_, 
                        __ZNSt3__113__tree_removeIPNS_16__tree_node_baseIPvEEEEvT_S5_, 
                        __ZNSt3__113__vector_baseI5DYMtxNS_9allocatorIS1_EEED2Ev, 
                        __ZNSt3__113__vector_baseIN8GPUTools2SM2GL12TextureLayerINS1_24AnnotatedBaseObjectTypesEEENS_9allocatorIS6_EEED2Ev, 
                        __ZNSt3__113__vector_baseIN8GPUTools2SM2GL14ProgramUniformINS1_24AnnotatedBaseObjectTypesEEENS_9allocatorIS6_EEED2Ev, 
                        __ZNSt3__113__vector_baseINS_10shared_ptrIN8GPUTools21AnnotatedDrawCallInfoEEENS_9allocatorIS4_EEED2Ev, 
                        __ZNSt3__113__vector_baseINS_12basic_stringIcNS_11char_traitsIcEENS_9allocatorIcEEEENS4_IS6_EEED2Ev, 
                        __ZNSt3__113__vector_baseIdNS_9allocatorIdEEED2Ev, 
                        __ZNSt3__113__vector_baseIiNS_9allocatorIiEEED2Ev, 
                        __ZNSt3__113unordered_mapIN8GPUTools14DYTexObjectKeyENS1_19DYCoverageElement3DENS1_18DYTexObjectKeyHashENS_8equal_toIS2_EENS_9allocatorINS_4pairIKS2_S3_EEEEEixERS9_, 
                        __ZNSt3__113unordered_mapINS_12basic_stringIcNS_11char_traitsIcEENS_9allocatorIcEEEEiNS_4hashIS6_EENS_8equal_toIS6_EENS4_INS_4pairIKS6_iEEEEEC2ERKSF_, 
                        __ZNSt3__113unordered_mapINS_12basic_stringIcNS_11char_traitsIcEENS_9allocatorIcEEEEiNS_4hashIS6_EENS_8equal_toIS6_EENS4_INS_4pairIKS6_iEEEEEixERSC_, 
                        __ZNSt3__113unordered_mapIiN8GPUTools19DYCoverageElement1DENS_4hashIiEENS_8equal_toIiEENS_9allocatorINS_4pairIKiS2_EEEEEixERS9_, 
                        __ZNSt3__113unordered_mapIiN8GPUTools19DYCoverageElement2DENS_4hashIiEENS_8equal_toIiEENS_9allocatorINS_4pairIKiS2_EEEEEixERS9_, 
                        __ZNSt3__113unordered_mapIiN8GPUTools2SM2GL12TextureLevelINS1_24AnnotatedBaseObjectTypesEEENS_4hashIiEENS_8equal_toIiEENS_9allocatorINS_4pairIKiS6_EEEEEC2ERKSG_, 
                        __ZNSt3__113unordered_mapIiN8GPUTools2SM2GL12TextureLevelINS1_24AnnotatedBaseObjectTypesEEENS_4hashIiEENS_8equal_toIiEENS_9allocatorINS_4pairIKiS6_EEEEEixERSD_, 
                        __ZNSt3__113unordered_mapIiN8GPUTools2SM2GL13ProgramAttribINS1_24AnnotatedBaseObjectTypesEEENS_4hashIiEENS_8equal_toIiEENS_9allocatorINS_4pairIKiS6_EEEEEC2ERKSG_, 
                        __ZNSt3__113unordered_mapIiN8GPUTools2SM2GL13ProgramAttribINS1_24AnnotatedBaseObjectTypesEEENS_4hashIiEENS_8equal_toIiEENS_9allocatorINS_4pairIKiS6_EEEEEixERSD_, 
                        __ZNSt3__113unordered_mapIiN8GPUTools2SM2GL14ProgramUniformINS1_24AnnotatedBaseObjectTypesEEENS_4hashIiEENS_8equal_toIiEENS_9allocatorINS_4pairIKiS6_EEEEEC2ERKSG_, 
                        __ZNSt3__113unordered_mapIiN8GPUTools2SM2GL14ProgramUniformINS1_24AnnotatedBaseObjectTypesEEENS_4hashIiEENS_8equal_toIiEENS_9allocatorINS_4pairIKiS6_EEEEEixERSD_, 
                        __ZNSt3__113unordered_mapIiN8GPUTools2SM2GL19ProgramUniformBlockINS1_24AnnotatedBaseObjectTypesEEENS_4hashIiEENS_8equal_toIiEENS_9allocatorINS_4pairIKiS6_EEEEEC2ERKSG_, 
                        __ZNSt3__113unordered_mapIiN8GPUTools2SM2GL19ProgramUniformBlockINS1_24AnnotatedBaseObjectTypesEEENS_4hashIiEENS_8equal_toIiEENS_9allocatorINS_4pairIKiS6_EEEEEixEOi, 
                        __ZNSt3__113unordered_mapIiN8GPUTools2SM2GL19ProgramUniformBlockINS1_24AnnotatedBaseObjectTypesEEENS_4hashIiEENS_8equal_toIiEENS_9allocatorINS_4pairIKiS6_EEEEEixERSD_, 
                        __ZNSt3__113unordered_mapIiN8GPUTools2SM2GL31ProgramTransformFeedbackVaryingINS1_24AnnotatedBaseObjectTypesEEENS_4hashIiEENS_8equal_toIiEENS_9allocatorINS_4pairIKiS6_EEEEEC2ERKSG_, 
                        __ZNSt3__113unordered_mapIiN8GPUTools2SM2GL31ProgramTransformFeedbackVaryingINS1_24AnnotatedBaseObjectTypesEEENS_4hashIiEENS_8equal_toIiEENS_9allocatorINS_4pairIKiS6_EEEEEixERSD_, 
                        __ZNSt3__113unordered_mapIiNS_10shared_ptrIN8GPUTools2SM2GL10SyncObjectINS2_24AnnotatedBaseObjectTypesEEEEENS_4hashIiEENS_8equal_toIiEENS_9allocatorINS_4pairIKiS8_EEEEEixERSF_, 
                        __ZNSt3__113unordered_mapIiNS_10shared_ptrIN8GPUTools2SM2GL11QueryObjectINS2_24AnnotatedBaseObjectTypesEEEEENS_4hashIiEENS_8equal_toIiEENS_9allocatorINS_4pairIKiS8_EEEEEixERSF_, 
                        __ZNSt3__113unordered_mapIiNS_10shared_ptrIN8GPUTools2SM2GL12BufferObjectINS2_24AnnotatedBaseObjectTypesEEEEENS_4hashIiEENS_8equal_toIiEENS_9allocatorINS_4pairIKiS8_EEEEEixERSF_, 
                        __ZNSt3__113unordered_mapIiNS_10shared_ptrIN8GPUTools2SM2GL12DrawableInfoINS2_24AnnotatedBaseObjectTypesEEEEENS_4hashIiEENS_8equal_toIiEENS_9allocatorINS_4pairIKiS8_EEEEEixERSF_, 
                        __ZNSt3__113unordered_mapIiNS_10shared_ptrIN8GPUTools2SM2GL12ShaderObjectINS2_24AnnotatedBaseObjectTypesEEEEENS_4hashIiEENS_8equal_toIiEENS_9allocatorINS_4pairIKiS8_EEEEEixERSF_, 
                        __ZNSt3__113unordered_mapIiNS_10shared_ptrIN8GPUTools2SM2GL13ProgramObjectINS2_24AnnotatedBaseObjectTypesEEEEENS_4hashIiEENS_8equal_toIiEENS_9allocatorINS_4pairIKiS8_EEEEEixERSF_, 
                        __ZNSt3__113unordered_mapIiNS_10shared_ptrIN8GPUTools2SM2GL13SamplerObjectINS2_24AnnotatedBaseObjectTypesEEEEENS_4hashIiEENS_8equal_toIiEENS_9allocatorINS_4pairIKiS8_EEEEEixERSF_, 
                        __ZNSt3__113unordered_mapIiNS_10shared_ptrIN8GPUTools2SM2GL13TextureObjectINS2_24AnnotatedBaseObjectTypesEEEEENS_4hashIiEENS_8equal_toIiEENS_9allocatorINS_4pairIKiS8_EEEEEixEOi, 
                        __ZNSt3__113unordered_mapIiNS_10shared_ptrIN8GPUTools2SM2GL13TextureObjectINS2_24AnnotatedBaseObjectTypesEEEEENS_4hashIiEENS_8equal_toIiEENS_9allocatorINS_4pairIKiS8_EEEEEixERSF_, 
                        __ZNSt3__113unordered_mapIiNS_10shared_ptrIN8GPUTools2SM2GL17FramebufferObjectINS2_24AnnotatedBaseObjectTypesEEEEENS_4hashIiEENS_8equal_toIiEENS_9allocatorINS_4pairIKiS8_EEEEEixERSF_, 
                        __ZNSt3__113unordered_mapIiNS_10shared_ptrIN8GPUTools2SM2GL17VertexArrayObjectINS2_24AnnotatedBaseObjectTypesEEEEENS_4hashIiEENS_8equal_toIiEENS_9allocatorINS_4pairIKiS8_EEEEEixEOi, 
                        __ZNSt3__113unordered_mapIiNS_10shared_ptrIN8GPUTools2SM2GL17VertexArrayObjectINS2_24AnnotatedBaseObjectTypesEEEEENS_4hashIiEENS_8equal_toIiEENS_9allocatorINS_4pairIKiS8_EEEEEixERSF_, 
                        __ZNSt3__113unordered_mapIiNS_10shared_ptrIN8GPUTools2SM2GL18RenderbufferObjectINS2_24AnnotatedBaseObjectTypesEEEEENS_4hashIiEENS_8equal_toIiEENS_9allocatorINS_4pairIKiS8_EEEEEixERSF_, 
                        __ZNSt3__113unordered_mapIiNS_10shared_ptrIN8GPUTools2SM2GL21ProgramPipelineObjectINS2_24AnnotatedBaseObjectTypesEEEEENS_4hashIiEENS_8equal_toIiEENS_9allocatorINS_4pairIKiS8_EEEEEixERSF_, 
                        __ZNSt3__113unordered_mapIiNS_10shared_ptrIN8GPUTools2SM2GL23TransformFeedbackObjectINS2_24AnnotatedBaseObjectTypesEEEEENS_4hashIiEENS_8equal_toIiEENS_9allocatorINS_4pairIKiS8_EEEEEixEOi, 
                        __ZNSt3__113unordered_mapIiNS_10shared_ptrIN8GPUTools2SM2GL23TransformFeedbackObjectINS2_24AnnotatedBaseObjectTypesEEEEENS_4hashIiEENS_8equal_toIiEENS_9allocatorINS_4pairIKiS8_EEEEEixERSF_, 
                        __ZNSt3__113unordered_mapIiiNS_4hashIiEENS_8equal_toIiEENS_9allocatorINS_4pairIKiiEEEEEixEOi, 
                        __ZNSt3__113unordered_mapIiiNS_4hashIiEENS_8equal_toIiEENS_9allocatorINS_4pairIKiiEEEEEixERS7_, 
                        __ZNSt3__113unordered_mapIyNS_3setIyNS_4lessIyEENS_9allocatorIyEEEENS_4hashIyEENS_8equal_toIyEENS4_INS_4pairIKyS6_EEEEEixERSC_, 
                        __ZNSt3__113unordered_mapIyNS_6vectorINS_10shared_ptrIN8GPUTools21AnnotatedDrawCallInfoEEENS_9allocatorIS5_EEEENS_4hashIyEENS_8equal_toIyEENS6_INS_4pairIKyS8_EEEEEixEOy, 
                        __ZNSt3__113unordered_mapIyiNS_4hashIyEENS_8equal_toIyEENS_9allocatorINS_4pairIKyiEEEEEixERS7_, 
                        __ZNSt3__114__split_bufferIN8GPUTools2SM2GL12TextureLayerINS1_24AnnotatedBaseObjectTypesEEERNS_9allocatorIS6_EEED2Ev, 
                        __ZNSt3__114__split_bufferIN8GPUTools2SM2GL14ProgramUniformINS1_24AnnotatedBaseObjectTypesEEERNS_9allocatorIS6_EEED2Ev, 
                        __ZNSt3__114__split_bufferINS_10shared_ptrIN8GPUTools21AnnotatedDrawCallInfoEEERNS_9allocatorIS4_EEED2Ev, 
                        __ZNSt3__114__split_bufferINS_12basic_stringIcNS_11char_traitsIcEENS_9allocatorIcEEEERNS4_IS6_EEED2Ev, 
                        __ZNSt3__115basic_stringbufIcNS_11char_traitsIcEENS_9allocatorIcEEE3strERKNS_12basic_stringIcS2_S4_EE, 
                        __ZNSt3__115basic_stringbufIcNS_11char_traitsIcEENS_9allocatorIcEEE7seekoffExNS_8ios_base7seekdirEj, 
                        __ZNSt3__115basic_stringbufIcNS_11char_traitsIcEENS_9allocatorIcEEE7seekposENS_4fposI11__mbstate_tEEj, 
                        __ZNSt3__115basic_stringbufIcNS_11char_traitsIcEENS_9allocatorIcEEE8overflowEi, 
                        __ZNSt3__115basic_stringbufIcNS_11char_traitsIcEENS_9allocatorIcEEE9pbackfailEi, 
                        __ZNSt3__115basic_stringbufIcNS_11char_traitsIcEENS_9allocatorIcEEE9underflowEv, 
                        __ZNSt3__115basic_stringbufIcNS_11char_traitsIcEENS_9allocatorIcEEED0Ev, 
                        __ZNSt3__115basic_stringbufIcNS_11char_traitsIcEENS_9allocatorIcEEED1Ev, 
                        __ZNSt3__116__pad_and_outputIcNS_11char_traitsIcEEEENS_19ostreambuf_iteratorIT_T0_EES6_PKS4_S8_S8_RNS_8ios_baseES4_, 
                        __ZNSt3__117bad_function_callD0Ev, __ZNSt3__117bad_function_callD1Ev, 
                        __ZNSt3__118__tree_left_rotateIPNS_16__tree_node_baseIPvEEEEvT_, 
                        __ZNSt3__119__tree_right_rotateIPNS_16__tree_node_baseIPvEEEEvT_, 
                        __ZNSt3__119basic_istringstreamIcNS_11char_traitsIcEENS_9allocatorIcEEED0Ev, 
                        __ZNSt3__119basic_istringstreamIcNS_11char_traitsIcEENS_9allocatorIcEEED1Ev, 
                        __ZNSt3__119basic_ostringstreamIcNS_11char_traitsIcEENS_9allocatorIcEEED0Ev, 
                        __ZNSt3__119basic_ostringstreamIcNS_11char_traitsIcEENS_9allocatorIcEEED1Ev, 
                        __ZNSt3__120__shared_ptr_emplaceIN8GPUTools21AnnotatedDrawCallInfoENS_9allocatorIS2_EEE16__on_zero_sharedEv, 
                        __ZNSt3__120__shared_ptr_emplaceIN8GPUTools21AnnotatedDrawCallInfoENS_9allocatorIS2_EEE21__on_zero_shared_weakEv, 
                        __ZNSt3__120__shared_ptr_emplaceIN8GPUTools21AnnotatedDrawCallInfoENS_9allocatorIS2_EEED0Ev, 
                        __ZNSt3__120__shared_ptr_emplaceIN8GPUTools21AnnotatedDrawCallInfoENS_9allocatorIS2_EEED1Ev, 
                        __ZNSt3__120__shared_ptr_emplaceIN8GPUTools2SM2GL10SyncObjectINS1_24AnnotatedBaseObjectTypesEEENS_9allocatorIS6_EEE16__on_zero_sharedEv, 
                        __ZNSt3__120__shared_ptr_emplaceIN8GPUTools2SM2GL10SyncObjectINS1_24AnnotatedBaseObjectTypesEEENS_9allocatorIS6_EEE21__on_zero_shared_weakEv, 
                        __ZNSt3__120__shared_ptr_emplaceIN8GPUTools2SM2GL10SyncObjectINS1_24AnnotatedBaseObjectTypesEEENS_9allocatorIS6_EEED0Ev, 
                        __ZNSt3__120__shared_ptr_emplaceIN8GPUTools2SM2GL10SyncObjectINS1_24AnnotatedBaseObjectTypesEEENS_9allocatorIS6_EEED1Ev, 
                        __ZNSt3__120__shared_ptr_emplaceIN8GPUTools2SM2GL11QueryObjectINS1_24AnnotatedBaseObjectTypesEEENS_9allocatorIS6_EEE16__on_zero_sharedEv, 
                        __ZNSt3__120__shared_ptr_emplaceIN8GPUTools2SM2GL11QueryObjectINS1_24AnnotatedBaseObjectTypesEEENS_9allocatorIS6_EEE21__on_zero_shared_weakEv, 
                        __ZNSt3__120__shared_ptr_emplaceIN8GPUTools2SM2GL11QueryObjectINS1_24AnnotatedBaseObjectTypesEEENS_9allocatorIS6_EEED0Ev, 
                        __ZNSt3__120__shared_ptr_emplaceIN8GPUTools2SM2GL11QueryObjectINS1_24AnnotatedBaseObjectTypesEEENS_9allocatorIS6_EEED1Ev, 
                        __ZNSt3__120__shared_ptr_emplaceIN8GPUTools2SM2GL12BufferObjectINS1_24AnnotatedBaseObjectTypesEEENS_9allocatorIS6_EEE16__on_zero_sharedEv, 
                        __ZNSt3__120__shared_ptr_emplaceIN8GPUTools2SM2GL12BufferObjectINS1_24AnnotatedBaseObjectTypesEEENS_9allocatorIS6_EEE21__on_zero_shared_weakEv, 
                        __ZNSt3__120__shared_ptr_emplaceIN8GPUTools2SM2GL12BufferObjectINS1_24AnnotatedBaseObjectTypesEEENS_9allocatorIS6_EEED0Ev, 
                        __ZNSt3__120__shared_ptr_emplaceIN8GPUTools2SM2GL12BufferObjectINS1_24AnnotatedBaseObjectTypesEEENS_9allocatorIS6_EEED1Ev, 
                        __ZNSt3__120__shared_ptr_emplaceIN8GPUTools2SM2GL12DrawableInfoINS1_24AnnotatedBaseObjectTypesEEENS_9allocatorIS6_EEE16__on_zero_sharedEv, 
                        __ZNSt3__120__shared_ptr_emplaceIN8GPUTools2SM2GL12DrawableInfoINS1_24AnnotatedBaseObjectTypesEEENS_9allocatorIS6_EEE21__on_zero_shared_weakEv, 
                        __ZNSt3__120__shared_ptr_emplaceIN8GPUTools2SM2GL12DrawableInfoINS1_24AnnotatedBaseObjectTypesEEENS_9allocatorIS6_EEED0Ev, 
                        __ZNSt3__120__shared_ptr_emplaceIN8GPUTools2SM2GL12DrawableInfoINS1_24AnnotatedBaseObjectTypesEEENS_9allocatorIS6_EEED1Ev, 
                        __ZNSt3__120__shared_ptr_emplaceIN8GPUTools2SM2GL12ShaderObjectINS1_24AnnotatedBaseObjectTypesEEENS_9allocatorIS6_EEE16__on_zero_sharedEv, 
                        __ZNSt3__120__shared_ptr_emplaceIN8GPUTools2SM2GL12ShaderObjectINS1_24AnnotatedBaseObjectTypesEEENS_9allocatorIS6_EEE21__on_zero_shared_weakEv, 
                        __ZNSt3__120__shared_ptr_emplaceIN8GPUTools2SM2GL12ShaderObjectINS1_24AnnotatedBaseObjectTypesEEENS_9allocatorIS6_EEED0Ev, 
                        __ZNSt3__120__shared_ptr_emplaceIN8GPUTools2SM2GL12ShaderObjectINS1_24AnnotatedBaseObjectTypesEEENS_9allocatorIS6_EEED1Ev, 
                        __ZNSt3__120__shared_ptr_emplaceIN8GPUTools2SM2GL13ProgramObjectINS1_24AnnotatedBaseObjectTypesEEENS_9allocatorIS6_EEE16__on_zero_sharedEv, 
                        __ZNSt3__120__shared_ptr_emplaceIN8GPUTools2SM2GL13ProgramObjectINS1_24AnnotatedBaseObjectTypesEEENS_9allocatorIS6_EEE21__on_zero_shared_weakEv, 
                        __ZNSt3__120__shared_ptr_emplaceIN8GPUTools2SM2GL13ProgramObjectINS1_24AnnotatedBaseObjectTypesEEENS_9allocatorIS6_EEED0Ev, 
                        __ZNSt3__120__shared_ptr_emplaceIN8GPUTools2SM2GL13ProgramObjectINS1_24AnnotatedBaseObjectTypesEEENS_9allocatorIS6_EEED1Ev, 
                        __ZNSt3__120__shared_ptr_emplaceIN8GPUTools2SM2GL13SamplerObjectINS1_24AnnotatedBaseObjectTypesEEENS_9allocatorIS6_EEE16__on_zero_sharedEv, 
                        __ZNSt3__120__shared_ptr_emplaceIN8GPUTools2SM2GL13SamplerObjectINS1_24AnnotatedBaseObjectTypesEEENS_9allocatorIS6_EEE21__on_zero_shared_weakEv, 
                        __ZNSt3__120__shared_ptr_emplaceIN8GPUTools2SM2GL13SamplerObjectINS1_24AnnotatedBaseObjectTypesEEENS_9allocatorIS6_EEED0Ev, 
                        __ZNSt3__120__shared_ptr_emplaceIN8GPUTools2SM2GL13SamplerObjectINS1_24AnnotatedBaseObjectTypesEEENS_9allocatorIS6_EEED1Ev, 
                        __ZNSt3__120__shared_ptr_emplaceIN8GPUTools2SM2GL13TextureObjectINS1_24AnnotatedBaseObjectTypesEEENS_9allocatorIS6_EEE16__on_zero_sharedEv, 
                        __ZNSt3__120__shared_ptr_emplaceIN8GPUTools2SM2GL13TextureObjectINS1_24AnnotatedBaseObjectTypesEEENS_9allocatorIS6_EEE21__on_zero_shared_weakEv, 
                        __ZNSt3__120__shared_ptr_emplaceIN8GPUTools2SM2GL13TextureObjectINS1_24AnnotatedBaseObjectTypesEEENS_9allocatorIS6_EEED0Ev, 
                        __ZNSt3__120__shared_ptr_emplaceIN8GPUTools2SM2GL13TextureObjectINS1_24AnnotatedBaseObjectTypesEEENS_9allocatorIS6_EEED1Ev, 
                        __ZNSt3__120__shared_ptr_emplaceIN8GPUTools2SM2GL17FramebufferObjectINS1_24AnnotatedBaseObjectTypesEEENS_9allocatorIS6_EEE16__on_zero_sharedEv, 
                        __ZNSt3__120__shared_ptr_emplaceIN8GPUTools2SM2GL17FramebufferObjectINS1_24AnnotatedBaseObjectTypesEEENS_9allocatorIS6_EEE21__on_zero_shared_weakEv, 
                        __ZNSt3__120__shared_ptr_emplaceIN8GPUTools2SM2GL17FramebufferObjectINS1_24AnnotatedBaseObjectTypesEEENS_9allocatorIS6_EEED0Ev, 
                        __ZNSt3__120__shared_ptr_emplaceIN8GPUTools2SM2GL17FramebufferObjectINS1_24AnnotatedBaseObjectTypesEEENS_9allocatorIS6_EEED1Ev, 
                        __ZNSt3__120__shared_ptr_emplaceIN8GPUTools2SM2GL17VertexArrayObjectINS1_24AnnotatedBaseObjectTypesEEENS_9allocatorIS6_EEE16__on_zero_sharedEv, 
                        __ZNSt3__120__shared_ptr_emplaceIN8GPUTools2SM2GL17VertexArrayObjectINS1_24AnnotatedBaseObjectTypesEEENS_9allocatorIS6_EEE21__on_zero_shared_weakEv, 
                        __ZNSt3__120__shared_ptr_emplaceIN8GPUTools2SM2GL17VertexArrayObjectINS1_24AnnotatedBaseObjectTypesEEENS_9allocatorIS6_EEED0Ev, 
                        __ZNSt3__120__shared_ptr_emplaceIN8GPUTools2SM2GL17VertexArrayObjectINS1_24AnnotatedBaseObjectTypesEEENS_9allocatorIS6_EEED1Ev, 
                        __ZNSt3__120__shared_ptr_emplaceIN8GPUTools2SM2GL18RenderbufferObjectINS1_24AnnotatedBaseObjectTypesEEENS_9allocatorIS6_EEE16__on_zero_sharedEv, 
                        __ZNSt3__120__shared_ptr_emplaceIN8GPUTools2SM2GL18RenderbufferObjectINS1_24AnnotatedBaseObjectTypesEEENS_9allocatorIS6_EEE21__on_zero_shared_weakEv, 
                        __ZNSt3__120__shared_ptr_emplaceIN8GPUTools2SM2GL18RenderbufferObjectINS1_24AnnotatedBaseObjectTypesEEENS_9allocatorIS6_EEED0Ev, 
                        __ZNSt3__120__shared_ptr_emplaceIN8GPUTools2SM2GL18RenderbufferObjectINS1_24AnnotatedBaseObjectTypesEEENS_9allocatorIS6_EEED1Ev, 
                        __ZNSt3__120__shared_ptr_emplaceIN8GPUTools2SM2GL21ProgramPipelineObjectINS1_24AnnotatedBaseObjectTypesEEENS_9allocatorIS6_EEE16__on_zero_sharedEv, 
                        __ZNSt3__120__shared_ptr_emplaceIN8GPUTools2SM2GL21ProgramPipelineObjectINS1_24AnnotatedBaseObjectTypesEEENS_9allocatorIS6_EEE21__on_zero_shared_weakEv, 
                        __ZNSt3__120__shared_ptr_emplaceIN8GPUTools2SM2GL21ProgramPipelineObjectINS1_24AnnotatedBaseObjectTypesEEENS_9allocatorIS6_EEED0Ev, 
                        __ZNSt3__120__shared_ptr_emplaceIN8GPUTools2SM2GL21ProgramPipelineObjectINS1_24AnnotatedBaseObjectTypesEEENS_9allocatorIS6_EEED1Ev, 
                        __ZNSt3__120__shared_ptr_emplaceIN8GPUTools2SM2GL23TransformFeedbackObjectINS1_24AnnotatedBaseObjectTypesEEENS_9allocatorIS6_EEE16__on_zero_sharedEv, 
                        __ZNSt3__120__shared_ptr_emplaceIN8GPUTools2SM2GL23TransformFeedbackObjectINS1_24AnnotatedBaseObjectTypesEEENS_9allocatorIS6_EEE21__on_zero_shared_weakEv, 
                        __ZNSt3__120__shared_ptr_emplaceIN8GPUTools2SM2GL23TransformFeedbackObjectINS1_24AnnotatedBaseObjectTypesEEENS_9allocatorIS6_EEED0Ev, 
                        __ZNSt3__120__shared_ptr_emplaceIN8GPUTools2SM2GL23TransformFeedbackObjectINS1_24AnnotatedBaseObjectTypesEEENS_9allocatorIS6_EEED1Ev, 
                        __ZNSt3__121__murmur2_or_cityhashImLm64EE18__hash_len_0_to_16EPKcm, 
                        __ZNSt3__121__murmur2_or_cityhashImLm64EE19__hash_len_17_to_32EPKcm, 
                        __ZNSt3__121__murmur2_or_cityhashImLm64EE19__hash_len_33_to_64EPKcm, 
                        __ZNSt3__121__murmur2_or_cityhashImLm64EEclEPKvm, 
                        __ZNSt3__124__put_character_sequenceIcNS_11char_traitsIcEEEERNS_13basic_ostreamIT_T0_EES7_PKS4_m, 
                        __ZNSt3__127__tree_balance_after_insertIPNS_16__tree_node_baseIPvEEEEvT_S5_, 
                        __ZNSt3__16__treeIN8GPUTools6DYSpanINS1_10DYSpanListINS3_IjEEEEEENS_4lessIS6_EENS_9allocatorIS6_EEE12__find_equalIS6_EERPNS_16__tree_node_baseIPvEENS_21__tree_const_iteratorIS6_PNS_11__tree_nodeIS6_SE_EElEESH_RKT_, 
                        __ZNSt3__16__treeIN8GPUTools6DYSpanINS1_10DYSpanListINS3_IjEEEEEENS_4lessIS6_EENS_9allocatorIS6_EEE12__find_equalIS6_EERPNS_16__tree_node_baseIPvEESH_RKT_, 
                        __ZNSt3__16__treeIN8GPUTools6DYSpanINS1_10DYSpanListINS3_IjEEEEEENS_4lessIS6_EENS_9allocatorIS6_EEE13__move_assignERSB_NS_17integral_constantIbLb1EEE, 
                        __ZNSt3__16__treeIN8GPUTools6DYSpanINS1_10DYSpanListINS3_IjEEEEEENS_4lessIS6_EENS_9allocatorIS6_EEE14__assign_multiINS_21__tree_const_iteratorIS6_PNS_11__tree_nodeIS6_PvEElEEEEvT_SJ_, 
                        __ZNSt3__16__treeIN8GPUTools6DYSpanINS1_10DYSpanListINS3_IjEEEEEENS_4lessIS6_EENS_9allocatorIS6_EEE14__insert_multiERKS6_, 
                        __ZNSt3__16__treeIN8GPUTools6DYSpanINS1_10DYSpanListINS3_IjEEEEEENS_4lessIS6_EENS_9allocatorIS6_EEE15__insert_uniqueENS_21__tree_const_iteratorIS6_PNS_11__tree_nodeIS6_PvEElEERKS6_, 
                        __ZNSt3__16__treeIN8GPUTools6DYSpanINS1_10DYSpanListINS3_IjEEEEEENS_4lessIS6_EENS_9allocatorIS6_EEE15__insert_uniqueERKS6_, 
                        __ZNSt3__16__treeIN8GPUTools6DYSpanINS1_10DYSpanListINS3_IjEEEEEENS_4lessIS6_EENS_9allocatorIS6_EEE16__construct_nodeIJRKS6_EEENS_10unique_ptrINS_11__tree_nodeIS6_PvEENS_22__tree_node_destructorINS9_ISI_EEEEEEDpOT_, 
                        __ZNSt3__16__treeIN8GPUTools6DYSpanINS1_10DYSpanListINS3_IjEEEEEENS_4lessIS6_EENS_9allocatorIS6_EEE16__insert_node_atEPNS_16__tree_node_baseIPvEERSF_SF_, 
                        __ZNSt3__16__treeIN8GPUTools6DYSpanINS1_10DYSpanListINS3_IjEEEEEENS_4lessIS6_EENS_9allocatorIS6_EEE19__node_insert_multiEPNS_11__tree_nodeIS6_PvEE, 
                        __ZNSt3__16__treeIN8GPUTools6DYSpanINS1_10DYSpanListINS3_IjEEEEEENS_4lessIS6_EENS_9allocatorIS6_EEE5eraseENS_21__tree_const_iteratorIS6_PNS_11__tree_nodeIS6_PvEElEE, 
                        __ZNSt3__16__treeIN8GPUTools6DYSpanINS1_10DYSpanListINS3_IjEEEEEENS_4lessIS6_EENS_9allocatorIS6_EEE7destroyEPNS_11__tree_nodeIS6_PvEE, 
                        __ZNSt3__16__treeIN8GPUTools6DYSpanINS1_10DYSpanListINS3_IjEEEEEENS_4lessIS6_EENS_9allocatorIS6_EEE8__detachEPNS_11__tree_nodeIS6_PvEE, 
                        __ZNSt3__16__treeIN8GPUTools6DYSpanINS1_10DYSpanListIjEEEENS_4lessIS5_EENS_9allocatorIS5_EEE12__find_equalIS5_EERPNS_16__tree_node_baseIPvEENS_21__tree_const_iteratorIS5_PNS_11__tree_nodeIS5_SD_EElEESG_RKT_, 
                        __ZNSt3__16__treeIN8GPUTools6DYSpanINS1_10DYSpanListIjEEEENS_4lessIS5_EENS_9allocatorIS5_EEE12__find_equalIS5_EERPNS_16__tree_node_baseIPvEESG_RKT_, 
                        __ZNSt3__16__treeIN8GPUTools6DYSpanINS1_10DYSpanListIjEEEENS_4lessIS5_EENS_9allocatorIS5_EEE13__move_assignERSA_NS_17integral_constantIbLb1EEE, 
                        __ZNSt3__16__treeIN8GPUTools6DYSpanINS1_10DYSpanListIjEEEENS_4lessIS5_EENS_9allocatorIS5_EEE14__assign_multiINS_21__tree_const_iteratorIS5_PNS_11__tree_nodeIS5_PvEElEEEEvT_SI_, 
                        __ZNSt3__16__treeIN8GPUTools6DYSpanINS1_10DYSpanListIjEEEENS_4lessIS5_EENS_9allocatorIS5_EEE14__insert_multiERKS5_, 
                        __ZNSt3__16__treeIN8GPUTools6DYSpanINS1_10DYSpanListIjEEEENS_4lessIS5_EENS_9allocatorIS5_EEE15__insert_uniqueENS_21__tree_const_iteratorIS5_PNS_11__tree_nodeIS5_PvEElEERKS5_, 
                        __ZNSt3__16__treeIN8GPUTools6DYSpanINS1_10DYSpanListIjEEEENS_4lessIS5_EENS_9allocatorIS5_EEE15__insert_uniqueERKS5_, 
                        __ZNSt3__16__treeIN8GPUTools6DYSpanINS1_10DYSpanListIjEEEENS_4lessIS5_EENS_9allocatorIS5_EEE16__construct_nodeIJRKS5_EEENS_10unique_ptrINS_11__tree_nodeIS5_PvEENS_22__tree_node_destructorINS8_ISH_EEEEEEDpOT_, 
                        __ZNSt3__16__treeIN8GPUTools6DYSpanINS1_10DYSpanListIjEEEENS_4lessIS5_EENS_9allocatorIS5_EEE16__insert_node_atEPNS_16__tree_node_baseIPvEERSE_SE_, 
                        __ZNSt3__16__treeIN8GPUTools6DYSpanINS1_10DYSpanListIjEEEENS_4lessIS5_EENS_9allocatorIS5_EEE19__node_insert_multiEPNS_11__tree_nodeIS5_PvEE, 
                        __ZNSt3__16__treeIN8GPUTools6DYSpanINS1_10DYSpanListIjEEEENS_4lessIS5_EENS_9allocatorIS5_EEE5eraseENS_21__tree_const_iteratorIS5_PNS_11__tree_nodeIS5_PvEElEE, 
                        __ZNSt3__16__treeIN8GPUTools6DYSpanINS1_10DYSpanListIjEEEENS_4lessIS5_EENS_9allocatorIS5_EEE7destroyEPNS_11__tree_nodeIS5_PvEE, 
                        __ZNSt3__16__treeIN8GPUTools6DYSpanINS1_10DYSpanListIjEEEENS_4lessIS5_EENS_9allocatorIS5_EEE8__detachEPNS_11__tree_nodeIS5_PvEE, 
                        __ZNSt3__16__treeIN8GPUTools6DYSpanIjEENS_4lessIS3_EENS_9allocatorIS3_EEE12__find_equalIS3_EERPNS_16__tree_node_baseIPvEENS_21__tree_const_iteratorIS3_PNS_11__tree_nodeIS3_SB_EElEESE_RKT_, 
                        __ZNSt3__16__treeIN8GPUTools6DYSpanIjEENS_4lessIS3_EENS_9allocatorIS3_EEE12__find_equalIS3_EERPNS_16__tree_node_baseIPvEESE_RKT_, 
                        __ZNSt3__16__treeIN8GPUTools6DYSpanIjEENS_4lessIS3_EENS_9allocatorIS3_EEE13__move_assignERS8_NS_17integral_constantIbLb1EEE, 
                        __ZNSt3__16__treeIN8GPUTools6DYSpanIjEENS_4lessIS3_EENS_9allocatorIS3_EEE14__assign_multiINS_21__tree_const_iteratorIS3_PNS_11__tree_nodeIS3_PvEElEEEEvT_SG_, 
                        __ZNSt3__16__treeIN8GPUTools6DYSpanIjEENS_4lessIS3_EENS_9allocatorIS3_EEE14__insert_multiERKS3_, 
                        __ZNSt3__16__treeIN8GPUTools6DYSpanIjEENS_4lessIS3_EENS_9allocatorIS3_EEE15__insert_uniqueENS_21__tree_const_iteratorIS3_PNS_11__tree_nodeIS3_PvEElEERKS3_, 
                        __ZNSt3__16__treeIN8GPUTools6DYSpanIjEENS_4lessIS3_EENS_9allocatorIS3_EEE15__insert_uniqueERKS3_, 
                        __ZNSt3__16__treeIN8GPUTools6DYSpanIjEENS_4lessIS3_EENS_9allocatorIS3_EEE16__insert_node_atEPNS_16__tree_node_baseIPvEERSC_SC_, 
                        __ZNSt3__16__treeIN8GPUTools6DYSpanIjEENS_4lessIS3_EENS_9allocatorIS3_EEE19__node_insert_multiEPNS_11__tree_nodeIS3_PvEE, 
                        __ZNSt3__16__treeIN8GPUTools6DYSpanIjEENS_4lessIS3_EENS_9allocatorIS3_EEE5eraseENS_21__tree_const_iteratorIS3_PNS_11__tree_nodeIS3_PvEElEE, 
                        __ZNSt3__16__treeIN8GPUTools6DYSpanIjEENS_4lessIS3_EENS_9allocatorIS3_EEE7destroyEPNS_11__tree_nodeIS3_PvEE, 
                        __ZNSt3__16__treeIN8GPUTools6DYSpanIjEENS_4lessIS3_EENS_9allocatorIS3_EEE8__detachEPNS_11__tree_nodeIS3_PvEE, 
                        __ZNSt3__16__treeIiNS_4lessIiEENS_9allocatorIiEEE15__insert_uniqueERKi, 
                        __ZNSt3__16__treeIiNS_4lessIiEENS_9allocatorIiEEE16__insert_node_atEPNS_16__tree_node_baseIPvEERS9_S9_, 
                        __ZNSt3__16__treeIiNS_4lessIiEENS_9allocatorIiEEE7destroyEPNS_11__tree_nodeIiPvEE, 
                        __ZNSt3__16__treeIyNS_4lessIyEENS_9allocatorIyEEE15__insert_uniqueERKy, 
                        __ZNSt3__16__treeIyNS_4lessIyEENS_9allocatorIyEEE16__insert_node_atEPNS_16__tree_node_baseIPvEERS9_S9_, 
                        __ZNSt3__16__treeIyNS_4lessIyEENS_9allocatorIyEEE7destroyEPNS_11__tree_nodeIyPvEE, 
                        __ZNSt3__16vectorI5DYMtxNS_9allocatorIS1_EEE21__push_back_slow_pathIRKS1_EEvOT_, 
                        __ZNSt3__16vectorI5DYMtxNS_9allocatorIS1_EEE26__swap_out_circular_bufferERNS_14__split_bufferIS1_RS3_EE, 
                        __ZNSt3__16vectorIN8GPUTools2SM2GL11SamplerInfoENS_9allocatorIS4_EEE24__emplace_back_slow_pathIJRiRjSA_S9_SA_SA_S9_EEEvDpOT_, 
                        __ZNSt3__16vectorIN8GPUTools2SM2GL11SamplerInfoENS_9allocatorIS4_EEE24__emplace_back_slow_pathIJiRiS9_S9_iiiEEEvDpOT_, 
                        __ZNSt3__16vectorIN8GPUTools2SM2GL12TextureLayerINS1_24AnnotatedBaseObjectTypesEEENS_9allocatorIS6_EEE26__swap_out_circular_bufferERNS_14__split_bufferIS6_RS8_EE, 
                        __ZNSt3__16vectorIN8GPUTools2SM2GL12TextureLayerINS1_24AnnotatedBaseObjectTypesEEENS_9allocatorIS6_EEE6resizeEm, 
                        __ZNSt3__16vectorIN8GPUTools2SM2GL12TextureLayerINS1_24AnnotatedBaseObjectTypesEEENS_9allocatorIS6_EEE8__appendEm, 
                        __ZNSt3__16vectorIN8GPUTools2SM2GL12TextureLayerINS1_24AnnotatedBaseObjectTypesEEENS_9allocatorIS6_EEE8allocateEm, 
                        __ZNSt3__16vectorIN8GPUTools2SM2GL12TextureLayerINS1_24AnnotatedBaseObjectTypesEEENS_9allocatorIS6_EEEC2ERKS9_, 
                        __ZNSt3__16vectorIN8GPUTools2SM2GL14ProgramUniformINS1_24AnnotatedBaseObjectTypesEEENS_9allocatorIS6_EEE18__construct_at_endIPS6_EENS_9enable_ifIXsr21__is_forward_iteratorIT_EE5valueEvE4typeESD_SD_m, 
                        __ZNSt3__16vectorIN8GPUTools2SM2GL14ProgramUniformINS1_24AnnotatedBaseObjectTypesEEENS_9allocatorIS6_EEE26__swap_out_circular_bufferERNS_14__split_bufferIS6_RS8_EE, 
                        __ZNSt3__16vectorIN8GPUTools2SM2GL14ProgramUniformINS1_24AnnotatedBaseObjectTypesEEENS_9allocatorIS6_EEE6resizeEm, 
                        __ZNSt3__16vectorIN8GPUTools2SM2GL14ProgramUniformINS1_24AnnotatedBaseObjectTypesEEENS_9allocatorIS6_EEE8__appendEm, 
                        __ZNSt3__16vectorIN8GPUTools2SM2GL14ProgramUniformINS1_24AnnotatedBaseObjectTypesEEENS_9allocatorIS6_EEE8allocateEm, 
                        __ZNSt3__16vectorIN8GPUTools2SM2GL14ProgramUniformINS1_24AnnotatedBaseObjectTypesEEENS_9allocatorIS6_EEEC2ERKS9_, 
                        __ZNSt3__16vectorINS_10shared_ptrIN8GPUTools21AnnotatedDrawCallInfoEEENS_9allocatorIS4_EEE21__push_back_slow_pathIRKS4_EEvOT_, 
                        __ZNSt3__16vectorINS_10shared_ptrIN8GPUTools21AnnotatedDrawCallInfoEEENS_9allocatorIS4_EEE26__swap_out_circular_bufferERNS_14__split_bufferIS4_RS6_EE, 
                        __ZNSt3__16vectorINS_12basic_stringIcNS_11char_traitsIcEENS_9allocatorIcEEEENS4_IS6_EEE10deallocateEv, 
                        __ZNSt3__16vectorINS_12basic_stringIcNS_11char_traitsIcEENS_9allocatorIcEEEENS4_IS6_EEE21__push_back_slow_pathIS6_EEvOT_, 
                        __ZNSt3__16vectorINS_12basic_stringIcNS_11char_traitsIcEENS_9allocatorIcEEEENS4_IS6_EEE6assignIPS6_EENS_9enable_ifIXaasr21__is_forward_iteratorIT_EE5valuesr16is_constructibleIS6_NS_15iterator_traitsISC_E9referenceEEE5valueEvE4typeESC_SC_, 
                        __ZNSt3__16vectorINS_12basic_stringIcNS_11char_traitsIcEENS_9allocatorIcEEEENS4_IS6_EEE6resizeEm, 
                        __ZNSt3__16vectorINS_12basic_stringIcNS_11char_traitsIcEENS_9allocatorIcEEEENS4_IS6_EEE8__appendEm, 
                        __ZNSt3__16vectorINS_12basic_stringIcNS_11char_traitsIcEENS_9allocatorIcEEEENS4_IS6_EEE8allocateEm, 
                        __ZNSt3__16vectorINS_12basic_stringIcNS_11char_traitsIcEENS_9allocatorIcEEEENS4_IS6_EEEC2ERKS8_, 
                        __ZNSt3__16vectorINS_4pairIiiEENS_9allocatorIS2_EEE21__push_back_slow_pathIS2_EEvOT_, 
                        __ZNSt3__16vectorINS_4pairIiiEENS_9allocatorIS2_EEE26__swap_out_circular_bufferERNS_14__split_bufferIS2_RS4_EE, 
                        __ZNSt3__16vectorINS_4pairIiiEENS_9allocatorIS2_EEE7reserveEm, 
                        __ZNSt3__16vectorIdNS_9allocatorIdEEE10deallocateEv, 
                        __ZNSt3__16vectorIdNS_9allocatorIdEEE26__swap_out_circular_bufferERNS_14__split_bufferIdRS2_EE, 
                        __ZNSt3__16vectorIdNS_9allocatorIdEEE6assignIPdEENS_9enable_ifIXaasr21__is_forward_iteratorIT_EE5valuesr16is_constructibleIdNS_15iterator_traitsIS7_E9referenceEEE5valueEvE4typeES7_S7_, 
                        __ZNSt3__16vectorIdNS_9allocatorIdEEE6resizeEm, 
                        __ZNSt3__16vectorIdNS_9allocatorIdEEE6resizeEmRKd, 
                        __ZNSt3__16vectorIdNS_9allocatorIdEEE8__appendEm, 
                        __ZNSt3__16vectorIdNS_9allocatorIdEEE8__appendEmRKd, 
                        __ZNSt3__16vectorIdNS_9allocatorIdEEE8allocateEm, 
                        __ZNSt3__16vectorIdNS_9allocatorIdEEEC2ERKS3_, 
                        __ZNSt3__16vectorIiNS_9allocatorIiEEE21__push_back_slow_pathIRKiEEvOT_, 
                        __ZNSt3__16vectorIiNS_9allocatorIiEEE26__swap_out_circular_bufferERNS_14__split_bufferIiRS2_EE, 
                        __ZNSt3__16vectorIiNS_9allocatorIiEEE7reserveEm, 
                        __ZNSt3__16vectorIiNS_9allocatorIiEEE8allocateEm, 
                        __ZNSt3__16vectorIiNS_9allocatorIiEEEC2ERKS3_, 
                        __ZNSt3__16vectorIjNS_9allocatorIjEEE21__push_back_slow_pathIRKjEEvOT_, 
                        __ZNSt3__16vectorIjNS_9allocatorIjEEE26__swap_out_circular_bufferERNS_14__split_bufferIjRS2_EE, 
                        __ZNSt3__18functionIFvvEED1Ev, __ZTCNSt3__119basic_istringstreamIcNS_11char_traitsIcEENS_9allocatorIcEEEE0_NS_13basic_istreamIcS2_EE, 
                        __ZTCNSt3__119basic_ostringstreamIcNS_11char_traitsIcEENS_9allocatorIcEEEE0_NS_13basic_ostreamIcS2_EE, 
                        __ZTINSt3__117bad_function_callE, __ZTISt9exception, 
                        __ZTSNSt3__117bad_function_callE, __ZTSSt9exception, 
                        __ZTTNSt3__119basic_istringstreamIcNS_11char_traitsIcEENS_9allocatorIcEEEE, 
                        __ZTTNSt3__119basic_ostringstreamIcNS_11char_traitsIcEENS_9allocatorIcEEEE, 
                        __ZTVNSt3__110__function6__funcIU8__strongU13block_pointerFvvENS_9allocatorIS4_EES2_EE, 
                        __ZTVNSt3__115basic_stringbufIcNS_11char_traitsIcEENS_9allocatorIcEEEE, 
                        __ZTVNSt3__117bad_function_callE, __ZTVNSt3__119basic_istringstreamIcNS_11char_traitsIcEENS_9allocatorIcEEEE, 
                        __ZTVNSt3__119basic_ostringstreamIcNS_11char_traitsIcEENS_9allocatorIcEEEE, 
                        __ZTVNSt3__120__shared_ptr_emplaceIN8GPUTools21AnnotatedDrawCallInfoENS_9allocatorIS2_EEEE, 
                        __ZTVNSt3__120__shared_ptr_emplaceIN8GPUTools2SM2GL10SyncObjectINS1_24AnnotatedBaseObjectTypesEEENS_9allocatorIS6_EEEE, 
                        __ZTVNSt3__120__shared_ptr_emplaceIN8GPUTools2SM2GL11QueryObjectINS1_24AnnotatedBaseObjectTypesEEENS_9allocatorIS6_EEEE, 
                        __ZTVNSt3__120__shared_ptr_emplaceIN8GPUTools2SM2GL12BufferObjectINS1_24AnnotatedBaseObjectTypesEEENS_9allocatorIS6_EEEE, 
                        __ZTVNSt3__120__shared_ptr_emplaceIN8GPUTools2SM2GL12DrawableInfoINS1_24AnnotatedBaseObjectTypesEEENS_9allocatorIS6_EEEE, 
                        __ZTVNSt3__120__shared_ptr_emplaceIN8GPUTools2SM2GL12ShaderObjectINS1_24AnnotatedBaseObjectTypesEEENS_9allocatorIS6_EEEE, 
                        __ZTVNSt3__120__shared_ptr_emplaceIN8GPUTools2SM2GL13ProgramObjectINS1_24AnnotatedBaseObjectTypesEEENS_9allocatorIS6_EEEE, 
                        __ZTVNSt3__120__shared_ptr_emplaceIN8GPUTools2SM2GL13SamplerObjectINS1_24AnnotatedBaseObjectTypesEEENS_9allocatorIS6_EEEE, 
                        __ZTVNSt3__120__shared_ptr_emplaceIN8GPUTools2SM2GL13TextureObjectINS1_24AnnotatedBaseObjectTypesEEENS_9allocatorIS6_EEEE, 
                        __ZTVNSt3__120__shared_ptr_emplaceIN8GPUTools2SM2GL17FramebufferObjectINS1_24AnnotatedBaseObjectTypesEEENS_9allocatorIS6_EEEE, 
                        __ZTVNSt3__120__shared_ptr_emplaceIN8GPUTools2SM2GL17VertexArrayObjectINS1_24AnnotatedBaseObjectTypesEEENS_9allocatorIS6_EEEE, 
                        __ZTVNSt3__120__shared_ptr_emplaceIN8GPUTools2SM2GL18RenderbufferObjectINS1_24AnnotatedBaseObjectTypesEEENS_9allocatorIS6_EEEE, 
                        __ZTVNSt3__120__shared_ptr_emplaceIN8GPUTools2SM2GL21ProgramPipelineObjectINS1_24AnnotatedBaseObjectTypesEEENS_9allocatorIS6_EEEE, 
                        __ZTVNSt3__120__shared_ptr_emplaceIN8GPUTools2SM2GL23TransformFeedbackObjectINS1_24AnnotatedBaseObjectTypesEEENS_9allocatorIS6_EEEE, 
                        __ZTv0_n24_NSt3__119basic_istringstreamIcNS_11char_traitsIcEENS_9allocatorIcEEED0Ev, 
                        __ZTv0_n24_NSt3__119basic_istringstreamIcNS_11char_traitsIcEENS_9allocatorIcEEED1Ev, 
                        __ZTv0_n24_NSt3__119basic_ostringstreamIcNS_11char_traitsIcEENS_9allocatorIcEEED0Ev, 
                        __ZTv0_n24_NSt3__119basic_ostringstreamIcNS_11char_traitsIcEENS_9allocatorIcEEED1Ev, 
                        ___clang_call_terminate ]
    objc-classes:    [ _DYGLAnalyzerEngine, _DYGLAnalyzerErrorFinding, 
                       _DYGLAnalyzerFinding, _DYGLAnalyzerFindingPunchThrough, 
                       _DYGLAnalyzerHeuristic, _DYGLAnalyzerHeuristicPool, 
                       _DYGLAnalyzerSharegroupObjectCoverage, _DYGLProfileConstraints ]
    objc-ivars:      [ _DYGLAnalyzerHeuristicPool._firstBindAfterOutOfContextUpdate, 
                       _DYGLAnalyzerEngine.mng, _DYGLAnalyzerHeuristic._platformConstraints, 
                       _DYGLAnalyzerSharegroupObjectCoverage._bufferCoverage, 
                       _DYGLAnalyzerSharegroupObjectCoverage._bufferCoveredIndices, 
                       _DYGLAnalyzerSharegroupObjectCoverage._bufferUpdateIndices, 
                       _DYGLAnalyzerSharegroupObjectCoverage._renderbufferCoverage, 
                       _DYGLAnalyzerSharegroupObjectCoverage._renderbufferUpdateIndices, 
                       _DYGLAnalyzerSharegroupObjectCoverage._textureCoverage, 
                       _DYGLAnalyzerSharegroupObjectCoverage._textureCoveredIndices, 
                       _DYGLAnalyzerSharegroupObjectCoverage._textureUpdateIndices, 
                       _DYGLProfileConstraints._constraintsData ]
...
