---
archs:           [ x86_64 ]
platform:        macosx
install-name:    '@rpath/GLToolsCore.framework/Versions/A/GLToolsCore'
current-version: 21759.0
exports:         
  - archs:           [ x86_64 ]
    symbols:         [ ___dy_cgl_scan_pfa_block_invoke, '+[DYRendererInfo _dimensionsAreSupported:supportedDimensions:]', 
                       '+[DYRendererInfo _rangeIsSupported:supportedRange:]', 
                       '+[DYRendererInfo rendererInfoWithGLIContext:dispatch:api:]', 
                       '-[DYContextInfo api]', '-[DYContextInfo currentRendererIndex]', 
                       '-[DYContextInfo dealloc]', '-[DYContextInfo debugLabel]', 
                       '-[DYContextInfo description]', '-[DYContextInfo determineTextureUnitLimitsForRendererAtIndex:limits:]', 
                       '-[DYContextInfo encodeWithCoder:]', '-[DYContextInfo enumerateBufferTargets:]', 
                       '-[DYContextInfo enumerateFramebufferAttachments:]', 
                       '-[DYContextInfo enumerateFramebufferColorAttachments:]', 
                       '-[DYContextInfo enumerateFramebufferDrawBuffers:]', 
                       '-[DYContextInfo enumerateTextureTargets:]', '-[DYContextInfo identifier]', 
                       '-[DYContextInfo initWithCoder:]', '-[DYContextInfo initWithIdentifier:sharegroupIdentifier:renderers:currentRendererIndex:api:]', 
                       '-[DYContextInfo init]', '-[DYContextInfo rendererType]', 
                       '-[DYContextInfo renderers]', '-[DYContextInfo setDebugLabel:]', 
                       '-[DYContextInfo sharegroupIdentifier]', '-[DYContextInfo supportsCapabilitiesOfGraphicsAPI:]', 
                       '-[DYContextInfo valueForLimit:]', '-[DYGLFunctionTracer .cxx_construct]', 
                       '-[DYGLFunctionTracer .cxx_destruct]', '-[DYGLFunctionTracer _appendTraceLine:withFunction:iterArgument:argumentStrings:returnVariable:]', 
                       '-[DYGLFunctionTracer _emitErrors:function:]', '-[DYGLFunctionTracer _objectNameFromVariable:]', 
                       '-[DYGLFunctionTracer _prependReceiver:function:]', 
                       '-[DYGLFunctionTracer _setCurrentReceiver:]', '-[DYGLFunctionTracer _skipFirstArgumentForFunction:]', 
                       '-[DYGLFunctionTracer _stringForScalar1DArrayArgument:usingBlock:]', 
                       '-[DYGLFunctionTracer _stringWithNumber:argument:]', 
                       '-[DYGLFunctionTracer _valueStringForPixelFormatAttributesArgument:]', 
                       '-[DYGLFunctionTracer typeStringForArgument:]', 
                       '-[DYGLFunctionTracer variableForGLSyncID:]', '-[DYGLFunctionTracer variableForGLSyncIDNumber:]', 
                       '-[DYGLFunctionTracer variableForPBufferID:]', '-[DYGLFunctionTracer variableForPBufferIDNumber:]', 
                       '-[DYGLFunctionTracer variableForPixelFormatID:]', 
                       '-[DYGLFunctionTracer variableForPixelFormatIDNumber:]', 
                       '-[DYGLFunctionTracer variableForReceiverID:]', 
                       '-[DYGLFunctionTracer variableForReceiverIDNumber:]', 
                       '-[DYRendererInfo _supportsGLSLVersion:]', '-[DYRendererInfo _supportsGLVersion:]', 
                       '-[DYRendererInfo _supportsLimits:]', '-[DYRendererInfo bitCounts]', 
                       '-[DYRendererInfo dealloc]', '-[DYRendererInfo description]', 
                       '-[DYRendererInfo encodeWithCoder:]', '-[DYRendererInfo extensions]', 
                       '-[DYRendererInfo glslVersion]', '-[DYRendererInfo initWithCoder:]', 
                       '-[DYRendererInfo limits]', '-[DYRendererInfo renderer]', 
                       '-[DYRendererInfo setBitCounts:]', '-[DYRendererInfo setExtensions:]', 
                       '-[DYRendererInfo setGlslVersion:]', '-[DYRendererInfo setLimits:]', 
                       '-[DYRendererInfo setRenderer:]', '-[DYRendererInfo setShaderPrecisionsFormats:]', 
                       '-[DYRendererInfo setVendor:]', '-[DYRendererInfo setVersion:]', 
                       '-[DYRendererInfo shaderPrecisionsFormats]', '-[DYRendererInfo supportsCapabilitiesOfRenderer:]', 
                       '-[DYRendererInfo vendor]', '-[DYRendererInfo version]', 
                       '-[DYStaticResourcesInfo buffers]', '-[DYStaticResourcesInfo dealloc]', 
                       '-[DYStaticResourcesInfo encodeWithCoder:]', '-[DYStaticResourcesInfo framebuffers]', 
                       '-[DYStaticResourcesInfo initWithCoder:]', '-[DYStaticResourcesInfo programPipelines]', 
                       '-[DYStaticResourcesInfo programs]', '-[DYStaticResourcesInfo queries]', 
                       '-[DYStaticResourcesInfo renderbuffers]', '-[DYStaticResourcesInfo setBuffers:]', 
                       '-[DYStaticResourcesInfo setFramebuffers:]', '-[DYStaticResourcesInfo setProgramPipelines:]', 
                       '-[DYStaticResourcesInfo setPrograms:]', '-[DYStaticResourcesInfo setQueries:]', 
                       '-[DYStaticResourcesInfo setRenderbuffers:]', '-[DYStaticResourcesInfo setShaders:]', 
                       '-[DYStaticResourcesInfo setTextures:]', '-[DYStaticResourcesInfo setVertexArrays:]', 
                       '-[DYStaticResourcesInfo shaders]', '-[DYStaticResourcesInfo textures]', 
                       '-[DYStaticResourcesInfo vertexArrays]', GCC_except_table0, 
                       GCC_except_table10, GCC_except_table16, GCC_except_table2, 
                       GCC_except_table4, GCC_except_table5, GCC_except_table69, 
                       GCC_except_table7, GCC_except_table73, _DYAddPerFunctionProfilingData, 
                       _DYCreatePrivateGLProgram, _DYCreatePrivateGLProgramPipeline, 
                       _DYCreatePrivateGLShader, _DYGetGLGuestAppClient, 
                       _DYHarvestRenderbuffer, _DYHarvestRenderbufferInfo, 
                       _DYReserveGLFenceSync, _DYReserveGLObjects, _DYReserveGLProgram, 
                       _DYReserveGLShader, _DYReserveGLVAOs, _DYSetContextRemappingBlock, 
                       _DYSetGLGuestAppClient, _DYSetNameReservationEncoding, 
                       _DYSetResourceUpdateCallbackBlock, __ZL15g_interpose_api.0, 
                       __ZL15g_interpose_api.1, __ZL15g_interpose_api.10, 
                       __ZL15g_interpose_api.11, __ZL15g_interpose_api.12, 
                       __ZL15g_interpose_api.13, __ZL15g_interpose_api.2, 
                       __ZL15g_interpose_api.3, __ZL15g_interpose_api.4, 
                       __ZL15g_interpose_api.5, __ZL15g_interpose_api.6, 
                       __ZL15g_interpose_api.7, __ZL15g_interpose_api.8, 
                       __ZL15g_interpose_api.9, __ZL17_guestAppClientGL, 
                       __ZL18init_interpose_apiPv, __ZL20g_interpose_api_once, 
                       __ZL4keys, __ZL6values, __ZN8GPUTools2GL12GetImageDataERKNS0_10DispatcherEjijjbPv, 
                       __ZN8GPUTools2GL12GetImageInfoERKNS0_10DispatcherE11DYOpenGLAPIjiRNS0_9ImageInfoE, 
                       __ZN8GPUTools2GL12GetImageInfoERKNS0_10DispatcherE11DYOpenGLAPIjjiRNS0_9ImageInfoE, 
                       __ZN8GPUTools2GL12IsPackedTypeEj, __ZN8GPUTools2GL12IsSignedTypeEj, 
                       __ZN8GPUTools2GL12dy_type_sizeEj, __ZN8GPUTools2GL13GetBufferSizeERKNS0_10DispatcherE11DYOpenGLAPIj, 
                       __ZN8GPUTools2GL14IsIntegralTypeEj, __ZN8GPUTools2GL15IsIntegerFormatEj, 
                       __ZN8GPUTools2GL17GetTexStorageInfoERKNS0_10DispatcherEjRKNS0_17TextureTargetInfoERNS0_18TextureStorageInfoE, 
                       __ZN8GPUTools2GL18CopyProgramUniformERKNS0_10DispatcherE11DYOpenGLAPIjjRKNS0_14ProgramUniformEb, 
                       __ZN8GPUTools2GL18DYGetParameterInfoEjPjPb, __ZN8GPUTools2GL18IsCompressedFormatEj, 
                       __ZN8GPUTools2GL18dy_pixel_row_bytesEjiij, __ZN8GPUTools2GL19DYResolveMSAABufferEjjPKvjPv, 
                       __ZN8GPUTools2GL19SavePixelStoreStateERKNS0_10DispatcherE11DYOpenGLAPIbRNS0_15PixelStoreStateES6_, 
                       __ZN8GPUTools2GL19dy_light_array_sizeEj, __ZN8GPUTools2GL19dy_pixel_group_sizeEjj, 
                       __ZN8GPUTools2GL20ApplyPixelStoreStateERKNS0_10DispatcherE11DYOpenGLAPIbRKNS0_15PixelStoreStateES7_, 
                       __ZN8GPUTools2GL20RangeForUnpackedTypeEjRdS1_, __ZN8GPUTools2GL21GetInternalFormatInfoEj, 
                       __ZN8GPUTools2GL22ComputeClientImageSizeERKNS0_9ImageInfoERKNS0_15PixelStoreStateE, 
                       __ZN8GPUTools2GL22DYGetBufferBindingEnumEj, __ZN8GPUTools2GL22DYGetTextureTargetInfoEjPNS0_17TextureTargetInfoE, 
                       __ZN8GPUTools2GL22DYIsAttachmentWritableEjU13block_pointerFvjPiE, 
                       __ZN8GPUTools2GL23DYGetQueryParameterInfoEjjPjPb, 
                       __ZN8GPUTools2GL23DYGetShaderTypeFromMaskEj, __ZN8GPUTools2GL23EnumerateTextureTargetsERKNS0_10DispatcherE11DYOpenGLAPIU13block_pointerFvjE, 
                       __ZN8GPUTools2GL23GetCompressedFormatInfoEj, __ZN8GPUTools2GL23IsFormatColorRenderableEjbbb, 
                       __ZN8GPUTools2GL23IsFormatDepthRenderableEj, __ZN8GPUTools2GL23SavePixelStorePackStateERKNS0_10DispatcherE11DYOpenGLAPIbRNS0_15PixelStoreStateE, 
                       __ZN8GPUTools2GL23dy_format_element_countEj, __ZN8GPUTools2GL23dy_type_component_countEj, 
                       __ZN8GPUTools2GL24ApplyPixelStorePackStateERKNS0_10DispatcherE11DYOpenGLAPIbRKNS0_15PixelStoreStateE, 
                       __ZN8GPUTools2GL24DYGetBufferParameterInfoEjPjPb, 
                       __ZN8GPUTools2GL24DYGetTexEnvParameterInfoEjPjPb, 
                       __ZN8GPUTools2GL24EnumerateInternalFormatsENSt3__18functionIFvRKNS0_18InternalFormatInfoERbEEE, 
                       __ZN8GPUTools2GL24EnumerateInternalFormatsEU13block_pointerFvRKNS0_18InternalFormatInfoERbE, 
                       __ZN8GPUTools2GL24GetImageUploadFormatInfoERKNS0_18InternalFormatInfoEb, 
                       __ZN8GPUTools2GL24GetImageUploadFormatInfoEjb, __ZN8GPUTools2GL25CopyProgramActiveUniformsERKNS0_10DispatcherE11DYOpenGLAPIjjb, 
                       __ZN8GPUTools2GL25DYGetProgramParameterInfoEjPjPb, 
                       __ZN8GPUTools2GL25DYGetTextureParameterInfoEjPjPb, 
                       __ZN8GPUTools2GL25IsFormatStencilRenderableEj, __ZN8GPUTools2GL25SavePixelStoreUnpackStateERKNS0_10DispatcherE11DYOpenGLAPIbRNS0_15PixelStoreStateE, 
                       __ZN8GPUTools2GL25gDYFramebufferAttachmentsE, __ZN8GPUTools2GL26ApplyPixelStoreUnpackStateERKNS0_10DispatcherE11DYOpenGLAPIbRKNS0_15PixelStoreStateE, 
                       __ZN8GPUTools2GL26ComputeReadPixelsImageSizeEiijjRKNS0_15PixelStoreStateE, 
                       __ZN8GPUTools2GL26DYGetFramebufferAttachmentEji, 
                       __ZN8GPUTools2GL26EnumerateCompressedFormatsENSt3__18functionIFvRKNS0_18InternalFormatInfoERbEEE, 
                       __ZN8GPUTools2GL26EnumerateCompressedFormatsEU13block_pointerFvRKNS0_18InternalFormatInfoERbE, 
                       __ZN8GPUTools2GL26GetFirstValidComponentInfoERKNS0_20FormatComponentsInfoE, 
                       __ZN8GPUTools2GL26NormalizeIntegerComponentsEPfPKam, 
                       __ZN8GPUTools2GL26NormalizeIntegerComponentsEPfPKhm, 
                       __ZN8GPUTools2GL26NormalizeIntegerComponentsEPfPKim, 
                       __ZN8GPUTools2GL26NormalizeIntegerComponentsEPfPKjm, 
                       __ZN8GPUTools2GL26NormalizeIntegerComponentsEPfPKsm, 
                       __ZN8GPUTools2GL26NormalizeIntegerComponentsEPfPKtm, 
                       __ZN8GPUTools2GL27CopyProgramActiveAttributesERKNS0_10DispatcherEjj, 
                       __ZN8GPUTools2GL27DYGetBufferAccessAsBitfieldEj, 
                       __ZN8GPUTools2GL27DYGetShaderVariableTypeInfoEjPNS0_22ShaderVariableTypeInfoE, 
                       __ZN8GPUTools2GL27DYGetSyncObjectParamterInfoEjPjPb, 
                       __ZN8GPUTools2GL27ShouldUseGLIReadTextureDataERKNS0_10DispatcherE, 
                       __ZN8GPUTools2GL28ComputePackedClientImageSizeERKNS0_9ImageInfoE, 
                       __ZN8GPUTools2GL28GetFramebufferAttachmentInfoERKNS0_10DispatcherE11DYOpenGLAPIjjRNS0_25FramebufferAttachmentInfoE, 
                       __ZN8GPUTools2GL28dy_fog_param_component_countEj, 
                       __ZN8GPUTools2GL29DYGetQueryObjectParameterInfoEjPjPb, 
                       __ZN8GPUTools2GL29GetColorFormatForElementCountEjb, 
                       __ZN8GPUTools2GL30DYGetRenderbufferParameterInfoEjPjPb, 
                       __ZN8GPUTools2GL30DYGetVertexAttribParameterInfoEjPjPb, 
                       __ZN8GPUTools2GL30EnumerateProgramActiveUniformsERKNS0_10DispatcherE11DYOpenGLAPIjbU13block_pointerFvRKNS0_14ProgramUniformERbE, 
                       __ZN8GPUTools2GL31DYComputeTextureLayerDataOffsetEijii, 
                       __ZN8GPUTools2GL31DYGetActiveUniformParameterInfoEjPjPb, 
                       __ZN8GPUTools2GL31DYShaderParameterComponentCountEj, 
                       __ZN8GPUTools2GL31DYTexGenParameterComponentCountEj, 
                       __ZN8GPUTools2GL31GetCompressedFormatElementCountEj, 
                       __ZN8GPUTools2GL31GetInternalFormatComponentsInfoERKNS0_18InternalFormatInfoE, 
                       __ZN8GPUTools2GL31dy_get_framebuffer_binding_enumEj, 
                       __ZN8GPUTools2GL32EnumerateProgramActiveAttributesERKNS0_10DispatcherEjbU13block_pointerFvRKNS0_19ProgramActiveObjectERbE, 
                       __ZN8GPUTools2GL32GetFramebufferAttachmentMaskInfoEj, 
                       __ZN8GPUTools2GL32dy_get_renderbuffer_binding_enumEj, 
                       __ZN8GPUTools2GL33DYGetProgramPipelineParameterInfoEjPjPb, 
                       __ZN8GPUTools2GL33DYMaterialParameterComponentCountEj, 
                       __ZN8GPUTools2GL33IsLumAlphaFormatTextureFilterableEiib, 
                       __ZN8GPUTools2GL34DYGetCompressedPalettedTextureInfoEjPNS0_29CompressedPalettedTextureInfoE, 
                       __ZN8GPUTools2GL34TypeMatchingComponentSpecificationEjib, 
                       __ZN8GPUTools2GL35ColorRenderableFormatMatchingFormatERKNS0_15ImageFormatInfoE, 
                       __ZN8GPUTools2GL35EnumerateProgramActiveUniformBlocksERKNS0_10DispatcherEjU13block_pointerFvRKNS0_19ProgramUniformBlockERbE, 
                       __ZN8GPUTools2GL36CopyProgramTransformFeedbackVaryingsERKNS0_10DispatcherEjj, 
                       __ZN8GPUTools2GL36DYGetActiveUniformBlockParameterInfoEjPjPb, 
                       __ZN8GPUTools2GL36dy_light_model_param_component_countEj, 
                       __ZN8GPUTools2GL37CopyProgramActiveUniformBlockBindingsERKNS0_10DispatcherEjj, 
                       __ZN8GPUTools2GL37DYProcessImageUploadFormatForLegacyESEPNS0_15ImageFormatInfoE, 
                       __ZN8GPUTools2GL39DYGetFramebufferAttachmentParameterInfoEjPjPb, 
                       __ZN8GPUTools2GL40ColorRenderableFormatMatchingDepthFormatERKNS0_15ImageFormatInfoE, 
                       __ZN8GPUTools2GL41EnumerateProgramTransformFeedbackVaryingsERKNS0_10DispatcherEjU13block_pointerFvRKNS0_31ProgramTransformFeedbackVaryingERbE, 
                       __ZN8GPUTools2GL47ColorRenderableFormatMatchingDepthStencilFormatERKNS0_15ImageFormatInfoEb, 
                       __ZN8GPUTools2GLL14sUnknownFormatE, __ZN8GPUTools2GLL19s_renderableFormatsE, 
                       __ZN8GPUTools2GLL21sInternalFormatsTableE, __ZN8GPUTools2GLL23sCompressedFormatsTableE, 
                       __ZN8GPUTools2GLL29SetUniformArrayLocationStrideERKNS0_10DispatcherEPvRNS0_14ProgramUniformE, 
                       __ZN8GPUTools2SM2GL11GetEnumNameEi, __ZN8GPUTools2SM2GL12BindingPointC1Ev, 
                       __ZN8GPUTools2SM2GL12BindingPointC2Ev, __ZN8GPUTools2SM2GL13kDYIdenMatrixE, 
                       __ZN8GPUTools2SM2GL14kDYTexEnvColorE, __ZN8GPUTools2SM2GL18kDYDefaultFogColorE, 
                       __ZN8GPUTools2SM2GL18kDYDefaultViewportE, __ZN8GPUTools2SM2GL19kDYDefaultClipPlaneE, 
                       __ZN8GPUTools2SM2GL20kDYDefaultBlendColorE, __ZN8GPUTools2SM2GL20kDYDefaultClearColorE, 
                       __ZN8GPUTools2SM2GL20kDYDefaultDepthRangeE, __ZN8GPUTools2SM2GL20kDYDefaultScissorBoxE, 
                       __ZN8GPUTools2SM2GL22GetInternalBindingEnumEi, __ZN8GPUTools2SM2GL22kDYDefaultCurrentColorE, 
                       __ZN8GPUTools2SM2GL22kDYDefaultLightAmbientE, __ZN8GPUTools2SM2GL22kDYDefaultLightDiffuseE, 
                       __ZN8GPUTools2SM2GL23kDYDefaultCurrentNormalE, __ZN8GPUTools2SM2GL23kDYDefaultLayerPositionE, 
                       __ZN8GPUTools2SM2GL23kDYDefaultLight0DiffuseE, __ZN8GPUTools2SM2GL23kDYDefaultLightEmissionE, 
                       __ZN8GPUTools2SM2GL23kDYDefaultLightPositionE, __ZN8GPUTools2SM2GL23kDYDefaultLightSpecularE, 
                       __ZN8GPUTools2SM2GL24kDYDefaultColorWritemaskE, 
                       __ZN8GPUTools2SM2GL24kDYDefaultLayerTransformE, 
                       __ZN8GPUTools2SM2GL24kDYDefaultLight0SpecularE, 
                       __ZN8GPUTools2SM2GL25kDYDefaultDrawableExtentsE, 
                       __ZN8GPUTools2SM2GL25kDYDefaultMaterialAmbientE, 
                       __ZN8GPUTools2SM2GL25kDYDefaultMaterialDiffuseE, 
                       __ZN8GPUTools2SM2GL25kDYDefaultTextureCropRectE, 
                       __ZN8GPUTools2SM2GL26kDYDefaultLayerAnchorPointE, 
                       __ZN8GPUTools2SM2GL26kDYDefaultMaterialEmissionE, 
                       __ZN8GPUTools2SM2GL26kDYDefaultMaterialSpecularE, 
                       __ZN8GPUTools2SM2GL27kDYDefaultLightModelAmbientE, 
                       __ZN8GPUTools2SM2GL28kDYDefaultLightSpotDirectionE, 
                       __ZN8GPUTools2SM2GL29kDYDefaultCurrentVertexAttribE, 
                       __ZN8GPUTools2SM2GL30kDYDefaultCurrentTextureCoordsE, 
                       __ZN8GPUTools2SM2GL34kDYDefaultPointDistanceAttenuationE, 
                       __ZN8GPUTools2SM2GLL10_sEnumListE, __ZN8GPUTools2SM2GLlsERNSt3__113basic_ostreamIcNS2_11char_traitsIcEEEERKNS1_12BindingPointE, 
                       __ZN8GPUTools2SM2GLlsERNSt3__113basic_ostreamIcNS2_11char_traitsIcEEEERKNS1_14StatePrimitiveE, 
                       __ZN8GPUTools2SM2GLlsERNSt3__113basic_ostreamIcNS2_11char_traitsIcEEEERKNS1_16StateErrorStatusE, 
                       __ZN8GPUTools2SM2GLlsERNSt3__113basic_ostreamIcNS2_11char_traitsIcEEEERKNS1_9StateBoolE, 
                       __ZN8GPUTools2SM2GLlsERNSt3__113basic_ostreamIcNS2_11char_traitsIcEEEERKNS1_9StateEnumE, 
                       __ZNK8GPUTools2SM2GL12BindingPoint13getExternalIDEv, 
                       __ZNK8GPUTools2SM2GL12BindingPoint13getInternalIDEv, 
                       __ZZ19dy_enum_from_stringE21string_enum_dict_once, 
                       __ZZ19dy_enum_from_stringE9enums_map, __ZZN8GPUTools2SM2GL11GetEnumNameEiE16sEnumNameMapping, 
                       __ZZN8GPUTools2SM2GL11GetEnumNameEiE20sEnumNameMappingOnce, 
                       '___34-[DYRendererInfo _supportsLimits:]_block_invoke', 
                       '___58+[DYRendererInfo rendererInfoWithGLIContext:dispatch:api:]_block_invoke', 
                       '___58+[DYRendererInfo rendererInfoWithGLIContext:dispatch:api:]_block_invoke_2', 
                       '___58+[DYRendererInfo rendererInfoWithGLIContext:dispatch:api:]_block_invoke_3', 
                       '___58+[DYRendererInfo rendererInfoWithGLIContext:dispatch:api:]_block_invoke_4', 
                       '___58+[DYRendererInfo rendererInfoWithGLIContext:dispatch:api:]_block_invoke_5', 
                       '___58+[DYRendererInfo rendererInfoWithGLIContext:dispatch:api:]_block_invoke_6', 
                       '___58+[DYRendererInfo rendererInfoWithGLIContext:dispatch:api:]_block_invoke_7', 
                       '___67-[DYGLFunctionTracer _valueStringForPixelFormatAttributesArgument:]_block_invoke', 
                       ____ZN8GPUTools2GL25CopyProgramActiveUniformsERKNS0_10DispatcherE11DYOpenGLAPIjjb_block_invoke, 
                       ____ZN8GPUTools2GL27CopyProgramActiveAttributesERKNS0_10DispatcherEjj_block_invoke, 
                       ____ZN8GPUTools2GL30EnumerateProgramActiveUniformsERKNS0_10DispatcherE11DYOpenGLAPIjbU13block_pointerFvRKNS0_14ProgramUniformERbE_block_invoke, 
                       ____ZN8GPUTools2GL37CopyProgramActiveUniformBlockBindingsERKNS0_10DispatcherEjj_block_invoke, 
                       ____ZN8GPUTools2GLL23GetValidUniformLocationERKNS0_10DispatcherE11DYOpenGLAPIjRKNS0_14ProgramUniformE_block_invoke, 
                       ____ZN8GPUTools2SM2GL11GetEnumNameEi_block_invoke, 
                       ___block_descriptor_tmp, ___block_descriptor_tmp, 
                       ___block_descriptor_tmp, ___block_descriptor_tmp, 
                       ___block_descriptor_tmp, ___block_descriptor_tmp, 
                       ___block_descriptor_tmp.1, ___block_descriptor_tmp.12, 
                       ___block_descriptor_tmp.18, ___block_descriptor_tmp.327, 
                       ___block_descriptor_tmp.43, ___block_descriptor_tmp.47, 
                       ___block_descriptor_tmp.51, ___block_descriptor_tmp.57, 
                       ___block_descriptor_tmp.59, ___block_descriptor_tmp.68, 
                       ___block_descriptor_tmp.7, ___block_descriptor_tmp.9, 
                       ___block_literal_global, ___block_literal_global, 
                       ___block_literal_global, ___copy_helper_block_, 
                       ___copy_helper_block_, ___copy_helper_block_, ___copy_helper_block_, 
                       ___copy_helper_block_.16, ___copy_helper_block_.324, 
                       ___destroy_helper_block_, ___destroy_helper_block_, 
                       ___destroy_helper_block_, ___destroy_helper_block_, 
                       ___destroy_helper_block_.17, ___destroy_helper_block_.325, 
                       ___dy_cgl_count_pfa_block_invoke, ___dy_enum_from_string_block_invoke, 
                       _dy_binding_point_string_from_enum, _dy_buffer_string_from_enum, 
                       _dy_cgl_boolean_pfa_count, _dy_cgl_boolean_pfas, 
                       _dy_cgl_context_enable_string, _dy_cgl_context_parameter_string, 
                       _dy_cgl_count_pfa, _dy_cgl_global_option_string, 
                       _dy_cgl_pfa_apply, _dy_cgl_pfa_string, _dy_cgl_profile_string, 
                       _dy_cgl_renderer_property_string, _dy_cgl_scalar_pfa_count, 
                       _dy_cgl_scalar_pfas, _dy_cgl_scan_pfa, _dy_compact_nsstring_from_enum, 
                       _dy_compact_string_from_enum, _dy_enum_from_string, 
                       _dy_glsl_type_string_from_enum, _dy_nsstring_from_enum, 
                       _dy_nsstring_from_enum_ex, _dy_query_target_string_from_enum, 
                       _dy_short_cube_face_string_from_enum, _dy_short_tex_target_string_from_enum, 
                       _dy_string_from_attachment_mask, _dy_string_from_attachment_mask.accum_buffer_bit, 
                       _dy_string_from_attachment_mask.accum_buffer_bit_compact, 
                       _dy_string_from_attachment_mask.clear_mask_bits, 
                       _dy_string_from_attachment_mask.color_buffer_bit, 
                       _dy_string_from_attachment_mask.color_buffer_bit_compact, 
                       _dy_string_from_attachment_mask.depth_buffer_bit, 
                       _dy_string_from_attachment_mask.depth_buffer_bit_compact, 
                       _dy_string_from_attachment_mask.stencil_buffer_bit, 
                       _dy_string_from_attachment_mask.stencil_buffer_bit_compact, 
                       _dy_string_from_attrib_mask, _dy_string_from_attrib_mask.ACCUM_BUFFER_BIT, 
                       _dy_string_from_attrib_mask.ACCUM_BUFFER_BIT_COMPACT, 
                       _dy_string_from_attrib_mask.COLOR_BUFFER_BIT, _dy_string_from_attrib_mask.COLOR_BUFFER_BIT_COMPACT, 
                       _dy_string_from_attrib_mask.CURRENT_BIT, _dy_string_from_attrib_mask.CURRENT_BIT_COMPACT, 
                       _dy_string_from_attrib_mask.DEPTH_BUFFER_BIT, _dy_string_from_attrib_mask.DEPTH_BUFFER_BIT_COMPACT, 
                       _dy_string_from_attrib_mask.ENABLE_BIT, _dy_string_from_attrib_mask.ENABLE_BIT_COMPACT, 
                       _dy_string_from_attrib_mask.EVAL_BIT, _dy_string_from_attrib_mask.EVAL_BIT_COMPACT, 
                       _dy_string_from_attrib_mask.FOG_BIT, _dy_string_from_attrib_mask.FOG_BIT_COMPACT, 
                       _dy_string_from_attrib_mask.HINT_BIT, _dy_string_from_attrib_mask.HINT_BIT_COMPACT, 
                       _dy_string_from_attrib_mask.LIGHTING_BIT, _dy_string_from_attrib_mask.LIGHTING_BIT_COMPACT, 
                       _dy_string_from_attrib_mask.LINE_BIT, _dy_string_from_attrib_mask.LINE_BIT_COMPACT, 
                       _dy_string_from_attrib_mask.LIST_BIT, _dy_string_from_attrib_mask.LIST_BIT_COMPACT, 
                       _dy_string_from_attrib_mask.PIXEL_MODE_BIT, _dy_string_from_attrib_mask.PIXEL_MODE_BIT_COMPACT, 
                       _dy_string_from_attrib_mask.POINT_BIT, _dy_string_from_attrib_mask.POINT_BIT_COMPACT, 
                       _dy_string_from_attrib_mask.POLYGON_BIT, _dy_string_from_attrib_mask.POLYGON_BIT_COMPACT, 
                       _dy_string_from_attrib_mask.POLYGON_STIPPLE_BIT, 
                       _dy_string_from_attrib_mask.POLYGON_STIPPLE_BIT_COMPACT, 
                       _dy_string_from_attrib_mask.SCISSOR_BIT, _dy_string_from_attrib_mask.SCISSOR_BIT_COMPACT, 
                       _dy_string_from_attrib_mask.STENCIL_BUFFER_BIT, 
                       _dy_string_from_attrib_mask.STENCIL_BUFFER_BIT_COMPACT, 
                       _dy_string_from_attrib_mask.TEXTURE_BIT, _dy_string_from_attrib_mask.TEXTURE_BIT_COMPACT, 
                       _dy_string_from_attrib_mask.TRANSFORM_BIT, _dy_string_from_attrib_mask.TRANSFORM_BIT_COMPACT, 
                       _dy_string_from_attrib_mask.VIEWPORT_BIT, _dy_string_from_attrib_mask.VIEWPORT_BIT_COMPACT, 
                       _dy_string_from_attrib_mask.all_attribs_bit, _dy_string_from_attrib_mask.all_attribs_bit_compact, 
                       _dy_string_from_attrib_mask.attrib_bits, _dy_string_from_client_attrib_mask, 
                       _dy_string_from_client_attrib_mask.all_attribs_bit, 
                       _dy_string_from_client_attrib_mask.all_attribs_bit_compact, 
                       _dy_string_from_client_attrib_mask.client_attrib_bits, 
                       _dy_string_from_client_attrib_mask.client_pixel_store_bit, 
                       _dy_string_from_client_attrib_mask.client_pixel_store_bit_compact, 
                       _dy_string_from_client_attrib_mask.client_vertex_array_bit, 
                       _dy_string_from_client_attrib_mask.client_vertex_array_bit_compact, 
                       _dy_string_from_enum, _dy_string_from_enum_ex, _dy_string_from_error, 
                       _dy_string_from_map_buffer_range_access, _dy_string_from_map_buffer_range_access.MAP_FLUSH_EXPLICIT_BIT, 
                       _dy_string_from_map_buffer_range_access.MAP_FLUSH_EXPLICIT_BIT_COMPACT, 
                       _dy_string_from_map_buffer_range_access.MAP_INVALIDATE_BUFFER_BIT, 
                       _dy_string_from_map_buffer_range_access.MAP_INVALIDATE_BUFFER_BIT_COMPACT, 
                       _dy_string_from_map_buffer_range_access.MAP_INVALIDATE_RANGE_BIT, 
                       _dy_string_from_map_buffer_range_access.MAP_INVALIDATE_RANGE_BIT_COMPACT, 
                       _dy_string_from_map_buffer_range_access.MAP_READ_BIT, 
                       _dy_string_from_map_buffer_range_access.MAP_READ_BIT_COMPACT, 
                       _dy_string_from_map_buffer_range_access.MAP_UNSYNCHRONIZED_BIT, 
                       _dy_string_from_map_buffer_range_access.MAP_UNSYNCHRONIZED_BIT_COMPACT, 
                       _dy_string_from_map_buffer_range_access.MAP_WRITE_BIT, 
                       _dy_string_from_map_buffer_range_access.MAP_WRITE_BIT_COMPACT, 
                       _dy_string_from_map_buffer_range_access.map_buffer_range_access_bits, 
                       _dy_string_from_pipeline_stages, _dy_string_from_pipeline_stages.all_stages_bit, 
                       _dy_string_from_pipeline_stages.all_stages_bit_compact, 
                       _dy_string_from_pipeline_stages.fragment_bit, _dy_string_from_pipeline_stages.fragment_bit_compact, 
                       _dy_string_from_pipeline_stages.geometry_bit, _dy_string_from_pipeline_stages.geometry_bit_compact, 
                       _dy_string_from_pipeline_stages.pipeline_stages_bits, 
                       _dy_string_from_pipeline_stages.tess_control_bit, 
                       _dy_string_from_pipeline_stages.tess_control_bit_compact, 
                       _dy_string_from_pipeline_stages.tess_evaluation_bit, 
                       _dy_string_from_pipeline_stages.tess_evaluation_bit_compact, 
                       _dy_string_from_pipeline_stages.vertex_bit, _dy_string_from_pipeline_stages.vertex_bit_compact, 
                       _dy_string_from_sync_flags, _dy_string_from_sync_flags.SYNC_FLUSH_COMMANDS_BIT, 
                       _dy_string_from_sync_flags.SYNC_FLUSH_COMMANDS_BIT_COMPACT, 
                       _dy_string_from_sync_flags.sync_flags_bits, _format_bitfield, 
                       _gGLErrorStrings, _kDYReservedGLNameFootprintRenderbuffer, 
                       _kDYReservedGLNameGLSLObjectStart, _kDYReservedGLNameGLSLProgramPipelineStart, 
                       _kDYReservedGLNamePresentFramebuffer, _kDYReservedGLNamePresentRenderbuffer, 
                       _kDYReservedGLNamePresentTexture, _kDYReservedGLNameResourceUpdaterFragmentShader, 
                       _kDYReservedGLNameResourceUpdaterVertexShader, _kDYReservedGLNameTextureStart, 
                       _kDYReservedGLNameWireframeFramebuffer, _kDYReservedGLNameWireframeRenderbuffer ]
    weak-def-symbols: [ __ZNSt3__124__put_character_sequenceIcNS_11char_traitsIcEEEERNS_13basic_ostreamIT_T0_EES7_PKS4_m, 
                        __ZN8GPUTools2GL18MSAABufferResolverIfE7resolveILj2ELh16ELh0ELh0ELh0EEEvjPKvjPv, 
                        __ZN8GPUTools2GL18MSAABufferResolverIfE7resolveILj4ELh11ELh11ELh10ELh0EEEvjPKvjPv, 
                        __ZN8GPUTools2GL18MSAABufferResolverIfE7resolveILj4ELh16ELh16ELh0ELh0EEEvjPKvjPv, 
                        __ZN8GPUTools2GL18MSAABufferResolverIfE7resolveILj6ELh16ELh16ELh16ELh0EEEvjPKvjPv, 
                        __ZN8GPUTools2GL18MSAABufferResolverIfE7resolveILj8ELh16ELh16ELh16ELh16EEEvjPKvjPv, 
                        __ZN8GPUTools2GL18MSAABufferResolverIxE7resolveILj6ELj6ELb1ELy31ELy16ELy47ELy32ELy63ELy48ELy0ELy0EEEvjPKvjPv, 
                        __ZN8GPUTools2GL18MSAABufferResolverIxE7resolveILj8ELj12ELb1ELy31ELy0ELy63ELy32ELy0ELy0ELy0ELy0EEEvjPKvjPv, 
                        __ZN8GPUTools2GL18MSAABufferResolverIxE7resolveILj8ELj16ELb1ELy31ELy0ELy63ELy32ELy0ELy0ELy0ELy0EEEvjPKvjPv, 
                        __ZN8GPUTools2GL18MSAABufferResolverIxE7resolveILj8ELj8ELb1ELy15ELy0ELy31ELy16ELy47ELy32ELy63ELy48EEEvjPKvjPv, 
                        __ZN8GPUTools2GL18MSAABufferResolverIxE7resolveILj8ELj8ELb1ELy31ELy0ELy63ELy32ELy0ELy0ELy0ELy0EEEvjPKvjPv, 
                        __ZN8GPUTools2GL18MSAABufferResolverIyE7resolveILj4ELj4ELb1ELy63ELy54ELy53ELy44ELy43ELy34ELy33ELy32EEEvjPKvjPv, 
                        __ZN8GPUTools2GL18MSAABufferResolverIyE7resolveILj8ELj12ELb1ELy31ELy0ELy63ELy32ELy0ELy0ELy0ELy0EEEvjPKvjPv, 
                        __ZN8GPUTools2GL18MSAABufferResolverIyE7resolveILj8ELj16ELb1ELy31ELy0ELy63ELy32ELy0ELy0ELy0ELy0EEEvjPKvjPv, 
                        __ZN8GPUTools2GL18MSAABufferResolverIyE7resolveILj8ELj8ELb1ELy15ELy0ELy31ELy16ELy47ELy32ELy63ELy48EEEvjPKvjPv, 
                        __ZN8GPUTools2GL18MSAABufferResolverIyE7resolveILj8ELj8ELb1ELy31ELy0ELy63ELy32ELy0ELy0ELy0ELy0EEEvjPKvjPv, 
                        __ZNSt3__112__hash_tableINS_17__hash_value_typeIPKcjEENS_22__unordered_map_hasherIS3_S4_N8GPUTools11CStringHash4hashELb1EEENS_21__unordered_map_equalIS3_S4_NS7_5equalELb1EEENS_9allocatorIS4_EEE4findIS3_EENS_15__hash_iteratorIPNS_11__hash_nodeIS4_PvEEEERKT_, 
                        __ZNSt3__112__hash_tableINS_17__hash_value_typeIPKcjEENS_22__unordered_map_hasherIS3_S4_N8GPUTools11CStringHash4hashELb1EEENS_21__unordered_map_equalIS3_S4_NS7_5equalELb1EEENS_9allocatorIS4_EEE6rehashEm, 
                        __ZNSt3__112__hash_tableINS_17__hash_value_typeIPKcjEENS_22__unordered_map_hasherIS3_S4_N8GPUTools11CStringHash4hashELb1EEENS_21__unordered_map_equalIS3_S4_NS7_5equalELb1EEENS_9allocatorIS4_EEE8__rehashEm, 
                        __ZNSt3__112__hash_tableINS_17__hash_value_typeIiPKcEENS_22__unordered_map_hasherIiS4_NS_4hashIiEELb1EEENS_21__unordered_map_equalIiS4_NS_8equal_toIiEELb1EEENS_9allocatorIS4_EEE4findIiEENS_15__hash_iteratorIPNS_11__hash_nodeIS4_PvEEEERKT_, 
                        __ZNSt3__112__hash_tableINS_17__hash_value_typeIiPKcEENS_22__unordered_map_hasherIiS4_NS_4hashIiEELb1EEENS_21__unordered_map_equalIiS4_NS_8equal_toIiEELb1EEENS_9allocatorIS4_EEE6rehashEm, 
                        __ZNSt3__112__hash_tableINS_17__hash_value_typeIiPKcEENS_22__unordered_map_hasherIiS4_NS_4hashIiEELb1EEENS_21__unordered_map_equalIiS4_NS_8equal_toIiEELb1EEENS_9allocatorIS4_EEE8__rehashEm, 
                        __ZNSt3__112__hash_tableIjNS_4hashIjEENS_8equal_toIjEENS_9allocatorIjEEE4findIjEENS_15__hash_iteratorIPNS_11__hash_nodeIjPvEEEERKT_, 
                        __ZNSt3__112__hash_tableIjNS_4hashIjEENS_8equal_toIjEENS_9allocatorIjEEE5eraseENS_21__hash_const_iteratorIPNS_11__hash_nodeIjPvEEEE, 
                        __ZNSt3__112__hash_tableIjNS_4hashIjEENS_8equal_toIjEENS_9allocatorIjEEE6rehashEm, 
                        __ZNSt3__112__hash_tableIjNS_4hashIjEENS_8equal_toIjEENS_9allocatorIjEEE6removeENS_21__hash_const_iteratorIPNS_11__hash_nodeIjPvEEEE, 
                        __ZNSt3__112__hash_tableIjNS_4hashIjEENS_8equal_toIjEENS_9allocatorIjEEE8__rehashEm, 
                        __ZNSt3__112__hash_tableIjNS_4hashIjEENS_8equal_toIjEENS_9allocatorIjEEED2Ev, 
                        __ZNSt3__113unordered_mapIiPKcNS_4hashIiEENS_8equal_toIiEENS_9allocatorINS_4pairIKiS2_EEEEEixERS9_, 
                        __ZNSt3__116__pad_and_outputIcNS_11char_traitsIcEEEENS_19ostreambuf_iteratorIT_T0_EES6_PKS4_S8_S8_RNS_8ios_baseES4_, 
                        __ZNSt3__117bad_function_callD0Ev, __ZNSt3__117bad_function_callD1Ev, 
                        __ZNSt3__16vectorIjNS_9allocatorIjEEE21__push_back_slow_pathIjEEvOT_, 
                        __ZNSt3__16vectorIjNS_9allocatorIjEEE26__swap_out_circular_bufferERNS_14__split_bufferIjRS2_EE, 
                        __ZTINSt3__117bad_function_callE, __ZTISt9exception, 
                        __ZTSNSt3__117bad_function_callE, __ZTSSt9exception, 
                        __ZTVNSt3__117bad_function_callE, ___clang_call_terminate ]
    objc-classes:    [ _DYContextInfo, _DYGLFunctionTracer, _DYRendererInfo, 
                       _DYStaticResourcesInfo ]
    objc-ivars:      [ _DYRendererInfo.vendor, _DYContextInfo._api, _DYContextInfo._currentRendererIndex, 
                       _DYContextInfo._debugLabel, _DYContextInfo._identifier, 
                       _DYContextInfo._renderers, _DYContextInfo._sharegroupIdentifier, 
                       _DYGLFunctionTracer._programNames, _DYRendererInfo.bitCounts, 
                       _DYRendererInfo.extensions, _DYRendererInfo.glslVersion, 
                       _DYRendererInfo.limits, _DYRendererInfo.renderer, 
                       _DYRendererInfo.shaderPrecisionsFormats, _DYRendererInfo.version, 
                       _DYStaticResourcesInfo.buffers, _DYStaticResourcesInfo.framebuffers, 
                       _DYStaticResourcesInfo.programPipelines, _DYStaticResourcesInfo.programs, 
                       _DYStaticResourcesInfo.queries, _DYStaticResourcesInfo.renderbuffers, 
                       _DYStaticResourcesInfo.shaders, _DYStaticResourcesInfo.textures, 
                       _DYStaticResourcesInfo.vertexArrays ]
...
