---
archs:           [ x86_64 ]
platform:        macosx
install-name:    '@rpath/GLToolsServices.framework/Versions/A/GLToolsServices'
current-version: 21750.0
exports:         
  - archs:           [ x86_64 ]
    symbols:         [ '-[DYGLProgramPipelineObject initWithResourceObject:functionStream:dataResolver:]', 
                       '+[DYFunctionStreamModifierRemoveFuncs isAppleInternalContextFunction:contextSet:]', 
                       '+[DYGLCaptureLoopingStateDeltaGenerator _copyFunctionsToFBufStream:functionStream:groupsToIgnore:]', 
                       '+[DYGLCaptureLoopingStateDeltaGenerator _createEmptyFunctionBufferStream]', 
                       '+[DYGLCaptureLoopingStateDeltaGenerator _generateDeleteContextDelta:endFile:archive:]', 
                       '+[DYGLCaptureLoopingStateDeltaGenerator _hasFileThatEndsWithContext:files:]', 
                       '+[DYGLResourceObject keyForResourceWithID:type:containerID:]', 
                       '+[DYGLTextureImage _computeOffsetFromFunction:forImage:numLayers:]', 
                       '+[DYGLTextureImage _imagesFromImage:maxLevelSpecified:function:]', 
                       '+[DYGLTextureImage _imagesFromLayeredTexture:function:numLayers:]', 
                       '+[DYGLTextureImage _imagesFromPaletteTexture:numLevels:]', 
                       '+[DYGLTextureImage imagesFromFunction:resolver:]', 
                       '+[DYGLTextureImage imagesFromProperties:]', '+[DYGLTextureImage textureImageKeyForLevel:layer:]', 
                       '-[DYFunctionStreamModifierRemoveFuncs .cxx_construct]', 
                       '-[DYFunctionStreamModifierRemoveFuncs .cxx_destruct]', 
                       '-[DYFunctionStreamModifierRemoveFuncs initWithAppleInternalContextFilter]', 
                       '-[DYFunctionStreamModifierRemoveFuncs initWithCaptureFunctions:]', 
                       '-[DYFunctionStreamModifierRemoveFuncs initWithDeltaFilesTextureAndBufferLoadFilter]', 
                       '-[DYFunctionStreamModifierRemoveFuncs init]', '-[DYFunctionStreamModifierRemoveFuncs onBeginFileInArchiveModifier:]', 
                       '-[DYFunctionStreamModifierRemoveFuncs removedContexts]', 
                       '-[DYFunctionStreamModifierRemoveFuncs removedFunctionCount]', 
                       '-[DYGLBufferObject .cxx_destruct]', '-[DYGLBufferObject cachingCost]', 
                       '-[DYGLBufferObject data]', '-[DYGLBufferObject initWithProperties:]', 
                       '-[DYGLBufferObject initWithResourceObject:functionStream:dataResolver:]', 
                       '-[DYGLBufferObject isClientData]', '-[DYGLBufferObject offset]', 
                       '-[DYGLBufferObject size]', '-[DYGLBufferObject usage]', 
                       '-[DYGLCaptureArchiveModifier .cxx_construct]', 
                       '-[DYGLCaptureArchiveModifier .cxx_destruct]', '-[DYGLCaptureArchiveModifier _processFunction:functionIndex:]', 
                       '-[DYGLCaptureArchiveModifier _restoreAPIState]', 
                       '-[DYGLCaptureArchiveModifier _saveAPIState]', '-[DYGLCaptureArchiveModifier stateMirrorManager]', 
                       '-[DYGLCaptureLoopingStateDeltaGenerator .cxx_construct]', 
                       '-[DYGLCaptureLoopingStateDeltaGenerator .cxx_destruct]', 
                       '-[DYGLCaptureLoopingStateDeltaGenerator _addStartupContext:sharegroup:]', 
                       '-[DYGLCaptureLoopingStateDeltaGenerator _getStartupContextsFromFunctionStream:]', 
                       '-[DYGLCaptureLoopingStateDeltaGenerator _getStartupSharegroupForContext:]', 
                       '-[DYGLCaptureLoopingStateDeltaGenerator _removeStartupContext:]', 
                       '-[DYGLCaptureLoopingStateDeltaGenerator _startupSharegroupIsUsedByContexts:sharegroup:]', 
                       '-[DYGLCaptureLoopingStateDeltaGenerator init]', 
                       '-[DYGLCaptureLoopingStateDeltaGenerator visitCaptureArchive:]', 
                       '-[DYGLCaptureLoopingStateDeltaGenerator visitFunctionStreamFile:]', 
                       '-[DYGLCaptureSession _saveAPISpecificData:]', '-[DYGLFrameBufferObject .cxx_destruct]', 
                       '-[DYGLFrameBufferObject attachmentsDict]', '-[DYGLFrameBufferObject description]', 
                       '-[DYGLFrameBufferObject drawBuffers]', '-[DYGLFrameBufferObject initWithProperties:]', 
                       '-[DYGLFrameBufferObject initWithResourceObject:functionStream:dataResolver:]', 
                       '-[DYGLFrameBufferObject readBuffer]', '-[DYGLFramebufferAttachment cubemapFace]', 
                       '-[DYGLFramebufferAttachment initWithLocation:objectType:objectID:internalID:textureLevel:textureLayer:cubemapFace:]', 
                       '-[DYGLFramebufferAttachment init]', '-[DYGLFramebufferAttachment internalID]', 
                       '-[DYGLFramebufferAttachment location]', '-[DYGLFramebufferAttachment objectID]', 
                       '-[DYGLFramebufferAttachment objectType]', '-[DYGLFramebufferAttachment textureLayer]', 
                       '-[DYGLFramebufferAttachment textureLevel]', '-[DYGLGuestAppSession _handleTransportMessage:]', 
                       '-[DYGLGuestAppSession _modifyTraceConfigurationDictionary:]', 
                       '-[DYGLGuestAppSession _sendAdditionalConfigurations]', 
                       '-[DYGLGuestAppSession breakOnGLErrors]', '-[DYGLGuestAppSession checkGLErrors]', 
                       '-[DYGLGuestAppSession newCaptureSessionWithArchive:]', 
                       '-[DYGLGuestAppSession queryContextsInfo]', '-[DYGLGuestAppSession queryForGraphicsAPIUsage]', 
                       '-[DYGLGuestAppSession setBreakOnGLErrors:]', '-[DYGLGuestAppSession setCheckGLErrors:]', 
                       '-[DYGLGuestAppSession setTrapOnGLErrors:]', '-[DYGLGuestAppSession trapOnGLErrors]', 
                       '-[DYGLProgramObject .cxx_destruct]', '-[DYGLProgramObject fragmentInfoLog]', 
                       '-[DYGLProgramObject fragmentSource]', '-[DYGLProgramObject hasBeenLinked]', 
                       '-[DYGLProgramObject infoLog]', '-[DYGLProgramObject initWithProperties:]', 
                       '-[DYGLProgramObject linked]', '-[DYGLProgramObject separable]', 
                       '-[DYGLProgramObject vertexInfoLog]', '-[DYGLProgramObject vertexSource]', 
                       '-[DYGLProgramPipelineObject .cxx_destruct]', '-[DYGLProgramPipelineObject activeProgram]', 
                       '-[DYGLProgramPipelineObject fragmentProgram]', 
                       '-[DYGLProgramPipelineObject geometryProgram]', 
                       '-[DYGLProgramPipelineObject infoLog]', '-[DYGLProgramPipelineObject initWithProperties:]', 
                       '-[DYGLProgramPipelineObject tessControlProgram]', 
                       '-[DYGLProgramPipelineObject tessEvaluationProgram]', 
                       '-[DYGLProgramPipelineObject valid]', '-[DYGLProgramPipelineObject vertexProgram]', 
                       '-[DYGLQueryObject initWithProperties:]', '-[DYGLQueryObject initWithResourceObject:functionStream:dataResolver:]', 
                       '-[DYGLQueryObject isActive]', '-[DYGLQueryObject result]', 
                       '-[DYGLRenderBufferObject .cxx_destruct]', '-[DYGLRenderBufferObject cachingCost]', 
                       '-[DYGLRenderBufferObject data]', '-[DYGLRenderBufferObject description]', 
                       '-[DYGLRenderBufferObject flipped]', '-[DYGLRenderBufferObject format]', 
                       '-[DYGLRenderBufferObject height]', '-[DYGLRenderBufferObject initWithResourceObject:functionStream:dataResolver:]', 
                       '-[DYGLRenderBufferObject numSamples]', '-[DYGLRenderBufferObject width]', 
                       '-[DYGLResourceObject .cxx_destruct]', '-[DYGLResourceObject containerID]', 
                       '-[DYGLResourceObject createFullObjectWithFunctionStream:dataResolver:]', 
                       '-[DYGLResourceObject encodeWithCoder:]', '-[DYGLResourceObject initBuffer:context:target:offset:size:internalID:]', 
                       '-[DYGLResourceObject initProgram:context:internalID:]', 
                       '-[DYGLResourceObject initRenderbuffer:context:internalID:]', 
                       '-[DYGLResourceObject initTexture:context:target:internalID:]', 
                       '-[DYGLResourceObject initUpdateWithType:objectID:containerID:changes:]', 
                       '-[DYGLResourceObject initUpdateWithType:objectID:target:containerID:changes:]', 
                       '-[DYGLResourceObject initWithCoder:]', '-[DYGLResourceObject initWithResourceObject:]', 
                       '-[DYGLResourceObject initWithType:objectID:target:context:internalID:]', 
                       '-[DYGLResourceObject initWithType:properties:]', 
                       '-[DYGLResourceObject init]', '-[DYGLResourceObject internalID]', 
                       '-[DYGLResourceObject isStatic]', '-[DYGLResourceObject keyWithSharegroupID:]', 
                       '-[DYGLResourceObject label]', '-[DYGLResourceObject objectID]', 
                       '-[DYGLResourceObject processFunction:]', '-[DYGLResourceObject properties]', 
                       '-[DYGLResourceObject resourceType]', '-[DYGLResourceObject streamDictAtFunctionIndex:]', 
                       '-[DYGLResourceObject target]', '-[DYGLSamplerObject compareFunc]', 
                       '-[DYGLSamplerObject compareMode]', '-[DYGLSamplerObject initWithProperties:]', 
                       '-[DYGLSamplerObject initWithResourceObject:functionStream:dataResolver:]', 
                       '-[DYGLSamplerObject magFilter]', '-[DYGLSamplerObject maxAnisotropy]', 
                       '-[DYGLSamplerObject maxLOD]', '-[DYGLSamplerObject minFilter]', 
                       '-[DYGLSamplerObject minLOD]', '-[DYGLSamplerObject wrapR]', 
                       '-[DYGLSamplerObject wrapS]', '-[DYGLSamplerObject wrapT]', 
                       '-[DYGLShaderObject .cxx_destruct]', '-[DYGLShaderObject compiledSource]', 
                       '-[DYGLShaderObject compiled]', '-[DYGLShaderObject currentSourceIsCompiled]', 
                       '-[DYGLShaderObject infoLog]', '-[DYGLShaderObject initWithLinkedSource:shaderType:context:]', 
                       '-[DYGLShaderObject initWithProperties:]', '-[DYGLShaderObject initWithResourceObject:functionStream:dataResolver:]', 
                       '-[DYGLShaderObject shaderType]', '-[DYGLShaderObject source]', 
                       '-[DYGLSyncObject condition]', '-[DYGLSyncObject flags]', 
                       '-[DYGLSyncObject initWithProperties:]', '-[DYGLSyncObject initWithResourceObject:functionStream:dataResolver:]', 
                       '-[DYGLSyncObject objectType]', '-[DYGLTextureImage .cxx_destruct]', 
                       '-[DYGLTextureImage _initWithFunction:resolver:]', 
                       '-[DYGLTextureImage _initWithProperties:]', '-[DYGLTextureImage _init]', 
                       '-[DYGLTextureImage _processTextureImageUploadInfo:]', 
                       '-[DYGLTextureImage border]', '-[DYGLTextureImage cachingCost]', 
                       '-[DYGLTextureImage dataType]', '-[DYGLTextureImage data]', 
                       '-[DYGLTextureImage depth]', '-[DYGLTextureImage description]', 
                       '-[DYGLTextureImage engineDataType]', '-[DYGLTextureImage engineFormat]', 
                       '-[DYGLTextureImage format]', '-[DYGLTextureImage genericFormat]', 
                       '-[DYGLTextureImage height]', '-[DYGLTextureImage init]', 
                       '-[DYGLTextureImage internalFormat]', '-[DYGLTextureImage layerIndex]', 
                       '-[DYGLTextureImage mipmapLevel]', '-[DYGLTextureImage numSamples]', 
                       '-[DYGLTextureImage offset]', '-[DYGLTextureImage palette]', 
                       '-[DYGLTextureImage target]', '-[DYGLTextureImage uncompressedData]', 
                       '-[DYGLTextureImage width]', '-[DYGLTextureImageBackingStore .cxx_destruct]', 
                       '-[DYGLTextureImageBackingStore cachingCost]', '-[DYGLTextureImageBackingStore data]', 
                       '-[DYGLTextureImageBackingStore palette]', '-[DYGLTextureImageBackingStore setData:]', 
                       '-[DYGLTextureImageBackingStore setPalette:]', '-[DYGLTextureImageBackingStore setUncompressedData:]', 
                       '-[DYGLTextureImageBackingStore uncompressedData]', 
                       '-[DYGLTextureObject .cxx_destruct]', '-[DYGLTextureObject _findFirstValidTextureImage]', 
                       '-[DYGLTextureObject _findMaxLayerSpecifiedForAllLevels]', 
                       '-[DYGLTextureObject baseLevel]', '-[DYGLTextureObject baseMipmapLevel]', 
                       '-[DYGLTextureObject cachingCost]', '-[DYGLTextureObject compareFunc]', 
                       '-[DYGLTextureObject compareMode]', '-[DYGLTextureObject cubemapLabelForFaceIndex:]', 
                       '-[DYGLTextureObject firstValidTextureImage]', '-[DYGLTextureObject generateMipmap]', 
                       '-[DYGLTextureObject immutableLevels]', '-[DYGLTextureObject initWithProperties:]', 
                       '-[DYGLTextureObject initWithResourceObject:functionStream:dataResolver:]', 
                       '-[DYGLTextureObject isCubemap]', '-[DYGLTextureObject isFlipped]', 
                       '-[DYGLTextureObject isImmutableFormat]', '-[DYGLTextureObject layerCountForMipmapLevel:]', 
                       '-[DYGLTextureObject magFilter]', '-[DYGLTextureObject maxAnisotropy]', 
                       '-[DYGLTextureObject maxLevelSpecified]', '-[DYGLTextureObject maxLevel]', 
                       '-[DYGLTextureObject maxLod]', '-[DYGLTextureObject maxMipmapLevel]', 
                       '-[DYGLTextureObject minFilter]', '-[DYGLTextureObject minLod]', 
                       '-[DYGLTextureObject mipmapLevelsUsedMask]', '-[DYGLTextureObject swizzleA]', 
                       '-[DYGLTextureObject swizzleB]', '-[DYGLTextureObject swizzleG]', 
                       '-[DYGLTextureObject swizzleR]', '-[DYGLTextureObject textureImageForMipmapLevel:layer:]', 
                       '-[DYGLTextureObject wrapR]', '-[DYGLTextureObject wrapS]', 
                       '-[DYGLTextureObject wrapT]', '-[DYGLTransformFeedbackBufferBinding buffer]', 
                       '-[DYGLTransformFeedbackBufferBinding initWithProperties:]', 
                       '-[DYGLTransformFeedbackBufferBinding init]', '-[DYGLTransformFeedbackBufferBinding offset]', 
                       '-[DYGLTransformFeedbackBufferBinding setBuffer:]', 
                       '-[DYGLTransformFeedbackBufferBinding setOffset:]', 
                       '-[DYGLTransformFeedbackBufferBinding setSize:]', 
                       '-[DYGLTransformFeedbackBufferBinding size]', '-[DYGLTransformFeedbackObject .cxx_destruct]', 
                       '-[DYGLTransformFeedbackObject active]', '-[DYGLTransformFeedbackObject bufferBindings]', 
                       '-[DYGLTransformFeedbackObject initWithProperties:]', 
                       '-[DYGLTransformFeedbackObject initWithResourceObject:functionStream:dataResolver:]', 
                       '-[DYGLTransformFeedbackObject paused]', '-[DYGLTransformFeedbackObject setActive:]', 
                       '-[DYGLTransformFeedbackObject setBufferBindings:]', 
                       '-[DYGLTransformFeedbackObject setPaused:]', '-[DYGLVertexArrayObject .cxx_destruct]', 
                       '-[DYGLVertexArrayObject attributes]', '-[DYGLVertexArrayObject elementArrayBuffer]', 
                       '-[DYGLVertexArrayObject initWithProperties:]', 
                       '-[DYGLVertexArrayObject initWithResourceObject:functionStream:dataResolver:]', 
                       '-[DYGLVertexAttribute .cxx_destruct]', '-[DYGLVertexAttribute arrayBuffer]', 
                       '-[DYGLVertexAttribute attributeType]', '-[DYGLVertexAttribute clientDataOffset]', 
                       '-[DYGLVertexAttribute clientDataURL]', '-[DYGLVertexAttribute dataType]', 
                       '-[DYGLVertexAttribute description]', '-[DYGLVertexAttribute divisor]', 
                       '-[DYGLVertexAttribute index]', '-[DYGLVertexAttribute initWithProperties:]', 
                       '-[DYGLVertexAttribute init]', '-[DYGLVertexAttribute isInteger]', 
                       '-[DYGLVertexAttribute isNormalized]', '-[DYGLVertexAttribute pointer]', 
                       '-[DYGLVertexAttribute size]', '-[DYGLVertexAttribute stride]', 
                       GCC_except_table0, GCC_except_table0, GCC_except_table0, 
                       GCC_except_table0, GCC_except_table0, GCC_except_table0, 
                       GCC_except_table0, GCC_except_table0, GCC_except_table0, 
                       GCC_except_table0, GCC_except_table0, GCC_except_table0, 
                       GCC_except_table0, GCC_except_table0, GCC_except_table0, 
                       GCC_except_table0, GCC_except_table1, GCC_except_table1, 
                       GCC_except_table1, GCC_except_table1, GCC_except_table1, 
                       GCC_except_table1, GCC_except_table1, GCC_except_table1, 
                       GCC_except_table1, GCC_except_table1, GCC_except_table1, 
                       GCC_except_table1, GCC_except_table1, GCC_except_table1, 
                       GCC_except_table1, GCC_except_table1, GCC_except_table1, 
                       GCC_except_table10, GCC_except_table10, GCC_except_table10, 
                       GCC_except_table101, GCC_except_table105, GCC_except_table109, 
                       GCC_except_table11, GCC_except_table11, GCC_except_table11, 
                       GCC_except_table11, GCC_except_table113, GCC_except_table115, 
                       GCC_except_table118, GCC_except_table119, GCC_except_table12, 
                       GCC_except_table12, GCC_except_table12, GCC_except_table12, 
                       GCC_except_table12, GCC_except_table120, GCC_except_table122, 
                       GCC_except_table124, GCC_except_table129, GCC_except_table13, 
                       GCC_except_table13, GCC_except_table132, GCC_except_table133, 
                       GCC_except_table136, GCC_except_table14, GCC_except_table140, 
                       GCC_except_table141, GCC_except_table142, GCC_except_table148, 
                       GCC_except_table15, GCC_except_table15, GCC_except_table15, 
                       GCC_except_table15, GCC_except_table15, GCC_except_table152, 
                       GCC_except_table16, GCC_except_table16, GCC_except_table16, 
                       GCC_except_table162, GCC_except_table163, GCC_except_table17, 
                       GCC_except_table17, GCC_except_table17, GCC_except_table172, 
                       GCC_except_table173, GCC_except_table175, GCC_except_table177, 
                       GCC_except_table18, GCC_except_table18, GCC_except_table182, 
                       GCC_except_table184, GCC_except_table185, GCC_except_table188, 
                       GCC_except_table19, GCC_except_table192, GCC_except_table199, 
                       GCC_except_table2, GCC_except_table2, GCC_except_table2, 
                       GCC_except_table2, GCC_except_table2, GCC_except_table20, 
                       GCC_except_table215, GCC_except_table22, GCC_except_table229, 
                       GCC_except_table23, GCC_except_table23, GCC_except_table24, 
                       GCC_except_table25, GCC_except_table254, GCC_except_table26, 
                       GCC_except_table262, GCC_except_table263, GCC_except_table264, 
                       GCC_except_table269, GCC_except_table273, GCC_except_table275, 
                       GCC_except_table276, GCC_except_table278, GCC_except_table283, 
                       GCC_except_table285, GCC_except_table287, GCC_except_table288, 
                       GCC_except_table29, GCC_except_table29, GCC_except_table293, 
                       GCC_except_table294, GCC_except_table3, GCC_except_table30, 
                       GCC_except_table300, GCC_except_table301, GCC_except_table302, 
                       GCC_except_table307, GCC_except_table309, GCC_except_table313, 
                       GCC_except_table314, GCC_except_table315, GCC_except_table320, 
                       GCC_except_table322, GCC_except_table326, GCC_except_table327, 
                       GCC_except_table328, GCC_except_table33, GCC_except_table333, 
                       GCC_except_table335, GCC_except_table341, GCC_except_table343, 
                       GCC_except_table349, GCC_except_table35, GCC_except_table35, 
                       GCC_except_table350, GCC_except_table351, GCC_except_table355, 
                       GCC_except_table357, GCC_except_table36, GCC_except_table362, 
                       GCC_except_table363, GCC_except_table366, GCC_except_table367, 
                       GCC_except_table372, GCC_except_table375, GCC_except_table378, 
                       GCC_except_table381, GCC_except_table382, GCC_except_table384, 
                       GCC_except_table388, GCC_except_table39, GCC_except_table39, 
                       GCC_except_table391, GCC_except_table394, GCC_except_table397, 
                       GCC_except_table4, GCC_except_table4, GCC_except_table4, 
                       GCC_except_table4, GCC_except_table4, GCC_except_table40, 
                       GCC_except_table405, GCC_except_table406, GCC_except_table409, 
                       GCC_except_table41, GCC_except_table410, GCC_except_table412, 
                       GCC_except_table413, GCC_except_table414, GCC_except_table415, 
                       GCC_except_table417, GCC_except_table418, GCC_except_table42, 
                       GCC_except_table420, GCC_except_table421, GCC_except_table422, 
                       GCC_except_table423, GCC_except_table424, GCC_except_table43, 
                       GCC_except_table430, GCC_except_table441, GCC_except_table442, 
                       GCC_except_table45, GCC_except_table454, GCC_except_table467, 
                       GCC_except_table469, GCC_except_table474, GCC_except_table475, 
                       GCC_except_table476, GCC_except_table477, GCC_except_table478, 
                       GCC_except_table479, GCC_except_table480, GCC_except_table481, 
                       GCC_except_table483, GCC_except_table486, GCC_except_table488, 
                       GCC_except_table489, GCC_except_table490, GCC_except_table494, 
                       GCC_except_table495, GCC_except_table496, GCC_except_table5, 
                       GCC_except_table5, GCC_except_table5, GCC_except_table5, 
                       GCC_except_table5, GCC_except_table5, GCC_except_table5, 
                       GCC_except_table501, GCC_except_table503, GCC_except_table505, 
                       GCC_except_table52, GCC_except_table54, GCC_except_table55, 
                       GCC_except_table559, GCC_except_table561, GCC_except_table572, 
                       GCC_except_table577, GCC_except_table579, GCC_except_table58, 
                       GCC_except_table581, GCC_except_table582, GCC_except_table583, 
                       GCC_except_table585, GCC_except_table586, GCC_except_table587, 
                       GCC_except_table589, GCC_except_table590, GCC_except_table591, 
                       GCC_except_table6, GCC_except_table6, GCC_except_table6, 
                       GCC_except_table6, GCC_except_table600, GCC_except_table601, 
                       GCC_except_table602, GCC_except_table61, GCC_except_table62, 
                       GCC_except_table66, GCC_except_table67, GCC_except_table7, 
                       GCC_except_table7, GCC_except_table7, GCC_except_table7, 
                       GCC_except_table7, GCC_except_table70, GCC_except_table74, 
                       GCC_except_table78, GCC_except_table8, GCC_except_table8, 
                       GCC_except_table8, GCC_except_table8, GCC_except_table8, 
                       GCC_except_table82, GCC_except_table86, GCC_except_table9, 
                       GCC_except_table9, GCC_except_table92, GCC_except_table93, 
                       GCC_except_table95, GCC_except_table97, _GetDYPixelFormat, 
                       _GetGLFormat, _GetGLInternalFormat, _GetGLType, 
                       __ZN8GPUTools19StateDeltaGenerator11_IsSameDataEPKcS2_, 
                       __ZN8GPUTools19StateDeltaGenerator13GenerateDeltaEP8NSStringS2_P16DYAnalyzerEnginePm, 
                       __ZN8GPUTools19StateDeltaGenerator14_GenerateDeltaEv, 
                       __ZN8GPUTools19StateDeltaGenerator14_GetGroupIndexERKNS_2FD8FunctionE, 
                       __ZN8GPUTools19StateDeltaGenerator14_PatchFunctionERNS_2FD8FunctionERNSt3__15stackIPNS0_12DiffFunctionENS4_5dequeIS7_NS4_9allocatorIS7_EEEEEERNS4_6vectorIS7_SA_EE, 
                       __ZN8GPUTools19StateDeltaGenerator15_GetStackDepthsERNSt3__16vectorIPNS0_12DiffFunctionENS1_9allocatorIS4_EEEE, 
                       __ZN8GPUTools19StateDeltaGenerator15_IsLinkRequiredEmm, 
                       __ZN8GPUTools19StateDeltaGenerator15_IsSameFunctionEPKNS0_12DiffFunctionEjS3_, 
                       __ZN8GPUTools19StateDeltaGenerator15_RecreateObjectEPmS1_b, 
                       __ZN8GPUTools19StateDeltaGenerator16_IsSameGroupTypeERKNS_2FD8FunctionES4_, 
                       __ZN8GPUTools19StateDeltaGenerator17_GetFunctionCountERNSt3__16vectorIPNS0_12DiffFunctionENS1_9allocatorIS4_EEEEmjj, 
                       __ZN8GPUTools19StateDeltaGenerator17_HasSameArgumentsEPNS0_12DiffFunctionES2_, 
                       __ZN8GPUTools19StateDeltaGenerator18_AddDeleteFunctionERNSt3__16vectorIPNS0_12DiffFunctionENS1_9allocatorIS4_EEEEmm, 
                       __ZN8GPUTools19StateDeltaGenerator18_IsProgramSubgroupEPNS0_12DiffFunctionE, 
                       __ZN8GPUTools19StateDeltaGenerator19_IsRequiredFunctionEPKNS0_12DiffFunctionE, 
                       __ZN8GPUTools19StateDeltaGenerator20_AddMatrixStackResetEPNS0_12DiffFunctionE, 
                       __ZN8GPUTools19StateDeltaGenerator20_DeleteDiffFunctionsERNSt3__16vectorIPNS0_12DiffFunctionENS1_9allocatorIS4_EEEE, 
                       __ZN8GPUTools19StateDeltaGenerator20_GetArgumentToIgnoreEPNS0_12DiffFunctionE, 
                       __ZN8GPUTools19StateDeltaGenerator21_CreateExitStateGroupEmPNS0_12DiffFunctionE, 
                       __ZN8GPUTools19StateDeltaGenerator22_CreateDeleteFunctionsERNSt3__16vectorIPNS0_12DiffFunctionENS1_9allocatorIS4_EEEEmm, 
                       __ZN8GPUTools19StateDeltaGenerator22_CreateEnterStateGroupEPKcyymPNS0_12DiffFunctionE, 
                       __ZN8GPUTools19StateDeltaGenerator22_HandleProgramSubgroupEPmS1_RNSt3__13setIPNS0_12DiffFunctionENS2_4lessIS5_EENS2_9allocatorIS5_EEEERKNS3_IjNS6_IjEENS8_IjEEEE, 
                       __ZN8GPUTools19StateDeltaGenerator22_IsFunctionInContainerEPKNS0_12DiffFunctionERNSt3__16vectorIPS1_NS4_9allocatorIS6_EEEEmm, 
                       __ZN8GPUTools19StateDeltaGenerator23_AddRequiredGroupsToSetERNSt3__16vectorIPNS0_12DiffFunctionENS1_9allocatorIS4_EEEEmmRNS1_3setIS4_NS1_4lessIS4_EES6_EE, 
                       __ZN8GPUTools19StateDeltaGenerator23_CopyFunctionsToPStreamERNSt3__16vectorIPNS0_12DiffFunctionENS1_9allocatorIS4_EEEERNS_2FB6StreamEPNS2_ImNS5_ImEEEE, 
                       __ZN8GPUTools19StateDeltaGenerator23_GetNextGroupStartIndexERNSt3__16vectorIPNS0_12DiffFunctionENS1_9allocatorIS4_EEEEm, 
                       __ZN8GPUTools19StateDeltaGenerator23_PatchNewStateGroupExitERNS_2FD8FunctionERNSt3__15stackIPNS0_12DiffFunctionENS4_5dequeIS7_NS4_9allocatorIS7_EEEEEERNS4_6vectorIS7_SA_EE, 
                       __ZN8GPUTools19StateDeltaGenerator25_AddGroupMarkerStackResetEPNS0_12DiffFunctionE, 
                       __ZN8GPUTools19StateDeltaGenerator25_IsDataRestoreUnnecessaryEP17DYAnalyzerFindingRKNS_2FD8FunctionEijP16DYAnalyzerEngine, 
                       __ZN8GPUTools19StateDeltaGenerator25_ShouldIgnoreAllArgumentsEPNS0_12DiffFunctionE, 
                       __ZN8GPUTools19StateDeltaGenerator26_GetParentIndexForFunctionERKNSt3__16vectorIPNS0_12DiffFunctionENS1_9allocatorIS4_EEEEm, 
                       __ZN8GPUTools19StateDeltaGenerator28_AddFunctionsToDiffContainerERNSt3__16vectorIPNS0_12DiffFunctionENS1_9allocatorIS4_EEEEmm, 
                       __ZN8GPUTools19StateDeltaGenerator30_GetUnnecessaryFunctionIndicesERNSt3__16vectorIPNS0_12DiffFunctionENS1_9allocatorIS4_EEEE, 
                       __ZN8GPUTools19StateDeltaGenerator31_IsActiveTransformFeedbackGroupEPKNS0_12DiffFunctionE, 
                       __ZN8GPUTools19StateDeltaGenerator33_PatchStreamAndConvertToContainerEP16DYFunctionStreamRNSt3__16vectorIPNS0_12DiffFunctionENS3_9allocatorIS6_EEEE, 
                       __ZN8GPUTools19StateDeltaGenerator36_AddFilteredFunctionsToDiffContainerERNSt3__16vectorIPNS0_12DiffFunctionENS1_9allocatorIS4_EEEEmmRKNS1_3setIjNS1_4lessIjEENS5_IjEEEE, 
                       __ZN8GPUTools19StateDeltaGenerator36_AddRequiredFunctionsToDiffContainerERKNSt3__13setIPNS0_12DiffFunctionENS1_4lessIS4_EENS1_9allocatorIS4_EEEE, 
                       __ZN8GPUTools19StateDeltaGenerator36_CondtionallyAddEndTransformFeedbackERNSt3__16vectorIPNS0_12DiffFunctionENS1_9allocatorIS4_EEEEmm, 
                       __ZN8GPUTools19StateDeltaGenerator38_ProcessFunctionWithDifferentArgumentsEPmS1_, 
                       __ZN8GPUTools19StateDeltaGeneratorC1EP16DYCaptureArchive, 
                       __ZN8GPUTools19StateDeltaGeneratorC2EP16DYCaptureArchive, 
                       __ZN8GPUTools19StateDeltaGeneratorD1Ev, __ZN8GPUTools19StateDeltaGeneratorD2Ev, 
                       __ZNSt3__1L19piecewise_constructE, __ZNSt3__1L19piecewise_constructE, 
                       '___32-[DYGLTextureObject cachingCost]_block_invoke', 
                       '___40-[DYGLGuestAppSession queryContextsInfo]_block_invoke', 
                       '___40-[DYGLGuestAppSession queryContextsInfo]_block_invoke_2', 
                       '___40-[DYGLGuestAppSession setCheckGLErrors:]_block_invoke', 
                       '___40-[DYGLGuestAppSession setCheckGLErrors:]_block_invoke.22', 
                       '___41-[DYGLGuestAppSession setTrapOnGLErrors:]_block_invoke', 
                       '___41-[DYGLGuestAppSession setTrapOnGLErrors:]_block_invoke.13', 
                       '___42-[DYGLGuestAppSession setBreakOnGLErrors:]_block_invoke', 
                       '___42-[DYGLGuestAppSession setBreakOnGLErrors:]_block_invoke.31', 
                       '___47-[DYGLGuestAppSession queryForGraphicsAPIUsage]_block_invoke', 
                       '___55-[DYGLTextureObject _findMaxLayerSpecifiedForAllLevels]_block_invoke', 
                       '___61-[DYGLCaptureLoopingStateDeltaGenerator visitCaptureArchive:]_block_invoke', 
                       '___61-[DYGLCaptureLoopingStateDeltaGenerator visitCaptureArchive:]_block_invoke.85', 
                       '___63-[DYGLCaptureLoopingStateDeltaGenerator _removeStartupContext:]_block_invoke', 
                       '___64-[DYFunctionStreamModifierRemoveFuncs initWithCaptureFunctions:]_block_invoke', 
                       '___72-[DYGLTextureObject initWithResourceObject:functionStream:dataResolver:]_block_invoke', 
                       '___73-[DYFunctionStreamModifierRemoveFuncs initWithAppleInternalContextFilter]_block_invoke', 
                       '___73-[DYGLCaptureLoopingStateDeltaGenerator _getStartupSharegroupForContext:]_block_invoke', 
                       '___83-[DYFunctionStreamModifierRemoveFuncs initWithDeltaFilesTextureAndBufferLoadFilter]_block_invoke', 
                       ___Block_byref_object_copy_, ___Block_byref_object_copy_, 
                       ___Block_byref_object_dispose_, ___Block_byref_object_dispose_, 
                       ____ZN8GPUTools19StateDeltaGenerator30_GetUnnecessaryFunctionIndicesERNSt3__16vectorIPNS0_12DiffFunctionENS1_9allocatorIS4_EEEE_block_invoke, 
                       ____ZN8GPUTools2SM2GL13TextureObjectINS_23AnalyzerBaseObjectTypesEE24processCopyTextureLevelsERKNS_2FD8FunctionEiPS4__block_invoke, 
                       ____ZN8GPUTools2SM2GL18StateMirrorManagerINS_23AnalyzerBaseObjectTypesEE15ProcessFunctionERKNS_2FD8FunctionEi_block_invoke, 
                       ___block_descriptor_tmp, ___block_descriptor_tmp, 
                       ___block_descriptor_tmp, ___block_descriptor_tmp, 
                       ___block_descriptor_tmp, ___block_descriptor_tmp, 
                       ___block_descriptor_tmp.101, ___block_descriptor_tmp.119, 
                       ___block_descriptor_tmp.123, ___block_descriptor_tmp.13, 
                       ___block_descriptor_tmp.150, ___block_descriptor_tmp.153, 
                       ___block_descriptor_tmp.16, ___block_descriptor_tmp.16, 
                       ___block_descriptor_tmp.20, ___block_descriptor_tmp.21, 
                       ___block_descriptor_tmp.25, ___block_descriptor_tmp.30, 
                       ___block_descriptor_tmp.34, ___block_descriptor_tmp.66, 
                       ___block_descriptor_tmp.77, ___block_descriptor_tmp.82, 
                       ___copy_helper_block_, ___copy_helper_block_, ___copy_helper_block_, 
                       ___copy_helper_block_, ___copy_helper_block_.11, 
                       ___copy_helper_block_.117, ___copy_helper_block_.120, 
                       ___copy_helper_block_.14, ___copy_helper_block_.14, 
                       ___copy_helper_block_.148, ___copy_helper_block_.151, 
                       ___copy_helper_block_.19, ___copy_helper_block_.23, 
                       ___copy_helper_block_.28, ___copy_helper_block_.32, 
                       ___copy_helper_block_.64, ___copy_helper_block_.74, 
                       ___copy_helper_block_.80, ___copy_helper_block_.98, 
                       ___destroy_helper_block_, ___destroy_helper_block_, 
                       ___destroy_helper_block_, ___destroy_helper_block_, 
                       ___destroy_helper_block_.118, ___destroy_helper_block_.12, 
                       ___destroy_helper_block_.121, ___destroy_helper_block_.149, 
                       ___destroy_helper_block_.15, ___destroy_helper_block_.15, 
                       ___destroy_helper_block_.152, ___destroy_helper_block_.20, 
                       ___destroy_helper_block_.24, ___destroy_helper_block_.29, 
                       ___destroy_helper_block_.33, ___destroy_helper_block_.65, 
                       ___destroy_helper_block_.75, ___destroy_helper_block_.81, 
                       ___destroy_helper_block_.99 ]
    weak-def-symbols: [ __ZN8GPUTools14AutoUnfairLockD2Ev, __ZN8GPUTools13ScopeFunctionD2Ev, 
                        __ZN8GPUTools2FB6EncodeERNS0_4FbufEjPKcz, __ZN8GPUTools2FB6Stream5FlushEv, 
                        __ZN8GPUTools2FB6Stream5WriteERNS0_4FbufEb, __ZN8GPUTools2SM14DYStateElementINS0_4VecNIdLj16EEENS_18CStateBaseAnalysisEE6setValERKS3_i, 
                        __ZN8GPUTools2SM14DYStateElementINS0_4VecNIdLj2EEENS_18CStateBaseAnalysisEE6setValERKS3_i, 
                        __ZN8GPUTools2SM14DYStateElementINS0_4VecNIdLj4EEENS_18CStateBaseAnalysisEE6setValERKS3_i, 
                        __ZN8GPUTools2SM14DYStateElementINS0_4VecNIfLj2EEENS_18CStateBaseAnalysisEE6setValERKS3_i, 
                        __ZN8GPUTools2SM14DYStateElementINS0_4VecNIfLj3EEENS_18CStateBaseAnalysisEE6setValERKS3_i, 
                        __ZN8GPUTools2SM14DYStateElementINS0_4VecNIfLj4EEENS_18CStateBaseAnalysisEE6setValERKS3_i, 
                        __ZN8GPUTools2SM14DYStateElementINS0_4VecNIiLj4EEENS_18CStateBaseAnalysisEE6setValERKS3_i, 
                        __ZN8GPUTools2SM14DYStateElementINSt3__112basic_stringIcNS2_11char_traitsIcEENS2_9allocatorIcEEEENS_18CStateBaseAnalysisEE14setValFromFuncERKNS_2FD8FunctionEiiii, 
                        __ZN8GPUTools2SM14DYStateElementINSt3__112basic_stringIcNS2_11char_traitsIcEENS2_9allocatorIcEEEENS_18CStateBaseAnalysisEE6setValERKS8_i, 
                        __ZN8GPUTools2SM14DYStateElementINSt3__16vectorINS2_12basic_stringIcNS2_11char_traitsIcEENS2_9allocatorIcEEEENS7_IS9_EEEENS_18CStateBaseAnalysisEE14setValFromFuncERKNS_2FD8FunctionEiiii, 
                        __ZN8GPUTools2SM14DYStateElementINSt3__16vectorINS2_12basic_stringIcNS2_11char_traitsIcEENS2_9allocatorIcEEEENS7_IS9_EEEENS_18CStateBaseAnalysisEE6setValERKSB_i, 
                        __ZN8GPUTools2SM14DYStateElementINSt3__16vectorIdNS2_9allocatorIdEEEENS_18CStateBaseAnalysisEE14setValFromFuncERKNS_2FD8FunctionEiiii, 
                        __ZN8GPUTools2SM14DYStateElementINSt3__16vectorIdNS2_9allocatorIdEEEENS_18CStateBaseAnalysisEE6setValERKS6_i, 
                        __ZN8GPUTools2SM17GetStateMemberValIiNSt3__112basic_stringIcNS2_11char_traitsIcEENS2_9allocatorIcEEEEEEvPT_RKT0_, 
                        __ZN8GPUTools2SM17GetStateMemberValIjNSt3__112basic_stringIcNS2_11char_traitsIcEENS2_9allocatorIcEEEEEEvPT_RKT0_, 
                        __ZN8GPUTools2SM21__DYGetStateMemberValIiEEvPT_NSt3__112basic_stringIcNS4_11char_traitsIcEENS4_9allocatorIcEEEENS4_17integral_constantIbLb1EEENSB_IbLb0EEE, 
                        __ZN8GPUTools2SM21__DYGetStateMemberValIjEEvPT_NSt3__112basic_stringIcNS4_11char_traitsIcEENS4_9allocatorIcEEEENS4_17integral_constantIbLb1EEENSB_IbLb0EEE, 
                        __ZN8GPUTools2SM23DYDecodeRawDataToVectorIddEEvRNSt3__16vectorIT_NS2_9allocatorIS4_EEEEPT0_jj, 
                        __ZN8GPUTools2SM23DYDecodeRawDataToVectorIdfEEvRNSt3__16vectorIT_NS2_9allocatorIS4_EEEEPT0_jj, 
                        __ZN8GPUTools2SM23DYDecodeRawDataToVectorIdiEEvRNSt3__16vectorIT_NS2_9allocatorIS4_EEEEPT0_jj, 
                        __ZN8GPUTools2SM23DYDecodeRawDataToVectorIdjEEvRNSt3__16vectorIT_NS2_9allocatorIS4_EEEEPT0_jj, 
                        __ZN8GPUTools2SM26DYDecodeArgumentToVecNTypeINS0_4VecNIdLj16EEEEEvRT_RKNS_2FD8FunctionEjjj, 
                        __ZN8GPUTools2SM26DYDecodeArgumentToVecNTypeINS0_4VecNIdLj2EEEEEvRT_RKNS_2FD8FunctionEjjj, 
                        __ZN8GPUTools2SM26DYDecodeArgumentToVecNTypeINS0_4VecNIdLj4EEEEEvRT_RKNS_2FD8FunctionEjjj, 
                        __ZN8GPUTools2SM26DYDecodeArgumentToVecNTypeINS0_4VecNIfLj2EEEEEvRT_RKNS_2FD8FunctionEjjj, 
                        __ZN8GPUTools2SM26DYDecodeArgumentToVecNTypeINS0_4VecNIfLj3EEEEEvRT_RKNS_2FD8FunctionEjjj, 
                        __ZN8GPUTools2SM26DYDecodeArgumentToVecNTypeINS0_4VecNIfLj4EEEEEvRT_RKNS_2FD8FunctionEjjj, 
                        __ZN8GPUTools2SM26DYDecodeArgumentToVecNTypeINS0_4VecNIiLj4EEEEEvRT_RKNS_2FD8FunctionEjjj, 
                        __ZN8GPUTools2SM28DYDecodeArgumentToVectorTypeINSt3__112basic_stringIcNS2_11char_traitsIcEENS2_9allocatorIcEEEEEEvRNS2_6vectorIT_NS6_ISA_EEEERKNS_2FD8FunctionEjjj, 
                        __ZN8GPUTools2SM28DYDecodeArgumentToVectorTypeIdEEvRNSt3__16vectorIT_NS2_9allocatorIS4_EEEERKNS_2FD8FunctionEjjj, 
                        __ZN8GPUTools2SM2GL10SyncObjectINS_23AnalyzerBaseObjectTypesEE15processFunctionERKNS_2FD8FunctionEi, 
                        __ZN8GPUTools2SM2GL11QueryObjectINS_23AnalyzerBaseObjectTypesEE11setDefaultsEv, 
                        __ZN8GPUTools2SM2GL11QueryObjectINS_23AnalyzerBaseObjectTypesEE15processFunctionERKNS_2FD8FunctionEi, 
                        __ZN8GPUTools2SM2GL11QueryObjectINS_23AnalyzerBaseObjectTypesEEC2Ev, 
                        __ZN8GPUTools2SM2GL12BindingPoint4bindINS1_11QueryObjectINS_23AnalyzerBaseObjectTypesEEES6_EENS0_18StateSettingResultEiPNS1_17ObjectTrackingMapIT_iEEPNS8_IT0_iEE, 
                        __ZN8GPUTools2SM2GL12BindingPoint4bindINS1_12BufferObjectINS_23AnalyzerBaseObjectTypesEEES6_EENS0_18StateSettingResultEiPNS1_17ObjectTrackingMapIT_iEEPNS8_IT0_iEE, 
                        __ZN8GPUTools2SM2GL12BindingPoint4bindINS1_12ShaderObjectINS_23AnalyzerBaseObjectTypesEEES6_EENS0_18StateSettingResultEiPNS1_17ObjectTrackingMapIT_iEEPNS8_IT0_iEE, 
                        __ZN8GPUTools2SM2GL12BindingPoint4bindINS1_13ProgramObjectINS_23AnalyzerBaseObjectTypesEEES6_EENS0_18StateSettingResultEiPNS1_17ObjectTrackingMapIT_iEEPNS8_IT0_iEE, 
                        __ZN8GPUTools2SM2GL12BindingPoint4bindINS1_13SamplerObjectINS_23AnalyzerBaseObjectTypesEEES6_EENS0_18StateSettingResultEiPNS1_17ObjectTrackingMapIT_iEEPNS8_IT0_iEE, 
                        __ZN8GPUTools2SM2GL12BindingPoint4bindINS1_13TextureObjectINS_23AnalyzerBaseObjectTypesEEENS1_18RenderbufferObjectIS5_EEEENS0_18StateSettingResultEiPNS1_17ObjectTrackingMapIT_iEEPNSA_IT0_iEE, 
                        __ZN8GPUTools2SM2GL12BindingPoint4bindINS1_13TextureObjectINS_23AnalyzerBaseObjectTypesEEES6_EENS0_18StateSettingResultEiPNS1_17ObjectTrackingMapIT_iEEPNS8_IT0_iEE, 
                        __ZN8GPUTools2SM2GL12BindingPoint4bindINS1_17FramebufferObjectINS_23AnalyzerBaseObjectTypesEEES6_EENS0_18StateSettingResultEiPNS1_17ObjectTrackingMapIT_iEEPNS8_IT0_iEE, 
                        __ZN8GPUTools2SM2GL12BindingPoint4bindINS1_17VertexArrayObjectINS_23AnalyzerBaseObjectTypesEEES6_EENS0_18StateSettingResultEiPNS1_17ObjectTrackingMapIT_iEEPNS8_IT0_iEE, 
                        __ZN8GPUTools2SM2GL12BindingPoint4bindINS1_18RenderbufferObjectINS_23AnalyzerBaseObjectTypesEEENS1_13TextureObjectIS5_EEEENS0_18StateSettingResultEiPNS1_17ObjectTrackingMapIT_iEEPNSA_IT0_iEE, 
                        __ZN8GPUTools2SM2GL12BindingPoint4bindINS1_18RenderbufferObjectINS_23AnalyzerBaseObjectTypesEEES6_EENS0_18StateSettingResultEiPNS1_17ObjectTrackingMapIT_iEEPNS8_IT0_iEE, 
                        __ZN8GPUTools2SM2GL12BindingPoint4bindINS1_21ProgramPipelineObjectINS_23AnalyzerBaseObjectTypesEEES6_EENS0_18StateSettingResultEiPNS1_17ObjectTrackingMapIT_iEEPNS8_IT0_iEE, 
                        __ZN8GPUTools2SM2GL12BindingPoint4bindINS1_23TransformFeedbackObjectINS_23AnalyzerBaseObjectTypesEEES6_EENS0_18StateSettingResultEiPNS1_17ObjectTrackingMapIT_iEEPNS8_IT0_iEE, 
                        __ZN8GPUTools2SM2GL12BufferObjectINS_23AnalyzerBaseObjectTypesEE11setDefaultsEv, 
                        __ZN8GPUTools2SM2GL12BufferObjectINS_23AnalyzerBaseObjectTypesEE15processFunctionERKNS_2FD8FunctionEi, 
                        __ZN8GPUTools2SM2GL12BufferObjectINS_23AnalyzerBaseObjectTypesEEC2Ev, 
                        __ZN8GPUTools2SM2GL12DrawableInfoINS_23AnalyzerBaseObjectTypesEE11setDefaultsEv, 
                        __ZN8GPUTools2SM2GL12DrawableInfoINS_23AnalyzerBaseObjectTypesEE15processFunctionERKNS_2FD8FunctionEi, 
                        __ZN8GPUTools2SM2GL12ShaderObjectINS_23AnalyzerBaseObjectTypesEE11setDefaultsEv, 
                        __ZN8GPUTools2SM2GL12ShaderObjectINS_23AnalyzerBaseObjectTypesEE15processFunctionERKNS_2FD8FunctionEi, 
                        __ZN8GPUTools2SM2GL12ShaderObjectINS_23AnalyzerBaseObjectTypesEEC2ERKS4_, 
                        __ZN8GPUTools2SM2GL12ShaderObjectINS_23AnalyzerBaseObjectTypesEEC2Ev, 
                        __ZN8GPUTools2SM2GL12TextureLayerINS_23AnalyzerBaseObjectTypesEE11setDefaultsEv, 
                        __ZN8GPUTools2SM2GL12TextureLayerINS_23AnalyzerBaseObjectTypesEE15processFunctionERKNS_2FD8FunctionEijj, 
                        __ZN8GPUTools2SM2GL12TextureLayerINS_23AnalyzerBaseObjectTypesEE16_IsFullSubUpdateERKNS_2FD8FunctionE, 
                        __ZN8GPUTools2SM2GL12TextureLayerINS_23AnalyzerBaseObjectTypesEE18_SetFormatsAndTypeERKNS_2FD8FunctionEij, 
                        __ZN8GPUTools2SM2GL12TextureLayerINS_23AnalyzerBaseObjectTypesEE24_UpdateTextureDataOffsetERKNS_2FD8FunctionEijj, 
                        __ZN8GPUTools2SM2GL12TextureLayerINS_23AnalyzerBaseObjectTypesEEC2ERKS4_, 
                        __ZN8GPUTools2SM2GL12TextureLayerINS_23AnalyzerBaseObjectTypesEEC2Ev, 
                        __ZN8GPUTools2SM2GL12TextureLevelINS_23AnalyzerBaseObjectTypesEE11_InitLayersEii, 
                        __ZN8GPUTools2SM2GL12TextureLevelINS_23AnalyzerBaseObjectTypesEE15processFunctionERKNS_2FD8FunctionEii, 
                        __ZN8GPUTools2SM2GL12TextureLevelINS_23AnalyzerBaseObjectTypesEE17_processAllLayersERKNS_2FD8FunctionEi, 
                        __ZN8GPUTools2SM2GL12TextureLevelINS_23AnalyzerBaseObjectTypesEE23processCopyTextureLevelERKNS_2FD8FunctionEiPS4_, 
                        __ZN8GPUTools2SM2GL13ProgramAttribINS_23AnalyzerBaseObjectTypesEE11setDefaultsEv, 
                        __ZN8GPUTools2SM2GL13ProgramAttribINS_23AnalyzerBaseObjectTypesEE15processFunctionERKNS_2FD8FunctionEi, 
                        __ZN8GPUTools2SM2GL13ProgramAttribINS_23AnalyzerBaseObjectTypesEEC2Ev, 
                        __ZN8GPUTools2SM2GL13ProgramObjectINS_23AnalyzerBaseObjectTypesEE11setDefaultsEv, 
                        __ZN8GPUTools2SM2GL13ProgramObjectINS_23AnalyzerBaseObjectTypesEE15processFunctionERKNS_2FD8FunctionEiPNS1_17ObjectTrackingMapINS1_12ShaderObjectIS3_EEiEE, 
                        __ZN8GPUTools2SM2GL13ProgramObjectINS_23AnalyzerBaseObjectTypesEE57_ApplyShaderAttachmentCountDeltaAndDeleteShaderIfRequiredEiiPNS1_17ObjectTrackingMapINS1_12ShaderObjectIS3_EEiEE, 
                        __ZN8GPUTools2SM2GL13ProgramObjectINS_23AnalyzerBaseObjectTypesEEC2ERKS4_, 
                        __ZN8GPUTools2SM2GL13ProgramObjectINS_23AnalyzerBaseObjectTypesEEC2Ev, 
                        __ZN8GPUTools2SM2GL13ProgramObjectINS_23AnalyzerBaseObjectTypesEED2Ev, 
                        __ZN8GPUTools2SM2GL13SamplerObjectINS_23AnalyzerBaseObjectTypesEE11setDefaultsEv, 
                        __ZN8GPUTools2SM2GL13SamplerObjectINS_23AnalyzerBaseObjectTypesEE15processFunctionERKNS_2FD8FunctionEi, 
                        __ZN8GPUTools2SM2GL13SamplerObjectINS_23AnalyzerBaseObjectTypesEEC2Ev, 
                        __ZN8GPUTools2SM2GL13TextureObjectINS_23AnalyzerBaseObjectTypesEE11setDefaultsEv, 
                        __ZN8GPUTools2SM2GL13TextureObjectINS_23AnalyzerBaseObjectTypesEE15processFunctionERKNS_2FD8FunctionEiiij, 
                        __ZN8GPUTools2SM2GL13TextureObjectINS_23AnalyzerBaseObjectTypesEE16_GetTextureLevelEib, 
                        __ZN8GPUTools2SM2GL13TextureObjectINS_23AnalyzerBaseObjectTypesEE19_CreateTextureLevelEiii, 
                        __ZN8GPUTools2SM2GL13TextureObjectINS_23AnalyzerBaseObjectTypesEE23_GenerateTargetMipchainEiRKNS_2FD8FunctionEii, 
                        __ZN8GPUTools2SM2GL13TextureObjectINS_23AnalyzerBaseObjectTypesEE24processCopyTextureLevelsERKNS_2FD8FunctionEiPS4_, 
                        __ZN8GPUTools2SM2GL13TextureObjectINS_23AnalyzerBaseObjectTypesEE24processCopyTextureLevelsERKNS_2FD8FunctionEiPS4_U13block_pointerFvPvSA_E, 
                        __ZN8GPUTools2SM2GL13TextureObjectINS_23AnalyzerBaseObjectTypesEEC2Ev, 
                        __ZN8GPUTools2SM2GL14ProgramUniformINS_23AnalyzerBaseObjectTypesEE11setDefaultsEv, 
                        __ZN8GPUTools2SM2GL14ProgramUniformINS_23AnalyzerBaseObjectTypesEE15processFunctionERKNS_2FD8FunctionEiiPv, 
                        __ZN8GPUTools2SM2GL14ProgramUniformINS_23AnalyzerBaseObjectTypesEE29_updateUniformDataFromRawDataEPvii, 
                        __ZN8GPUTools2SM2GL14ProgramUniformINS_23AnalyzerBaseObjectTypesEEC2Ev, 
                        __ZN8GPUTools2SM2GL17FramebufferObjectINS_23AnalyzerBaseObjectTypesEE11setDefaultsEv, 
                        __ZN8GPUTools2SM2GL17FramebufferObjectINS_23AnalyzerBaseObjectTypesEE13detachTextureEiPNS1_17ObjectTrackingMapINS1_13TextureObjectIS3_EEiEES9_, 
                        __ZN8GPUTools2SM2GL17FramebufferObjectINS_23AnalyzerBaseObjectTypesEE15processFunctionERKNS_2FD8FunctionEiPNS1_17ObjectTrackingMapINS1_13TextureObjectIS3_EEiEESD_PNS9_INS1_18RenderbufferObjectIS3_EEiEE, 
                        __ZN8GPUTools2SM2GL17FramebufferObjectINS_23AnalyzerBaseObjectTypesEE18detachRenderbufferEiPNS1_17ObjectTrackingMapINS1_18RenderbufferObjectIS3_EEiEE, 
                        __ZN8GPUTools2SM2GL17FramebufferObjectINS_23AnalyzerBaseObjectTypesEEC2Ev, 
                        __ZN8GPUTools2SM2GL17ObjectTrackingMapINS1_10SyncObjectINS_23AnalyzerBaseObjectTypesEEEiE12createObjectEi, 
                        __ZN8GPUTools2SM2GL17ObjectTrackingMapINS1_10SyncObjectINS_23AnalyzerBaseObjectTypesEEEiE16getMutableObjectEi, 
                        __ZN8GPUTools2SM2GL17ObjectTrackingMapINS1_10SyncObjectINS_23AnalyzerBaseObjectTypesEEEiE20deleteExternalObjectEi, 
                        __ZN8GPUTools2SM2GL17ObjectTrackingMapINS1_10SyncObjectINS_23AnalyzerBaseObjectTypesEEEiE21releaseObjectInternalEi, 
                        __ZN8GPUTools2SM2GL17ObjectTrackingMapINS1_10SyncObjectINS_23AnalyzerBaseObjectTypesEEEiE29getMutableObjectForInternalIDEi, 
                        __ZN8GPUTools2SM2GL17ObjectTrackingMapINS1_11QueryObjectINS_23AnalyzerBaseObjectTypesEEEiE12createObjectEi, 
                        __ZN8GPUTools2SM2GL17ObjectTrackingMapINS1_11QueryObjectINS_23AnalyzerBaseObjectTypesEEEiE16getMutableObjectEi, 
                        __ZN8GPUTools2SM2GL17ObjectTrackingMapINS1_11QueryObjectINS_23AnalyzerBaseObjectTypesEEEiE20deleteExternalObjectEi, 
                        __ZN8GPUTools2SM2GL17ObjectTrackingMapINS1_11QueryObjectINS_23AnalyzerBaseObjectTypesEEEiE21releaseObjectInternalEi, 
                        __ZN8GPUTools2SM2GL17ObjectTrackingMapINS1_11QueryObjectINS_23AnalyzerBaseObjectTypesEEEiE29getMutableObjectForInternalIDEi, 
                        __ZN8GPUTools2SM2GL17ObjectTrackingMapINS1_12BufferObjectINS_23AnalyzerBaseObjectTypesEEEiE12createObjectEi, 
                        __ZN8GPUTools2SM2GL17ObjectTrackingMapINS1_12BufferObjectINS_23AnalyzerBaseObjectTypesEEEiE16getMutableObjectEi, 
                        __ZN8GPUTools2SM2GL17ObjectTrackingMapINS1_12BufferObjectINS_23AnalyzerBaseObjectTypesEEEiE20deleteExternalObjectEi, 
                        __ZN8GPUTools2SM2GL17ObjectTrackingMapINS1_12BufferObjectINS_23AnalyzerBaseObjectTypesEEEiE21releaseObjectInternalEi, 
                        __ZN8GPUTools2SM2GL17ObjectTrackingMapINS1_12BufferObjectINS_23AnalyzerBaseObjectTypesEEEiE29getMutableObjectForInternalIDEi, 
                        __ZN8GPUTools2SM2GL17ObjectTrackingMapINS1_12DrawableInfoINS_23AnalyzerBaseObjectTypesEEEyE12createObjectEy, 
                        __ZN8GPUTools2SM2GL17ObjectTrackingMapINS1_12DrawableInfoINS_23AnalyzerBaseObjectTypesEEEyE16getMutableObjectEy, 
                        __ZN8GPUTools2SM2GL17ObjectTrackingMapINS1_12DrawableInfoINS_23AnalyzerBaseObjectTypesEEEyE29getMutableObjectForInternalIDEi, 
                        __ZN8GPUTools2SM2GL17ObjectTrackingMapINS1_12ShaderObjectINS_23AnalyzerBaseObjectTypesEEEiE12createObjectEi, 
                        __ZN8GPUTools2SM2GL17ObjectTrackingMapINS1_12ShaderObjectINS_23AnalyzerBaseObjectTypesEEEiE16getMutableObjectEi, 
                        __ZN8GPUTools2SM2GL17ObjectTrackingMapINS1_12ShaderObjectINS_23AnalyzerBaseObjectTypesEEEiE20deleteExternalObjectEi, 
                        __ZN8GPUTools2SM2GL17ObjectTrackingMapINS1_12ShaderObjectINS_23AnalyzerBaseObjectTypesEEEiE21releaseObjectInternalEi, 
                        __ZN8GPUTools2SM2GL17ObjectTrackingMapINS1_12ShaderObjectINS_23AnalyzerBaseObjectTypesEEEiE29getMutableObjectForInternalIDEi, 
                        __ZN8GPUTools2SM2GL17ObjectTrackingMapINS1_13ProgramObjectINS_23AnalyzerBaseObjectTypesEEEiE12createObjectEi, 
                        __ZN8GPUTools2SM2GL17ObjectTrackingMapINS1_13ProgramObjectINS_23AnalyzerBaseObjectTypesEEEiE16getMutableObjectEi, 
                        __ZN8GPUTools2SM2GL17ObjectTrackingMapINS1_13ProgramObjectINS_23AnalyzerBaseObjectTypesEEEiE20deleteExternalObjectEi, 
                        __ZN8GPUTools2SM2GL17ObjectTrackingMapINS1_13ProgramObjectINS_23AnalyzerBaseObjectTypesEEEiE21releaseObjectInternalEi, 
                        __ZN8GPUTools2SM2GL17ObjectTrackingMapINS1_13ProgramObjectINS_23AnalyzerBaseObjectTypesEEEiE29getMutableObjectForInternalIDEi, 
                        __ZN8GPUTools2SM2GL17ObjectTrackingMapINS1_13SamplerObjectINS_23AnalyzerBaseObjectTypesEEEiE12createObjectEi, 
                        __ZN8GPUTools2SM2GL17ObjectTrackingMapINS1_13SamplerObjectINS_23AnalyzerBaseObjectTypesEEEiE16getMutableObjectEi, 
                        __ZN8GPUTools2SM2GL17ObjectTrackingMapINS1_13SamplerObjectINS_23AnalyzerBaseObjectTypesEEEiE20deleteExternalObjectEi, 
                        __ZN8GPUTools2SM2GL17ObjectTrackingMapINS1_13SamplerObjectINS_23AnalyzerBaseObjectTypesEEEiE21releaseObjectInternalEi, 
                        __ZN8GPUTools2SM2GL17ObjectTrackingMapINS1_13SamplerObjectINS_23AnalyzerBaseObjectTypesEEEiE29getMutableObjectForInternalIDEi, 
                        __ZN8GPUTools2SM2GL17ObjectTrackingMapINS1_13TextureObjectINS_23AnalyzerBaseObjectTypesEEEiE12createObjectEi, 
                        __ZN8GPUTools2SM2GL17ObjectTrackingMapINS1_13TextureObjectINS_23AnalyzerBaseObjectTypesEEEiE16createObjectZeroEv, 
                        __ZN8GPUTools2SM2GL17ObjectTrackingMapINS1_13TextureObjectINS_23AnalyzerBaseObjectTypesEEEiE16getMutableObjectEi, 
                        __ZN8GPUTools2SM2GL17ObjectTrackingMapINS1_13TextureObjectINS_23AnalyzerBaseObjectTypesEEEiE20deleteExternalObjectEi, 
                        __ZN8GPUTools2SM2GL17ObjectTrackingMapINS1_13TextureObjectINS_23AnalyzerBaseObjectTypesEEEiE21releaseObjectInternalEi, 
                        __ZN8GPUTools2SM2GL17ObjectTrackingMapINS1_13TextureObjectINS_23AnalyzerBaseObjectTypesEEEiE29getMutableObjectForInternalIDEi, 
                        __ZN8GPUTools2SM2GL17ObjectTrackingMapINS1_17FramebufferObjectINS_23AnalyzerBaseObjectTypesEEEiE12createObjectEi, 
                        __ZN8GPUTools2SM2GL17ObjectTrackingMapINS1_17FramebufferObjectINS_23AnalyzerBaseObjectTypesEEEiE16getMutableObjectEi, 
                        __ZN8GPUTools2SM2GL17ObjectTrackingMapINS1_17FramebufferObjectINS_23AnalyzerBaseObjectTypesEEEiE20deleteExternalObjectEi, 
                        __ZN8GPUTools2SM2GL17ObjectTrackingMapINS1_17FramebufferObjectINS_23AnalyzerBaseObjectTypesEEEiE21releaseObjectInternalEi, 
                        __ZN8GPUTools2SM2GL17ObjectTrackingMapINS1_17FramebufferObjectINS_23AnalyzerBaseObjectTypesEEEiE29getMutableObjectForInternalIDEi, 
                        __ZN8GPUTools2SM2GL17ObjectTrackingMapINS1_17VertexArrayObjectINS_23AnalyzerBaseObjectTypesEEEiE12createObjectEi, 
                        __ZN8GPUTools2SM2GL17ObjectTrackingMapINS1_17VertexArrayObjectINS_23AnalyzerBaseObjectTypesEEEiE16createObjectZeroEv, 
                        __ZN8GPUTools2SM2GL17ObjectTrackingMapINS1_17VertexArrayObjectINS_23AnalyzerBaseObjectTypesEEEiE16getMutableObjectEi, 
                        __ZN8GPUTools2SM2GL17ObjectTrackingMapINS1_17VertexArrayObjectINS_23AnalyzerBaseObjectTypesEEEiE20deleteExternalObjectEi, 
                        __ZN8GPUTools2SM2GL17ObjectTrackingMapINS1_17VertexArrayObjectINS_23AnalyzerBaseObjectTypesEEEiE21releaseObjectInternalEi, 
                        __ZN8GPUTools2SM2GL17ObjectTrackingMapINS1_17VertexArrayObjectINS_23AnalyzerBaseObjectTypesEEEiE29getMutableObjectForInternalIDEi, 
                        __ZN8GPUTools2SM2GL17ObjectTrackingMapINS1_18RenderbufferObjectINS_23AnalyzerBaseObjectTypesEEEiE12createObjectEi, 
                        __ZN8GPUTools2SM2GL17ObjectTrackingMapINS1_18RenderbufferObjectINS_23AnalyzerBaseObjectTypesEEEiE16getMutableObjectEi, 
                        __ZN8GPUTools2SM2GL17ObjectTrackingMapINS1_18RenderbufferObjectINS_23AnalyzerBaseObjectTypesEEEiE20deleteExternalObjectEi, 
                        __ZN8GPUTools2SM2GL17ObjectTrackingMapINS1_18RenderbufferObjectINS_23AnalyzerBaseObjectTypesEEEiE21releaseObjectInternalEi, 
                        __ZN8GPUTools2SM2GL17ObjectTrackingMapINS1_18RenderbufferObjectINS_23AnalyzerBaseObjectTypesEEEiE29getMutableObjectForInternalIDEi, 
                        __ZN8GPUTools2SM2GL17ObjectTrackingMapINS1_21ProgramPipelineObjectINS_23AnalyzerBaseObjectTypesEEEiE12createObjectEi, 
                        __ZN8GPUTools2SM2GL17ObjectTrackingMapINS1_21ProgramPipelineObjectINS_23AnalyzerBaseObjectTypesEEEiE16getMutableObjectEi, 
                        __ZN8GPUTools2SM2GL17ObjectTrackingMapINS1_21ProgramPipelineObjectINS_23AnalyzerBaseObjectTypesEEEiE20deleteExternalObjectEi, 
                        __ZN8GPUTools2SM2GL17ObjectTrackingMapINS1_21ProgramPipelineObjectINS_23AnalyzerBaseObjectTypesEEEiE21releaseObjectInternalEi, 
                        __ZN8GPUTools2SM2GL17ObjectTrackingMapINS1_21ProgramPipelineObjectINS_23AnalyzerBaseObjectTypesEEEiE29getMutableObjectForInternalIDEi, 
                        __ZN8GPUTools2SM2GL17ObjectTrackingMapINS1_23TransformFeedbackObjectINS_23AnalyzerBaseObjectTypesEEEiE12createObjectEi, 
                        __ZN8GPUTools2SM2GL17ObjectTrackingMapINS1_23TransformFeedbackObjectINS_23AnalyzerBaseObjectTypesEEEiE16createObjectZeroEv, 
                        __ZN8GPUTools2SM2GL17ObjectTrackingMapINS1_23TransformFeedbackObjectINS_23AnalyzerBaseObjectTypesEEEiE16getMutableObjectEi, 
                        __ZN8GPUTools2SM2GL17ObjectTrackingMapINS1_23TransformFeedbackObjectINS_23AnalyzerBaseObjectTypesEEEiE20deleteExternalObjectEi, 
                        __ZN8GPUTools2SM2GL17ObjectTrackingMapINS1_23TransformFeedbackObjectINS_23AnalyzerBaseObjectTypesEEEiE21releaseObjectInternalEi, 
                        __ZN8GPUTools2SM2GL17ObjectTrackingMapINS1_23TransformFeedbackObjectINS_23AnalyzerBaseObjectTypesEEEiE29getMutableObjectForInternalIDEi, 
                        __ZN8GPUTools2SM2GL17VertexArrayObjectINS_23AnalyzerBaseObjectTypesEE11setDefaultsEv, 
                        __ZN8GPUTools2SM2GL17VertexArrayObjectINS_23AnalyzerBaseObjectTypesEE15processFunctionERKNS_2FD8FunctionEiiiPNS1_17ObjectTrackingMapINS1_12BufferObjectIS3_EEiEE, 
                        __ZN8GPUTools2SM2GL17VertexArrayObjectINS_23AnalyzerBaseObjectTypesEEC2ERKS4_, 
                        __ZN8GPUTools2SM2GL17VertexArrayObjectINS_23AnalyzerBaseObjectTypesEEC2Ev, 
                        __ZN8GPUTools2SM2GL17VertexArrayObjectINS_23AnalyzerBaseObjectTypesEED2Ev, 
                        __ZN8GPUTools2SM2GL18ContextStateMirrorINS_23AnalyzerBaseObjectTypesEE11setDefaultsEv, 
                        __ZN8GPUTools2SM2GL18ContextStateMirrorINS_23AnalyzerBaseObjectTypesEE15processFunctionERKNS_2FD8FunctionEi, 
                        __ZN8GPUTools2SM2GL18ContextStateMirrorINS_23AnalyzerBaseObjectTypesEE20_ProcessFunctionDrawEPNS1_23TransformFeedbackObjectIS3_EERKNS_2FD8FunctionEi, 
                        __ZN8GPUTools2SM2GL18ContextStateMirrorINS_23AnalyzerBaseObjectTypesEE27_CreateDefaultTextureObjectERKNS_2FD8FunctionEi, 
                        __ZN8GPUTools2SM2GL18ContextStateMirrorINS_23AnalyzerBaseObjectTypesEE27getMutableBoundBufferObjectEi, 
                        __ZN8GPUTools2SM2GL18ContextStateMirrorINS_23AnalyzerBaseObjectTypesEE27processFunctionInternalDataERKNS_2FD8FunctionEi, 
                        __ZN8GPUTools2SM2GL18ContextStateMirrorINS_23AnalyzerBaseObjectTypesEE28_ProcessFunctionDrawExtendedEPKNS1_21FramebufferAttachmentIS3_EERKNS_2FD8FunctionEi, 
                        __ZN8GPUTools2SM2GL18ContextStateMirrorINS_23AnalyzerBaseObjectTypesEE28_ProcessFunctionDrawExtendedERKNS_2FD8FunctionEiji, 
                        __ZN8GPUTools2SM2GL18ContextStateMirrorINS_23AnalyzerBaseObjectTypesEE59_ApplyProgramAttachmentCountDeltaAndDeleteProgramIfRequiredEii, 
                        __ZN8GPUTools2SM2GL18ContextStateMirrorINS_23AnalyzerBaseObjectTypesEEC2ERKS4_, 
                        __ZN8GPUTools2SM2GL18ContextStateMirrorINS_23AnalyzerBaseObjectTypesEEC2Ev, 
                        __ZN8GPUTools2SM2GL18ContextStateMirrorINS_23AnalyzerBaseObjectTypesEED2Ev, 
                        __ZN8GPUTools2SM2GL18RenderbufferObjectINS_23AnalyzerBaseObjectTypesEE11setDefaultsEv, 
                        __ZN8GPUTools2SM2GL18RenderbufferObjectINS_23AnalyzerBaseObjectTypesEE15processFunctionERKNS_2FD8FunctionEiPKNS1_12DrawableInfoIS3_EE, 
                        __ZN8GPUTools2SM2GL18RenderbufferObjectINS_23AnalyzerBaseObjectTypesEEC2Ev, 
                        __ZN8GPUTools2SM2GL18StateMirrorManagerINS_23AnalyzerBaseObjectTypesEE15ProcessFunctionERKNS_2FD8FunctionEi, 
                        __ZN8GPUTools2SM2GL18StateMirrorManagerINS_23AnalyzerBaseObjectTypesEE24CreateContextStateMirrorEy, 
                        __ZN8GPUTools2SM2GL18StateMirrorManagerINS_23AnalyzerBaseObjectTypesEE24GetSharegroupStateMirrorEy, 
                        __ZN8GPUTools2SM2GL18StateMirrorManagerINS_23AnalyzerBaseObjectTypesEE5ClearEv, 
                        __ZN8GPUTools2SM2GL18StateMirrorManagerINS_23AnalyzerBaseObjectTypesEED2Ev, 
                        __ZN8GPUTools2SM2GL18StateMirrorManagerINS_23AnalyzerBaseObjectTypesEEaSERKS4_, 
                        __ZN8GPUTools2SM2GL19ProgramUniformBlockINS_23AnalyzerBaseObjectTypesEE11setDefaultsEv, 
                        __ZN8GPUTools2SM2GL19ProgramUniformBlockINS_23AnalyzerBaseObjectTypesEE15processFunctionERKNS_2FD8FunctionEi, 
                        __ZN8GPUTools2SM2GL19ProgramUniformBlockINS_23AnalyzerBaseObjectTypesEEC2Ev, 
                        __ZN8GPUTools2SM2GL21FramebufferAttachmentINS_23AnalyzerBaseObjectTypesEE15processFunctionERKNS_2FD8FunctionEiPNS1_17ObjectTrackingMapINS1_13TextureObjectIS3_EEiEESD_PNS9_INS1_18RenderbufferObjectIS3_EEiEE, 
                        __ZN8GPUTools2SM2GL21ProgramPipelineObjectINS_23AnalyzerBaseObjectTypesEE11setDefaultsEv, 
                        __ZN8GPUTools2SM2GL21ProgramPipelineObjectINS_23AnalyzerBaseObjectTypesEE15processFunctionERKNS_2FD8FunctionEiPNS1_17ObjectTrackingMapINS1_13ProgramObjectIS3_EEiEE, 
                        __ZN8GPUTools2SM2GL21ProgramPipelineObjectINS_23AnalyzerBaseObjectTypesEE59_ApplyProgramAttachmentCountDeltaAndDeleteProgramIfRequiredEiiPNS1_17ObjectTrackingMapINS1_13ProgramObjectIS3_EEiEE, 
                        __ZN8GPUTools2SM2GL21ProgramPipelineObjectINS_23AnalyzerBaseObjectTypesEEC2Ev, 
                        __ZN8GPUTools2SM2GL21SharegroupStateMirrorINS_23AnalyzerBaseObjectTypesEEC2ERKS4_, 
                        __ZN8GPUTools2SM2GL21SharegroupStateMirrorINS_23AnalyzerBaseObjectTypesEEC2Ey, 
                        __ZN8GPUTools2SM2GL21SharegroupStateMirrorINS_23AnalyzerBaseObjectTypesEED2Ev, 
                        __ZN8GPUTools2SM2GL23TransformFeedbackObjectINS_23AnalyzerBaseObjectTypesEE11setDefaultsEv, 
                        __ZN8GPUTools2SM2GL23TransformFeedbackObjectINS_23AnalyzerBaseObjectTypesEE15processFunctionERKNS_2FD8FunctionEiPNS1_17ObjectTrackingMapINS1_12BufferObjectIS3_EEiEE, 
                        __ZN8GPUTools2SM2GL23TransformFeedbackObjectINS_23AnalyzerBaseObjectTypesEEC2Ev, 
                        __ZN8GPUTools2SM2GL31ProgramTransformFeedbackVaryingINS_23AnalyzerBaseObjectTypesEE11setDefaultsEv, 
                        __ZN8GPUTools2SM2GL31ProgramTransformFeedbackVaryingINS_23AnalyzerBaseObjectTypesEE15processFunctionERKNS_2FD8FunctionEi, 
                        __ZN8GPUTools2SM2GL31ProgramTransformFeedbackVaryingINS_23AnalyzerBaseObjectTypesEEC2Ev, 
                        __ZNK8GPUTools2FD8Argument17ViewAsScalarArrayIdEET_y, 
                        __ZNK8GPUTools2FD8Argument17ViewAsScalarArrayIfEET_y, 
                        __ZNK8GPUTools2FD8Argument17ViewAsScalarArrayIiEET_y, 
                        __ZNK8GPUTools2FD8Argument17ViewAsScalarArrayIjEET_y, 
                        __ZNK8GPUTools2FD8Argument17ViewAsScalarArrayIxEET_y, 
                        __ZNK8GPUTools2FD8Argument17ViewAsScalarArrayIyEET_y, 
                        __ZNK8GPUTools2SM2GL17FramebufferObjectINS_23AnalyzerBaseObjectTypesEE14getParameterTvIjEEbiPT_, 
                        __ZNK8GPUTools2SM2GL17ObjectTrackingMapINS1_12DrawableInfoINS_23AnalyzerBaseObjectTypesEEEyE9getObjectEy, 
                        __ZNK8GPUTools2SM2GL17ObjectTrackingMapINS1_12ShaderObjectINS_23AnalyzerBaseObjectTypesEEEiE9getObjectEi, 
                        __ZNK8GPUTools2SM2GL17ObjectTrackingMapINS1_13ProgramObjectINS_23AnalyzerBaseObjectTypesEEEiE9getObjectEi, 
                        __ZNK8GPUTools2SM2GL18ContextStateMirrorINS_23AnalyzerBaseObjectTypesEE20_GetCurrentProgramIDEi, 
                        __ZNK8GPUTools2SM2GL21ProgramPipelineObjectINS_23AnalyzerBaseObjectTypesEE14getParameterTvIiEEbiPT_, 
                        __ZNK8GPUTools2SM2GL23TransformFeedbackObjectINS_23AnalyzerBaseObjectTypesEE14getParameterTvIjEEbiiPT_, 
                        __ZNKSt3__110__function6__funcIU8__strongU13block_pointerFvvENS_9allocatorIS4_EES2_E7__cloneEPNS0_6__baseIS2_EE, 
                        __ZNKSt3__110__function6__funcIU8__strongU13block_pointerFvvENS_9allocatorIS4_EES2_E7__cloneEv, 
                        __ZNKSt3__112__hash_tableINS_17__hash_value_typeIiNS_10shared_ptrIN8GPUTools2SM2GL12DrawableInfoINS3_23AnalyzerBaseObjectTypesEEEEEEENS_22__unordered_map_hasherIiSA_NS_4hashIiEELb1EEENS_21__unordered_map_equalIiSA_NS_8equal_toIiEELb1EEENS_9allocatorISA_EEE4findIiEENS_21__hash_const_iteratorIPNS_11__hash_nodeISA_PvEEEERKT_, 
                        __ZNKSt3__112__hash_tableINS_17__hash_value_typeIiNS_10shared_ptrIN8GPUTools2SM2GL12ShaderObjectINS3_23AnalyzerBaseObjectTypesEEEEEEENS_22__unordered_map_hasherIiSA_NS_4hashIiEELb1EEENS_21__unordered_map_equalIiSA_NS_8equal_toIiEELb1EEENS_9allocatorISA_EEE4findIiEENS_21__hash_const_iteratorIPNS_11__hash_nodeISA_PvEEEERKT_, 
                        __ZNKSt3__112__hash_tableINS_17__hash_value_typeIiNS_10shared_ptrIN8GPUTools2SM2GL13ProgramObjectINS3_23AnalyzerBaseObjectTypesEEEEEEENS_22__unordered_map_hasherIiSA_NS_4hashIiEELb1EEENS_21__unordered_map_equalIiSA_NS_8equal_toIiEELb1EEENS_9allocatorISA_EEE4findIiEENS_21__hash_const_iteratorIPNS_11__hash_nodeISA_PvEEEERKT_, 
                        __ZNKSt3__112__hash_tableINS_17__hash_value_typeIiNS_10shared_ptrIN8GPUTools2SM2GL17FramebufferObjectINS3_23AnalyzerBaseObjectTypesEEEEEEENS_22__unordered_map_hasherIiSA_NS_4hashIiEELb1EEENS_21__unordered_map_equalIiSA_NS_8equal_toIiEELb1EEENS_9allocatorISA_EEE4findIiEENS_21__hash_const_iteratorIPNS_11__hash_nodeISA_PvEEEERKT_, 
                        __ZNKSt3__112__hash_tableINS_17__hash_value_typeIiNS_10shared_ptrIN8GPUTools2SM2GL21ProgramPipelineObjectINS3_23AnalyzerBaseObjectTypesEEEEEEENS_22__unordered_map_hasherIiSA_NS_4hashIiEELb1EEENS_21__unordered_map_equalIiSA_NS_8equal_toIiEELb1EEENS_9allocatorISA_EEE4findIiEENS_21__hash_const_iteratorIPNS_11__hash_nodeISA_PvEEEERKT_, 
                        __ZNKSt3__112__hash_tableINS_17__hash_value_typeIiiEENS_22__unordered_map_hasherIiS2_NS_4hashIiEELb1EEENS_21__unordered_map_equalIiS2_NS_8equal_toIiEELb1EEENS_9allocatorIS2_EEE4findIiEENS_21__hash_const_iteratorIPNS_11__hash_nodeIS2_PvEEEERKT_, 
                        __ZNKSt3__112__hash_tableINS_17__hash_value_typeIyiEENS_22__unordered_map_hasherIyS2_NS_4hashIyEELb1EEENS_21__unordered_map_equalIyS2_NS_8equal_toIyEELb1EEENS_9allocatorIS2_EEE4findIyEENS_21__hash_const_iteratorIPNS_11__hash_nodeIS2_PvEEEERKT_, 
                        __ZNKSt3__16__treeIPN8GPUTools19StateDeltaGenerator12DiffFunctionENS_4lessIS4_EENS_9allocatorIS4_EEE4findIS4_EENS_21__tree_const_iteratorIS4_PNS_11__tree_nodeIS4_PvEElEERKT_, 
                        __ZNKSt3__16__treeIjNS_4lessIjEENS_9allocatorIjEEE4findIjEENS_21__tree_const_iteratorIjPNS_11__tree_nodeIjPvEElEERKT_, 
                        __ZNKSt3__18functionIFPvPKcPmEEclES3_S4_, __ZNKSt3__18functionIFvvEEclEv, 
                        __ZNSt3__110__function6__funcIU8__strongU13block_pointerFvvENS_9allocatorIS4_EES2_E18destroy_deallocateEv, 
                        __ZNSt3__110__function6__funcIU8__strongU13block_pointerFvvENS_9allocatorIS4_EES2_E7destroyEv, 
                        __ZNSt3__110__function6__funcIU8__strongU13block_pointerFvvENS_9allocatorIS4_EES2_ED0Ev, 
                        __ZNSt3__110__function6__funcIU8__strongU13block_pointerFvvENS_9allocatorIS4_EES2_ED1Ev, 
                        __ZNSt3__110__function6__funcIU8__strongU13block_pointerFvvENS_9allocatorIS4_EES2_EclEv, 
                        __ZNSt3__110shared_ptrIN8GPUTools2SM2GL10SyncObjectINS1_23AnalyzerBaseObjectTypesEEEE11make_sharedIJRS6_EEES7_DpOT_, 
                        __ZNSt3__110shared_ptrIN8GPUTools2SM2GL11QueryObjectINS1_23AnalyzerBaseObjectTypesEEEE11make_sharedIJEEES7_DpOT_, 
                        __ZNSt3__110shared_ptrIN8GPUTools2SM2GL11QueryObjectINS1_23AnalyzerBaseObjectTypesEEEE11make_sharedIJRS6_EEES7_DpOT_, 
                        __ZNSt3__110shared_ptrIN8GPUTools2SM2GL12BufferObjectINS1_23AnalyzerBaseObjectTypesEEEE11make_sharedIJEEES7_DpOT_, 
                        __ZNSt3__110shared_ptrIN8GPUTools2SM2GL12BufferObjectINS1_23AnalyzerBaseObjectTypesEEEE11make_sharedIJRS6_EEES7_DpOT_, 
                        __ZNSt3__110shared_ptrIN8GPUTools2SM2GL12ShaderObjectINS1_23AnalyzerBaseObjectTypesEEEE11make_sharedIJEEES7_DpOT_, 
                        __ZNSt3__110shared_ptrIN8GPUTools2SM2GL12ShaderObjectINS1_23AnalyzerBaseObjectTypesEEEE11make_sharedIJRS6_EEES7_DpOT_, 
                        __ZNSt3__110shared_ptrIN8GPUTools2SM2GL13ProgramObjectINS1_23AnalyzerBaseObjectTypesEEEE11make_sharedIJEEES7_DpOT_, 
                        __ZNSt3__110shared_ptrIN8GPUTools2SM2GL13ProgramObjectINS1_23AnalyzerBaseObjectTypesEEEE11make_sharedIJRS6_EEES7_DpOT_, 
                        __ZNSt3__110shared_ptrIN8GPUTools2SM2GL13SamplerObjectINS1_23AnalyzerBaseObjectTypesEEEE11make_sharedIJEEES7_DpOT_, 
                        __ZNSt3__110shared_ptrIN8GPUTools2SM2GL13SamplerObjectINS1_23AnalyzerBaseObjectTypesEEEE11make_sharedIJRS6_EEES7_DpOT_, 
                        __ZNSt3__110shared_ptrIN8GPUTools2SM2GL13TextureObjectINS1_23AnalyzerBaseObjectTypesEEEE11make_sharedIJEEES7_DpOT_, 
                        __ZNSt3__110shared_ptrIN8GPUTools2SM2GL13TextureObjectINS1_23AnalyzerBaseObjectTypesEEEE11make_sharedIJRS6_EEES7_DpOT_, 
                        __ZNSt3__110shared_ptrIN8GPUTools2SM2GL17FramebufferObjectINS1_23AnalyzerBaseObjectTypesEEEE11make_sharedIJEEES7_DpOT_, 
                        __ZNSt3__110shared_ptrIN8GPUTools2SM2GL17FramebufferObjectINS1_23AnalyzerBaseObjectTypesEEEE11make_sharedIJRS6_EEES7_DpOT_, 
                        __ZNSt3__110shared_ptrIN8GPUTools2SM2GL17VertexArrayObjectINS1_23AnalyzerBaseObjectTypesEEEE11make_sharedIJEEES7_DpOT_, 
                        __ZNSt3__110shared_ptrIN8GPUTools2SM2GL17VertexArrayObjectINS1_23AnalyzerBaseObjectTypesEEEE11make_sharedIJRS6_EEES7_DpOT_, 
                        __ZNSt3__110shared_ptrIN8GPUTools2SM2GL18RenderbufferObjectINS1_23AnalyzerBaseObjectTypesEEEE11make_sharedIJEEES7_DpOT_, 
                        __ZNSt3__110shared_ptrIN8GPUTools2SM2GL18RenderbufferObjectINS1_23AnalyzerBaseObjectTypesEEEE11make_sharedIJRS6_EEES7_DpOT_, 
                        __ZNSt3__110shared_ptrIN8GPUTools2SM2GL21ProgramPipelineObjectINS1_23AnalyzerBaseObjectTypesEEEE11make_sharedIJEEES7_DpOT_, 
                        __ZNSt3__110shared_ptrIN8GPUTools2SM2GL21ProgramPipelineObjectINS1_23AnalyzerBaseObjectTypesEEEE11make_sharedIJRS6_EEES7_DpOT_, 
                        __ZNSt3__110shared_ptrIN8GPUTools2SM2GL23TransformFeedbackObjectINS1_23AnalyzerBaseObjectTypesEEEE11make_sharedIJEEES7_DpOT_, 
                        __ZNSt3__110shared_ptrIN8GPUTools2SM2GL23TransformFeedbackObjectINS1_23AnalyzerBaseObjectTypesEEEE11make_sharedIJRS6_EEES7_DpOT_, 
                        __ZNSt3__112__deque_baseINS_12basic_stringIcNS_11char_traitsIcEENS_9allocatorIcEEEENS4_IS6_EEE5clearEv, 
                        __ZNSt3__112__deque_baseINS_12basic_stringIcNS_11char_traitsIcEENS_9allocatorIcEEEENS4_IS6_EEED2Ev, 
                        __ZNSt3__112__deque_baseIPN8GPUTools19StateDeltaGenerator12DiffFunctionENS_9allocatorIS4_EEE5clearEv, 
                        __ZNSt3__112__deque_baseIPN8GPUTools19StateDeltaGenerator12DiffFunctionENS_9allocatorIS4_EEED2Ev, 
                        __ZNSt3__112__hash_tableINS_17__hash_value_typeINS_12basic_stringIcNS_11char_traitsIcEENS_9allocatorIcEEEEiEENS_22__unordered_map_hasherIS7_S8_NS_4hashIS7_EELb1EEENS_21__unordered_map_equalIS7_S8_NS_8equal_toIS7_EELb1EEENS5_IS8_EEE12__deallocateEPNS_11__hash_nodeIS8_PvEE, 
                        __ZNSt3__112__hash_tableINS_17__hash_value_typeINS_12basic_stringIcNS_11char_traitsIcEENS_9allocatorIcEEEEiEENS_22__unordered_map_hasherIS7_S8_NS_4hashIS7_EELb1EEENS_21__unordered_map_equalIS7_S8_NS_8equal_toIS7_EELb1EEENS5_IS8_EEE21__construct_node_hashIRKNS_21piecewise_construct_tEJNS_5tupleIJRKS7_EEENSN_IJEEEEEENS_10unique_ptrINS_11__hash_nodeIS8_PvEENS_22__hash_node_destructorINS5_ISV_EEEEEEmOT_DpOT0_, 
                        __ZNSt3__112__hash_tableINS_17__hash_value_typeINS_12basic_stringIcNS_11char_traitsIcEENS_9allocatorIcEEEEiEENS_22__unordered_map_hasherIS7_S8_NS_4hashIS7_EELb1EEENS_21__unordered_map_equalIS7_S8_NS_8equal_toIS7_EELb1EEENS5_IS8_EEE21__construct_node_hashIRKNS_4pairIKS7_iEEJEEENS_10unique_ptrINS_11__hash_nodeIS8_PvEENS_22__hash_node_destructorINS5_ISS_EEEEEEmOT_DpOT0_, 
                        __ZNSt3__112__hash_tableINS_17__hash_value_typeINS_12basic_stringIcNS_11char_traitsIcEENS_9allocatorIcEEEEiEENS_22__unordered_map_hasherIS7_S8_NS_4hashIS7_EELb1EEENS_21__unordered_map_equalIS7_S8_NS_8equal_toIS7_EELb1EEENS5_IS8_EEE5clearEv, 
                        __ZNSt3__112__hash_tableINS_17__hash_value_typeINS_12basic_stringIcNS_11char_traitsIcEENS_9allocatorIcEEEEiEENS_22__unordered_map_hasherIS7_S8_NS_4hashIS7_EELb1EEENS_21__unordered_map_equalIS7_S8_NS_8equal_toIS7_EELb1EEENS5_IS8_EEE6rehashEm, 
                        __ZNSt3__112__hash_tableINS_17__hash_value_typeINS_12basic_stringIcNS_11char_traitsIcEENS_9allocatorIcEEEEiEENS_22__unordered_map_hasherIS7_S8_NS_4hashIS7_EELb1EEENS_21__unordered_map_equalIS7_S8_NS_8equal_toIS7_EELb1EEENS5_IS8_EEE8__rehashEm, 
                        __ZNSt3__112__hash_tableINS_17__hash_value_typeINS_12basic_stringIcNS_11char_traitsIcEENS_9allocatorIcEEEEiEENS_22__unordered_map_hasherIS7_S8_NS_4hashIS7_EELb1EEENS_21__unordered_map_equalIS7_S8_NS_8equal_toIS7_EELb1EEENS5_IS8_EEED2Ev, 
                        __ZNSt3__112__hash_tableINS_17__hash_value_typeIiN8GPUTools2SM2GL12TextureLevelINS2_23AnalyzerBaseObjectTypesEEEEENS_22__unordered_map_hasherIiS8_NS_4hashIiEELb1EEENS_21__unordered_map_equalIiS8_NS_8equal_toIiEELb1EEENS_9allocatorIS8_EEE12__deallocateEPNS_11__hash_nodeIS8_PvEE, 
                        __ZNSt3__112__hash_tableINS_17__hash_value_typeIiN8GPUTools2SM2GL12TextureLevelINS2_23AnalyzerBaseObjectTypesEEEEENS_22__unordered_map_hasherIiS8_NS_4hashIiEELb1EEENS_21__unordered_map_equalIiS8_NS_8equal_toIiEELb1EEENS_9allocatorIS8_EEE20__node_insert_uniqueEPNS_11__hash_nodeIS8_PvEE, 
                        __ZNSt3__112__hash_tableINS_17__hash_value_typeIiN8GPUTools2SM2GL12TextureLevelINS2_23AnalyzerBaseObjectTypesEEEEENS_22__unordered_map_hasherIiS8_NS_4hashIiEELb1EEENS_21__unordered_map_equalIiS8_NS_8equal_toIiEELb1EEENS_9allocatorIS8_EEE21__construct_node_hashIRKNS_4pairIKiS7_EEJEEENS_10unique_ptrINS_11__hash_nodeIS8_PvEENS_22__hash_node_destructorINSH_IST_EEEEEEmOT_DpOT0_, 
                        __ZNSt3__112__hash_tableINS_17__hash_value_typeIiN8GPUTools2SM2GL12TextureLevelINS2_23AnalyzerBaseObjectTypesEEEEENS_22__unordered_map_hasherIiS8_NS_4hashIiEELb1EEENS_21__unordered_map_equalIiS8_NS_8equal_toIiEELb1EEENS_9allocatorIS8_EEE4findIiEENS_15__hash_iteratorIPNS_11__hash_nodeIS8_PvEEEERKT_, 
                        __ZNSt3__112__hash_tableINS_17__hash_value_typeIiN8GPUTools2SM2GL12TextureLevelINS2_23AnalyzerBaseObjectTypesEEEEENS_22__unordered_map_hasherIiS8_NS_4hashIiEELb1EEENS_21__unordered_map_equalIiS8_NS_8equal_toIiEELb1EEENS_9allocatorIS8_EEE5eraseENS_21__hash_const_iteratorIPNS_11__hash_nodeIS8_PvEEEE, 
                        __ZNSt3__112__hash_tableINS_17__hash_value_typeIiN8GPUTools2SM2GL12TextureLevelINS2_23AnalyzerBaseObjectTypesEEEEENS_22__unordered_map_hasherIiS8_NS_4hashIiEELb1EEENS_21__unordered_map_equalIiS8_NS_8equal_toIiEELb1EEENS_9allocatorIS8_EEE6rehashEm, 
                        __ZNSt3__112__hash_tableINS_17__hash_value_typeIiN8GPUTools2SM2GL12TextureLevelINS2_23AnalyzerBaseObjectTypesEEEEENS_22__unordered_map_hasherIiS8_NS_4hashIiEELb1EEENS_21__unordered_map_equalIiS8_NS_8equal_toIiEELb1EEENS_9allocatorIS8_EEE6removeENS_21__hash_const_iteratorIPNS_11__hash_nodeIS8_PvEEEE, 
                        __ZNSt3__112__hash_tableINS_17__hash_value_typeIiN8GPUTools2SM2GL12TextureLevelINS2_23AnalyzerBaseObjectTypesEEEEENS_22__unordered_map_hasherIiS8_NS_4hashIiEELb1EEENS_21__unordered_map_equalIiS8_NS_8equal_toIiEELb1EEENS_9allocatorIS8_EEE8__rehashEm, 
                        __ZNSt3__112__hash_tableINS_17__hash_value_typeIiN8GPUTools2SM2GL12TextureLevelINS2_23AnalyzerBaseObjectTypesEEEEENS_22__unordered_map_hasherIiS8_NS_4hashIiEELb1EEENS_21__unordered_map_equalIiS8_NS_8equal_toIiEELb1EEENS_9allocatorIS8_EEED2Ev, 
                        __ZNSt3__112__hash_tableINS_17__hash_value_typeIiN8GPUTools2SM2GL13ProgramAttribINS2_23AnalyzerBaseObjectTypesEEEEENS_22__unordered_map_hasherIiS8_NS_4hashIiEELb1EEENS_21__unordered_map_equalIiS8_NS_8equal_toIiEELb1EEENS_9allocatorIS8_EEE12__deallocateEPNS_11__hash_nodeIS8_PvEE, 
                        __ZNSt3__112__hash_tableINS_17__hash_value_typeIiN8GPUTools2SM2GL13ProgramAttribINS2_23AnalyzerBaseObjectTypesEEEEENS_22__unordered_map_hasherIiS8_NS_4hashIiEELb1EEENS_21__unordered_map_equalIiS8_NS_8equal_toIiEELb1EEENS_9allocatorIS8_EEE21__construct_node_hashIRKNS_21piecewise_construct_tEJNS_5tupleIJRKiEEENSO_IJEEEEEENS_10unique_ptrINS_11__hash_nodeIS8_PvEENS_22__hash_node_destructorINSH_ISW_EEEEEEmOT_DpOT0_, 
                        __ZNSt3__112__hash_tableINS_17__hash_value_typeIiN8GPUTools2SM2GL13ProgramAttribINS2_23AnalyzerBaseObjectTypesEEEEENS_22__unordered_map_hasherIiS8_NS_4hashIiEELb1EEENS_21__unordered_map_equalIiS8_NS_8equal_toIiEELb1EEENS_9allocatorIS8_EEE21__construct_node_hashIRKNS_4pairIKiS7_EEJEEENS_10unique_ptrINS_11__hash_nodeIS8_PvEENS_22__hash_node_destructorINSH_IST_EEEEEEmOT_DpOT0_, 
                        __ZNSt3__112__hash_tableINS_17__hash_value_typeIiN8GPUTools2SM2GL13ProgramAttribINS2_23AnalyzerBaseObjectTypesEEEEENS_22__unordered_map_hasherIiS8_NS_4hashIiEELb1EEENS_21__unordered_map_equalIiS8_NS_8equal_toIiEELb1EEENS_9allocatorIS8_EEE5clearEv, 
                        __ZNSt3__112__hash_tableINS_17__hash_value_typeIiN8GPUTools2SM2GL13ProgramAttribINS2_23AnalyzerBaseObjectTypesEEEEENS_22__unordered_map_hasherIiS8_NS_4hashIiEELb1EEENS_21__unordered_map_equalIiS8_NS_8equal_toIiEELb1EEENS_9allocatorIS8_EEE6rehashEm, 
                        __ZNSt3__112__hash_tableINS_17__hash_value_typeIiN8GPUTools2SM2GL13ProgramAttribINS2_23AnalyzerBaseObjectTypesEEEEENS_22__unordered_map_hasherIiS8_NS_4hashIiEELb1EEENS_21__unordered_map_equalIiS8_NS_8equal_toIiEELb1EEENS_9allocatorIS8_EEE8__rehashEm, 
                        __ZNSt3__112__hash_tableINS_17__hash_value_typeIiN8GPUTools2SM2GL13ProgramAttribINS2_23AnalyzerBaseObjectTypesEEEEENS_22__unordered_map_hasherIiS8_NS_4hashIiEELb1EEENS_21__unordered_map_equalIiS8_NS_8equal_toIiEELb1EEENS_9allocatorIS8_EEED2Ev, 
                        __ZNSt3__112__hash_tableINS_17__hash_value_typeIiN8GPUTools2SM2GL14ProgramUniformINS2_23AnalyzerBaseObjectTypesEEEEENS_22__unordered_map_hasherIiS8_NS_4hashIiEELb1EEENS_21__unordered_map_equalIiS8_NS_8equal_toIiEELb1EEENS_9allocatorIS8_EEE12__deallocateEPNS_11__hash_nodeIS8_PvEE, 
                        __ZNSt3__112__hash_tableINS_17__hash_value_typeIiN8GPUTools2SM2GL14ProgramUniformINS2_23AnalyzerBaseObjectTypesEEEEENS_22__unordered_map_hasherIiS8_NS_4hashIiEELb1EEENS_21__unordered_map_equalIiS8_NS_8equal_toIiEELb1EEENS_9allocatorIS8_EEE21__construct_node_hashIRKNS_21piecewise_construct_tEJNS_5tupleIJRKiEEENSO_IJEEEEEENS_10unique_ptrINS_11__hash_nodeIS8_PvEENS_22__hash_node_destructorINSH_ISW_EEEEEEmOT_DpOT0_, 
                        __ZNSt3__112__hash_tableINS_17__hash_value_typeIiN8GPUTools2SM2GL14ProgramUniformINS2_23AnalyzerBaseObjectTypesEEEEENS_22__unordered_map_hasherIiS8_NS_4hashIiEELb1EEENS_21__unordered_map_equalIiS8_NS_8equal_toIiEELb1EEENS_9allocatorIS8_EEE21__construct_node_hashIRKNS_4pairIKiS7_EEJEEENS_10unique_ptrINS_11__hash_nodeIS8_PvEENS_22__hash_node_destructorINSH_IST_EEEEEEmOT_DpOT0_, 
                        __ZNSt3__112__hash_tableINS_17__hash_value_typeIiN8GPUTools2SM2GL14ProgramUniformINS2_23AnalyzerBaseObjectTypesEEEEENS_22__unordered_map_hasherIiS8_NS_4hashIiEELb1EEENS_21__unordered_map_equalIiS8_NS_8equal_toIiEELb1EEENS_9allocatorIS8_EEE4findIiEENS_15__hash_iteratorIPNS_11__hash_nodeIS8_PvEEEERKT_, 
                        __ZNSt3__112__hash_tableINS_17__hash_value_typeIiN8GPUTools2SM2GL14ProgramUniformINS2_23AnalyzerBaseObjectTypesEEEEENS_22__unordered_map_hasherIiS8_NS_4hashIiEELb1EEENS_21__unordered_map_equalIiS8_NS_8equal_toIiEELb1EEENS_9allocatorIS8_EEE5clearEv, 
                        __ZNSt3__112__hash_tableINS_17__hash_value_typeIiN8GPUTools2SM2GL14ProgramUniformINS2_23AnalyzerBaseObjectTypesEEEEENS_22__unordered_map_hasherIiS8_NS_4hashIiEELb1EEENS_21__unordered_map_equalIiS8_NS_8equal_toIiEELb1EEENS_9allocatorIS8_EEE6rehashEm, 
                        __ZNSt3__112__hash_tableINS_17__hash_value_typeIiN8GPUTools2SM2GL14ProgramUniformINS2_23AnalyzerBaseObjectTypesEEEEENS_22__unordered_map_hasherIiS8_NS_4hashIiEELb1EEENS_21__unordered_map_equalIiS8_NS_8equal_toIiEELb1EEENS_9allocatorIS8_EEE8__rehashEm, 
                        __ZNSt3__112__hash_tableINS_17__hash_value_typeIiN8GPUTools2SM2GL14ProgramUniformINS2_23AnalyzerBaseObjectTypesEEEEENS_22__unordered_map_hasherIiS8_NS_4hashIiEELb1EEENS_21__unordered_map_equalIiS8_NS_8equal_toIiEELb1EEENS_9allocatorIS8_EEED2Ev, 
                        __ZNSt3__112__hash_tableINS_17__hash_value_typeIiN8GPUTools2SM2GL19ProgramUniformBlockINS2_23AnalyzerBaseObjectTypesEEEEENS_22__unordered_map_hasherIiS8_NS_4hashIiEELb1EEENS_21__unordered_map_equalIiS8_NS_8equal_toIiEELb1EEENS_9allocatorIS8_EEE12__deallocateEPNS_11__hash_nodeIS8_PvEE, 
                        __ZNSt3__112__hash_tableINS_17__hash_value_typeIiN8GPUTools2SM2GL19ProgramUniformBlockINS2_23AnalyzerBaseObjectTypesEEEEENS_22__unordered_map_hasherIiS8_NS_4hashIiEELb1EEENS_21__unordered_map_equalIiS8_NS_8equal_toIiEELb1EEENS_9allocatorIS8_EEE21__construct_node_hashIRKNS_21piecewise_construct_tEJNS_5tupleIJOiEEENSO_IJEEEEEENS_10unique_ptrINS_11__hash_nodeIS8_PvEENS_22__hash_node_destructorINSH_ISV_EEEEEEmOT_DpOT0_, 
                        __ZNSt3__112__hash_tableINS_17__hash_value_typeIiN8GPUTools2SM2GL19ProgramUniformBlockINS2_23AnalyzerBaseObjectTypesEEEEENS_22__unordered_map_hasherIiS8_NS_4hashIiEELb1EEENS_21__unordered_map_equalIiS8_NS_8equal_toIiEELb1EEENS_9allocatorIS8_EEE21__construct_node_hashIRKNS_21piecewise_construct_tEJNS_5tupleIJRKiEEENSO_IJEEEEEENS_10unique_ptrINS_11__hash_nodeIS8_PvEENS_22__hash_node_destructorINSH_ISW_EEEEEEmOT_DpOT0_, 
                        __ZNSt3__112__hash_tableINS_17__hash_value_typeIiN8GPUTools2SM2GL19ProgramUniformBlockINS2_23AnalyzerBaseObjectTypesEEEEENS_22__unordered_map_hasherIiS8_NS_4hashIiEELb1EEENS_21__unordered_map_equalIiS8_NS_8equal_toIiEELb1EEENS_9allocatorIS8_EEE21__construct_node_hashIRKNS_4pairIKiS7_EEJEEENS_10unique_ptrINS_11__hash_nodeIS8_PvEENS_22__hash_node_destructorINSH_IST_EEEEEEmOT_DpOT0_, 
                        __ZNSt3__112__hash_tableINS_17__hash_value_typeIiN8GPUTools2SM2GL19ProgramUniformBlockINS2_23AnalyzerBaseObjectTypesEEEEENS_22__unordered_map_hasherIiS8_NS_4hashIiEELb1EEENS_21__unordered_map_equalIiS8_NS_8equal_toIiEELb1EEENS_9allocatorIS8_EEE5clearEv, 
                        __ZNSt3__112__hash_tableINS_17__hash_value_typeIiN8GPUTools2SM2GL19ProgramUniformBlockINS2_23AnalyzerBaseObjectTypesEEEEENS_22__unordered_map_hasherIiS8_NS_4hashIiEELb1EEENS_21__unordered_map_equalIiS8_NS_8equal_toIiEELb1EEENS_9allocatorIS8_EEE6rehashEm, 
                        __ZNSt3__112__hash_tableINS_17__hash_value_typeIiN8GPUTools2SM2GL19ProgramUniformBlockINS2_23AnalyzerBaseObjectTypesEEEEENS_22__unordered_map_hasherIiS8_NS_4hashIiEELb1EEENS_21__unordered_map_equalIiS8_NS_8equal_toIiEELb1EEENS_9allocatorIS8_EEE8__rehashEm, 
                        __ZNSt3__112__hash_tableINS_17__hash_value_typeIiN8GPUTools2SM2GL19ProgramUniformBlockINS2_23AnalyzerBaseObjectTypesEEEEENS_22__unordered_map_hasherIiS8_NS_4hashIiEELb1EEENS_21__unordered_map_equalIiS8_NS_8equal_toIiEELb1EEENS_9allocatorIS8_EEED2Ev, 
                        __ZNSt3__112__hash_tableINS_17__hash_value_typeIiN8GPUTools2SM2GL31ProgramTransformFeedbackVaryingINS2_23AnalyzerBaseObjectTypesEEEEENS_22__unordered_map_hasherIiS8_NS_4hashIiEELb1EEENS_21__unordered_map_equalIiS8_NS_8equal_toIiEELb1EEENS_9allocatorIS8_EEE12__deallocateEPNS_11__hash_nodeIS8_PvEE, 
                        __ZNSt3__112__hash_tableINS_17__hash_value_typeIiN8GPUTools2SM2GL31ProgramTransformFeedbackVaryingINS2_23AnalyzerBaseObjectTypesEEEEENS_22__unordered_map_hasherIiS8_NS_4hashIiEELb1EEENS_21__unordered_map_equalIiS8_NS_8equal_toIiEELb1EEENS_9allocatorIS8_EEE21__construct_node_hashIRKNS_21piecewise_construct_tEJNS_5tupleIJRKiEEENSO_IJEEEEEENS_10unique_ptrINS_11__hash_nodeIS8_PvEENS_22__hash_node_destructorINSH_ISW_EEEEEEmOT_DpOT0_, 
                        __ZNSt3__112__hash_tableINS_17__hash_value_typeIiN8GPUTools2SM2GL31ProgramTransformFeedbackVaryingINS2_23AnalyzerBaseObjectTypesEEEEENS_22__unordered_map_hasherIiS8_NS_4hashIiEELb1EEENS_21__unordered_map_equalIiS8_NS_8equal_toIiEELb1EEENS_9allocatorIS8_EEE21__construct_node_hashIRKNS_4pairIKiS7_EEJEEENS_10unique_ptrINS_11__hash_nodeIS8_PvEENS_22__hash_node_destructorINSH_IST_EEEEEEmOT_DpOT0_, 
                        __ZNSt3__112__hash_tableINS_17__hash_value_typeIiN8GPUTools2SM2GL31ProgramTransformFeedbackVaryingINS2_23AnalyzerBaseObjectTypesEEEEENS_22__unordered_map_hasherIiS8_NS_4hashIiEELb1EEENS_21__unordered_map_equalIiS8_NS_8equal_toIiEELb1EEENS_9allocatorIS8_EEE5clearEv, 
                        __ZNSt3__112__hash_tableINS_17__hash_value_typeIiN8GPUTools2SM2GL31ProgramTransformFeedbackVaryingINS2_23AnalyzerBaseObjectTypesEEEEENS_22__unordered_map_hasherIiS8_NS_4hashIiEELb1EEENS_21__unordered_map_equalIiS8_NS_8equal_toIiEELb1EEENS_9allocatorIS8_EEE6rehashEm, 
                        __ZNSt3__112__hash_tableINS_17__hash_value_typeIiN8GPUTools2SM2GL31ProgramTransformFeedbackVaryingINS2_23AnalyzerBaseObjectTypesEEEEENS_22__unordered_map_hasherIiS8_NS_4hashIiEELb1EEENS_21__unordered_map_equalIiS8_NS_8equal_toIiEELb1EEENS_9allocatorIS8_EEE8__rehashEm, 
                        __ZNSt3__112__hash_tableINS_17__hash_value_typeIiN8GPUTools2SM2GL31ProgramTransformFeedbackVaryingINS2_23AnalyzerBaseObjectTypesEEEEENS_22__unordered_map_hasherIiS8_NS_4hashIiEELb1EEENS_21__unordered_map_equalIiS8_NS_8equal_toIiEELb1EEENS_9allocatorIS8_EEED2Ev, 
                        __ZNSt3__112__hash_tableINS_17__hash_value_typeIiNS_10shared_ptrIN8GPUTools2SM2GL10SyncObjectINS3_23AnalyzerBaseObjectTypesEEEEEEENS_22__unordered_map_hasherIiSA_NS_4hashIiEELb1EEENS_21__unordered_map_equalIiSA_NS_8equal_toIiEELb1EEENS_9allocatorISA_EEE12__deallocateEPNS_11__hash_nodeISA_PvEE, 
                        __ZNSt3__112__hash_tableINS_17__hash_value_typeIiNS_10shared_ptrIN8GPUTools2SM2GL10SyncObjectINS3_23AnalyzerBaseObjectTypesEEEEEEENS_22__unordered_map_hasherIiSA_NS_4hashIiEELb1EEENS_21__unordered_map_equalIiSA_NS_8equal_toIiEELb1EEENS_9allocatorISA_EEE14__erase_uniqueIiEEmRKT_, 
                        __ZNSt3__112__hash_tableINS_17__hash_value_typeIiNS_10shared_ptrIN8GPUTools2SM2GL10SyncObjectINS3_23AnalyzerBaseObjectTypesEEEEEEENS_22__unordered_map_hasherIiSA_NS_4hashIiEELb1EEENS_21__unordered_map_equalIiSA_NS_8equal_toIiEELb1EEENS_9allocatorISA_EEE21__construct_node_hashIRKNS_4pairIKiS9_EEJEEENS_10unique_ptrINS_11__hash_nodeISA_PvEENS_22__hash_node_destructorINSJ_ISV_EEEEEEmOT_DpOT0_, 
                        __ZNSt3__112__hash_tableINS_17__hash_value_typeIiNS_10shared_ptrIN8GPUTools2SM2GL10SyncObjectINS3_23AnalyzerBaseObjectTypesEEEEEEENS_22__unordered_map_hasherIiSA_NS_4hashIiEELb1EEENS_21__unordered_map_equalIiSA_NS_8equal_toIiEELb1EEENS_9allocatorISA_EEE4findIiEENS_15__hash_iteratorIPNS_11__hash_nodeISA_PvEEEERKT_, 
                        __ZNSt3__112__hash_tableINS_17__hash_value_typeIiNS_10shared_ptrIN8GPUTools2SM2GL10SyncObjectINS3_23AnalyzerBaseObjectTypesEEEEEEENS_22__unordered_map_hasherIiSA_NS_4hashIiEELb1EEENS_21__unordered_map_equalIiSA_NS_8equal_toIiEELb1EEENS_9allocatorISA_EEE5eraseENS_21__hash_const_iteratorIPNS_11__hash_nodeISA_PvEEEE, 
                        __ZNSt3__112__hash_tableINS_17__hash_value_typeIiNS_10shared_ptrIN8GPUTools2SM2GL10SyncObjectINS3_23AnalyzerBaseObjectTypesEEEEEEENS_22__unordered_map_hasherIiSA_NS_4hashIiEELb1EEENS_21__unordered_map_equalIiSA_NS_8equal_toIiEELb1EEENS_9allocatorISA_EEE6rehashEm, 
                        __ZNSt3__112__hash_tableINS_17__hash_value_typeIiNS_10shared_ptrIN8GPUTools2SM2GL10SyncObjectINS3_23AnalyzerBaseObjectTypesEEEEEEENS_22__unordered_map_hasherIiSA_NS_4hashIiEELb1EEENS_21__unordered_map_equalIiSA_NS_8equal_toIiEELb1EEENS_9allocatorISA_EEE6removeENS_21__hash_const_iteratorIPNS_11__hash_nodeISA_PvEEEE, 
                        __ZNSt3__112__hash_tableINS_17__hash_value_typeIiNS_10shared_ptrIN8GPUTools2SM2GL10SyncObjectINS3_23AnalyzerBaseObjectTypesEEEEEEENS_22__unordered_map_hasherIiSA_NS_4hashIiEELb1EEENS_21__unordered_map_equalIiSA_NS_8equal_toIiEELb1EEENS_9allocatorISA_EEE8__rehashEm, 
                        __ZNSt3__112__hash_tableINS_17__hash_value_typeIiNS_10shared_ptrIN8GPUTools2SM2GL10SyncObjectINS3_23AnalyzerBaseObjectTypesEEEEEEENS_22__unordered_map_hasherIiSA_NS_4hashIiEELb1EEENS_21__unordered_map_equalIiSA_NS_8equal_toIiEELb1EEENS_9allocatorISA_EEED2Ev, 
                        __ZNSt3__112__hash_tableINS_17__hash_value_typeIiNS_10shared_ptrIN8GPUTools2SM2GL11QueryObjectINS3_23AnalyzerBaseObjectTypesEEEEEEENS_22__unordered_map_hasherIiSA_NS_4hashIiEELb1EEENS_21__unordered_map_equalIiSA_NS_8equal_toIiEELb1EEENS_9allocatorISA_EEE12__deallocateEPNS_11__hash_nodeISA_PvEE, 
                        __ZNSt3__112__hash_tableINS_17__hash_value_typeIiNS_10shared_ptrIN8GPUTools2SM2GL11QueryObjectINS3_23AnalyzerBaseObjectTypesEEEEEEENS_22__unordered_map_hasherIiSA_NS_4hashIiEELb1EEENS_21__unordered_map_equalIiSA_NS_8equal_toIiEELb1EEENS_9allocatorISA_EEE14__erase_uniqueIiEEmRKT_, 
                        __ZNSt3__112__hash_tableINS_17__hash_value_typeIiNS_10shared_ptrIN8GPUTools2SM2GL11QueryObjectINS3_23AnalyzerBaseObjectTypesEEEEEEENS_22__unordered_map_hasherIiSA_NS_4hashIiEELb1EEENS_21__unordered_map_equalIiSA_NS_8equal_toIiEELb1EEENS_9allocatorISA_EEE21__construct_node_hashIRKNS_4pairIKiS9_EEJEEENS_10unique_ptrINS_11__hash_nodeISA_PvEENS_22__hash_node_destructorINSJ_ISV_EEEEEEmOT_DpOT0_, 
                        __ZNSt3__112__hash_tableINS_17__hash_value_typeIiNS_10shared_ptrIN8GPUTools2SM2GL11QueryObjectINS3_23AnalyzerBaseObjectTypesEEEEEEENS_22__unordered_map_hasherIiSA_NS_4hashIiEELb1EEENS_21__unordered_map_equalIiSA_NS_8equal_toIiEELb1EEENS_9allocatorISA_EEE4findIiEENS_15__hash_iteratorIPNS_11__hash_nodeISA_PvEEEERKT_, 
                        __ZNSt3__112__hash_tableINS_17__hash_value_typeIiNS_10shared_ptrIN8GPUTools2SM2GL11QueryObjectINS3_23AnalyzerBaseObjectTypesEEEEEEENS_22__unordered_map_hasherIiSA_NS_4hashIiEELb1EEENS_21__unordered_map_equalIiSA_NS_8equal_toIiEELb1EEENS_9allocatorISA_EEE5eraseENS_21__hash_const_iteratorIPNS_11__hash_nodeISA_PvEEEE, 
                        __ZNSt3__112__hash_tableINS_17__hash_value_typeIiNS_10shared_ptrIN8GPUTools2SM2GL11QueryObjectINS3_23AnalyzerBaseObjectTypesEEEEEEENS_22__unordered_map_hasherIiSA_NS_4hashIiEELb1EEENS_21__unordered_map_equalIiSA_NS_8equal_toIiEELb1EEENS_9allocatorISA_EEE6rehashEm, 
                        __ZNSt3__112__hash_tableINS_17__hash_value_typeIiNS_10shared_ptrIN8GPUTools2SM2GL11QueryObjectINS3_23AnalyzerBaseObjectTypesEEEEEEENS_22__unordered_map_hasherIiSA_NS_4hashIiEELb1EEENS_21__unordered_map_equalIiSA_NS_8equal_toIiEELb1EEENS_9allocatorISA_EEE6removeENS_21__hash_const_iteratorIPNS_11__hash_nodeISA_PvEEEE, 
                        __ZNSt3__112__hash_tableINS_17__hash_value_typeIiNS_10shared_ptrIN8GPUTools2SM2GL11QueryObjectINS3_23AnalyzerBaseObjectTypesEEEEEEENS_22__unordered_map_hasherIiSA_NS_4hashIiEELb1EEENS_21__unordered_map_equalIiSA_NS_8equal_toIiEELb1EEENS_9allocatorISA_EEE8__rehashEm, 
                        __ZNSt3__112__hash_tableINS_17__hash_value_typeIiNS_10shared_ptrIN8GPUTools2SM2GL11QueryObjectINS3_23AnalyzerBaseObjectTypesEEEEEEENS_22__unordered_map_hasherIiSA_NS_4hashIiEELb1EEENS_21__unordered_map_equalIiSA_NS_8equal_toIiEELb1EEENS_9allocatorISA_EEED2Ev, 
                        __ZNSt3__112__hash_tableINS_17__hash_value_typeIiNS_10shared_ptrIN8GPUTools2SM2GL12BufferObjectINS3_23AnalyzerBaseObjectTypesEEEEEEENS_22__unordered_map_hasherIiSA_NS_4hashIiEELb1EEENS_21__unordered_map_equalIiSA_NS_8equal_toIiEELb1EEENS_9allocatorISA_EEE12__deallocateEPNS_11__hash_nodeISA_PvEE, 
                        __ZNSt3__112__hash_tableINS_17__hash_value_typeIiNS_10shared_ptrIN8GPUTools2SM2GL12BufferObjectINS3_23AnalyzerBaseObjectTypesEEEEEEENS_22__unordered_map_hasherIiSA_NS_4hashIiEELb1EEENS_21__unordered_map_equalIiSA_NS_8equal_toIiEELb1EEENS_9allocatorISA_EEE14__erase_uniqueIiEEmRKT_, 
                        __ZNSt3__112__hash_tableINS_17__hash_value_typeIiNS_10shared_ptrIN8GPUTools2SM2GL12BufferObjectINS3_23AnalyzerBaseObjectTypesEEEEEEENS_22__unordered_map_hasherIiSA_NS_4hashIiEELb1EEENS_21__unordered_map_equalIiSA_NS_8equal_toIiEELb1EEENS_9allocatorISA_EEE21__construct_node_hashIRKNS_4pairIKiS9_EEJEEENS_10unique_ptrINS_11__hash_nodeISA_PvEENS_22__hash_node_destructorINSJ_ISV_EEEEEEmOT_DpOT0_, 
                        __ZNSt3__112__hash_tableINS_17__hash_value_typeIiNS_10shared_ptrIN8GPUTools2SM2GL12BufferObjectINS3_23AnalyzerBaseObjectTypesEEEEEEENS_22__unordered_map_hasherIiSA_NS_4hashIiEELb1EEENS_21__unordered_map_equalIiSA_NS_8equal_toIiEELb1EEENS_9allocatorISA_EEE4findIiEENS_15__hash_iteratorIPNS_11__hash_nodeISA_PvEEEERKT_, 
                        __ZNSt3__112__hash_tableINS_17__hash_value_typeIiNS_10shared_ptrIN8GPUTools2SM2GL12BufferObjectINS3_23AnalyzerBaseObjectTypesEEEEEEENS_22__unordered_map_hasherIiSA_NS_4hashIiEELb1EEENS_21__unordered_map_equalIiSA_NS_8equal_toIiEELb1EEENS_9allocatorISA_EEE5eraseENS_21__hash_const_iteratorIPNS_11__hash_nodeISA_PvEEEE, 
                        __ZNSt3__112__hash_tableINS_17__hash_value_typeIiNS_10shared_ptrIN8GPUTools2SM2GL12BufferObjectINS3_23AnalyzerBaseObjectTypesEEEEEEENS_22__unordered_map_hasherIiSA_NS_4hashIiEELb1EEENS_21__unordered_map_equalIiSA_NS_8equal_toIiEELb1EEENS_9allocatorISA_EEE6rehashEm, 
                        __ZNSt3__112__hash_tableINS_17__hash_value_typeIiNS_10shared_ptrIN8GPUTools2SM2GL12BufferObjectINS3_23AnalyzerBaseObjectTypesEEEEEEENS_22__unordered_map_hasherIiSA_NS_4hashIiEELb1EEENS_21__unordered_map_equalIiSA_NS_8equal_toIiEELb1EEENS_9allocatorISA_EEE6removeENS_21__hash_const_iteratorIPNS_11__hash_nodeISA_PvEEEE, 
                        __ZNSt3__112__hash_tableINS_17__hash_value_typeIiNS_10shared_ptrIN8GPUTools2SM2GL12BufferObjectINS3_23AnalyzerBaseObjectTypesEEEEEEENS_22__unordered_map_hasherIiSA_NS_4hashIiEELb1EEENS_21__unordered_map_equalIiSA_NS_8equal_toIiEELb1EEENS_9allocatorISA_EEE8__rehashEm, 
                        __ZNSt3__112__hash_tableINS_17__hash_value_typeIiNS_10shared_ptrIN8GPUTools2SM2GL12BufferObjectINS3_23AnalyzerBaseObjectTypesEEEEEEENS_22__unordered_map_hasherIiSA_NS_4hashIiEELb1EEENS_21__unordered_map_equalIiSA_NS_8equal_toIiEELb1EEENS_9allocatorISA_EEED2Ev, 
                        __ZNSt3__112__hash_tableINS_17__hash_value_typeIiNS_10shared_ptrIN8GPUTools2SM2GL12DrawableInfoINS3_23AnalyzerBaseObjectTypesEEEEEEENS_22__unordered_map_hasherIiSA_NS_4hashIiEELb1EEENS_21__unordered_map_equalIiSA_NS_8equal_toIiEELb1EEENS_9allocatorISA_EEE12__deallocateEPNS_11__hash_nodeISA_PvEE, 
                        __ZNSt3__112__hash_tableINS_17__hash_value_typeIiNS_10shared_ptrIN8GPUTools2SM2GL12DrawableInfoINS3_23AnalyzerBaseObjectTypesEEEEEEENS_22__unordered_map_hasherIiSA_NS_4hashIiEELb1EEENS_21__unordered_map_equalIiSA_NS_8equal_toIiEELb1EEENS_9allocatorISA_EEE14__assign_multiINS_21__hash_const_iteratorIPNS_11__hash_nodeISA_PvEEEEEEvT_ST_, 
                        __ZNSt3__112__hash_tableINS_17__hash_value_typeIiNS_10shared_ptrIN8GPUTools2SM2GL12DrawableInfoINS3_23AnalyzerBaseObjectTypesEEEEEEENS_22__unordered_map_hasherIiSA_NS_4hashIiEELb1EEENS_21__unordered_map_equalIiSA_NS_8equal_toIiEELb1EEENS_9allocatorISA_EEE16__construct_nodeIJRKNS_4pairIKiS9_EEEEENS_10unique_ptrINS_11__hash_nodeISA_PvEENS_22__hash_node_destructorINSJ_ISV_EEEEEEDpOT_, 
                        __ZNSt3__112__hash_tableINS_17__hash_value_typeIiNS_10shared_ptrIN8GPUTools2SM2GL12DrawableInfoINS3_23AnalyzerBaseObjectTypesEEEEEEENS_22__unordered_map_hasherIiSA_NS_4hashIiEELb1EEENS_21__unordered_map_equalIiSA_NS_8equal_toIiEELb1EEENS_9allocatorISA_EEE19__node_insert_multiEPNS_11__hash_nodeISA_PvEE, 
                        __ZNSt3__112__hash_tableINS_17__hash_value_typeIiNS_10shared_ptrIN8GPUTools2SM2GL12DrawableInfoINS3_23AnalyzerBaseObjectTypesEEEEEEENS_22__unordered_map_hasherIiSA_NS_4hashIiEELb1EEENS_21__unordered_map_equalIiSA_NS_8equal_toIiEELb1EEENS_9allocatorISA_EEE4findIiEENS_15__hash_iteratorIPNS_11__hash_nodeISA_PvEEEERKT_, 
                        __ZNSt3__112__hash_tableINS_17__hash_value_typeIiNS_10shared_ptrIN8GPUTools2SM2GL12DrawableInfoINS3_23AnalyzerBaseObjectTypesEEEEEEENS_22__unordered_map_hasherIiSA_NS_4hashIiEELb1EEENS_21__unordered_map_equalIiSA_NS_8equal_toIiEELb1EEENS_9allocatorISA_EEE6rehashEm, 
                        __ZNSt3__112__hash_tableINS_17__hash_value_typeIiNS_10shared_ptrIN8GPUTools2SM2GL12DrawableInfoINS3_23AnalyzerBaseObjectTypesEEEEEEENS_22__unordered_map_hasherIiSA_NS_4hashIiEELb1EEENS_21__unordered_map_equalIiSA_NS_8equal_toIiEELb1EEENS_9allocatorISA_EEE8__rehashEm, 
                        __ZNSt3__112__hash_tableINS_17__hash_value_typeIiNS_10shared_ptrIN8GPUTools2SM2GL12DrawableInfoINS3_23AnalyzerBaseObjectTypesEEEEEEENS_22__unordered_map_hasherIiSA_NS_4hashIiEELb1EEENS_21__unordered_map_equalIiSA_NS_8equal_toIiEELb1EEENS_9allocatorISA_EEED2Ev, 
                        __ZNSt3__112__hash_tableINS_17__hash_value_typeIiNS_10shared_ptrIN8GPUTools2SM2GL12ShaderObjectINS3_23AnalyzerBaseObjectTypesEEEEEEENS_22__unordered_map_hasherIiSA_NS_4hashIiEELb1EEENS_21__unordered_map_equalIiSA_NS_8equal_toIiEELb1EEENS_9allocatorISA_EEE12__deallocateEPNS_11__hash_nodeISA_PvEE, 
                        __ZNSt3__112__hash_tableINS_17__hash_value_typeIiNS_10shared_ptrIN8GPUTools2SM2GL12ShaderObjectINS3_23AnalyzerBaseObjectTypesEEEEEEENS_22__unordered_map_hasherIiSA_NS_4hashIiEELb1EEENS_21__unordered_map_equalIiSA_NS_8equal_toIiEELb1EEENS_9allocatorISA_EEE14__erase_uniqueIiEEmRKT_, 
                        __ZNSt3__112__hash_tableINS_17__hash_value_typeIiNS_10shared_ptrIN8GPUTools2SM2GL12ShaderObjectINS3_23AnalyzerBaseObjectTypesEEEEEEENS_22__unordered_map_hasherIiSA_NS_4hashIiEELb1EEENS_21__unordered_map_equalIiSA_NS_8equal_toIiEELb1EEENS_9allocatorISA_EEE21__construct_node_hashIRKNS_4pairIKiS9_EEJEEENS_10unique_ptrINS_11__hash_nodeISA_PvEENS_22__hash_node_destructorINSJ_ISV_EEEEEEmOT_DpOT0_, 
                        __ZNSt3__112__hash_tableINS_17__hash_value_typeIiNS_10shared_ptrIN8GPUTools2SM2GL12ShaderObjectINS3_23AnalyzerBaseObjectTypesEEEEEEENS_22__unordered_map_hasherIiSA_NS_4hashIiEELb1EEENS_21__unordered_map_equalIiSA_NS_8equal_toIiEELb1EEENS_9allocatorISA_EEE4findIiEENS_15__hash_iteratorIPNS_11__hash_nodeISA_PvEEEERKT_, 
                        __ZNSt3__112__hash_tableINS_17__hash_value_typeIiNS_10shared_ptrIN8GPUTools2SM2GL12ShaderObjectINS3_23AnalyzerBaseObjectTypesEEEEEEENS_22__unordered_map_hasherIiSA_NS_4hashIiEELb1EEENS_21__unordered_map_equalIiSA_NS_8equal_toIiEELb1EEENS_9allocatorISA_EEE5eraseENS_21__hash_const_iteratorIPNS_11__hash_nodeISA_PvEEEE, 
                        __ZNSt3__112__hash_tableINS_17__hash_value_typeIiNS_10shared_ptrIN8GPUTools2SM2GL12ShaderObjectINS3_23AnalyzerBaseObjectTypesEEEEEEENS_22__unordered_map_hasherIiSA_NS_4hashIiEELb1EEENS_21__unordered_map_equalIiSA_NS_8equal_toIiEELb1EEENS_9allocatorISA_EEE6rehashEm, 
                        __ZNSt3__112__hash_tableINS_17__hash_value_typeIiNS_10shared_ptrIN8GPUTools2SM2GL12ShaderObjectINS3_23AnalyzerBaseObjectTypesEEEEEEENS_22__unordered_map_hasherIiSA_NS_4hashIiEELb1EEENS_21__unordered_map_equalIiSA_NS_8equal_toIiEELb1EEENS_9allocatorISA_EEE6removeENS_21__hash_const_iteratorIPNS_11__hash_nodeISA_PvEEEE, 
                        __ZNSt3__112__hash_tableINS_17__hash_value_typeIiNS_10shared_ptrIN8GPUTools2SM2GL12ShaderObjectINS3_23AnalyzerBaseObjectTypesEEEEEEENS_22__unordered_map_hasherIiSA_NS_4hashIiEELb1EEENS_21__unordered_map_equalIiSA_NS_8equal_toIiEELb1EEENS_9allocatorISA_EEE8__rehashEm, 
                        __ZNSt3__112__hash_tableINS_17__hash_value_typeIiNS_10shared_ptrIN8GPUTools2SM2GL12ShaderObjectINS3_23AnalyzerBaseObjectTypesEEEEEEENS_22__unordered_map_hasherIiSA_NS_4hashIiEELb1EEENS_21__unordered_map_equalIiSA_NS_8equal_toIiEELb1EEENS_9allocatorISA_EEED2Ev, 
                        __ZNSt3__112__hash_tableINS_17__hash_value_typeIiNS_10shared_ptrIN8GPUTools2SM2GL13ProgramObjectINS3_23AnalyzerBaseObjectTypesEEEEEEENS_22__unordered_map_hasherIiSA_NS_4hashIiEELb1EEENS_21__unordered_map_equalIiSA_NS_8equal_toIiEELb1EEENS_9allocatorISA_EEE12__deallocateEPNS_11__hash_nodeISA_PvEE, 
                        __ZNSt3__112__hash_tableINS_17__hash_value_typeIiNS_10shared_ptrIN8GPUTools2SM2GL13ProgramObjectINS3_23AnalyzerBaseObjectTypesEEEEEEENS_22__unordered_map_hasherIiSA_NS_4hashIiEELb1EEENS_21__unordered_map_equalIiSA_NS_8equal_toIiEELb1EEENS_9allocatorISA_EEE14__erase_uniqueIiEEmRKT_, 
                        __ZNSt3__112__hash_tableINS_17__hash_value_typeIiNS_10shared_ptrIN8GPUTools2SM2GL13ProgramObjectINS3_23AnalyzerBaseObjectTypesEEEEEEENS_22__unordered_map_hasherIiSA_NS_4hashIiEELb1EEENS_21__unordered_map_equalIiSA_NS_8equal_toIiEELb1EEENS_9allocatorISA_EEE21__construct_node_hashIRKNS_4pairIKiS9_EEJEEENS_10unique_ptrINS_11__hash_nodeISA_PvEENS_22__hash_node_destructorINSJ_ISV_EEEEEEmOT_DpOT0_, 
                        __ZNSt3__112__hash_tableINS_17__hash_value_typeIiNS_10shared_ptrIN8GPUTools2SM2GL13ProgramObjectINS3_23AnalyzerBaseObjectTypesEEEEEEENS_22__unordered_map_hasherIiSA_NS_4hashIiEELb1EEENS_21__unordered_map_equalIiSA_NS_8equal_toIiEELb1EEENS_9allocatorISA_EEE4findIiEENS_15__hash_iteratorIPNS_11__hash_nodeISA_PvEEEERKT_, 
                        __ZNSt3__112__hash_tableINS_17__hash_value_typeIiNS_10shared_ptrIN8GPUTools2SM2GL13ProgramObjectINS3_23AnalyzerBaseObjectTypesEEEEEEENS_22__unordered_map_hasherIiSA_NS_4hashIiEELb1EEENS_21__unordered_map_equalIiSA_NS_8equal_toIiEELb1EEENS_9allocatorISA_EEE5eraseENS_21__hash_const_iteratorIPNS_11__hash_nodeISA_PvEEEE, 
                        __ZNSt3__112__hash_tableINS_17__hash_value_typeIiNS_10shared_ptrIN8GPUTools2SM2GL13ProgramObjectINS3_23AnalyzerBaseObjectTypesEEEEEEENS_22__unordered_map_hasherIiSA_NS_4hashIiEELb1EEENS_21__unordered_map_equalIiSA_NS_8equal_toIiEELb1EEENS_9allocatorISA_EEE6rehashEm, 
                        __ZNSt3__112__hash_tableINS_17__hash_value_typeIiNS_10shared_ptrIN8GPUTools2SM2GL13ProgramObjectINS3_23AnalyzerBaseObjectTypesEEEEEEENS_22__unordered_map_hasherIiSA_NS_4hashIiEELb1EEENS_21__unordered_map_equalIiSA_NS_8equal_toIiEELb1EEENS_9allocatorISA_EEE6removeENS_21__hash_const_iteratorIPNS_11__hash_nodeISA_PvEEEE, 
                        __ZNSt3__112__hash_tableINS_17__hash_value_typeIiNS_10shared_ptrIN8GPUTools2SM2GL13ProgramObjectINS3_23AnalyzerBaseObjectTypesEEEEEEENS_22__unordered_map_hasherIiSA_NS_4hashIiEELb1EEENS_21__unordered_map_equalIiSA_NS_8equal_toIiEELb1EEENS_9allocatorISA_EEE8__rehashEm, 
                        __ZNSt3__112__hash_tableINS_17__hash_value_typeIiNS_10shared_ptrIN8GPUTools2SM2GL13ProgramObjectINS3_23AnalyzerBaseObjectTypesEEEEEEENS_22__unordered_map_hasherIiSA_NS_4hashIiEELb1EEENS_21__unordered_map_equalIiSA_NS_8equal_toIiEELb1EEENS_9allocatorISA_EEED2Ev, 
                        __ZNSt3__112__hash_tableINS_17__hash_value_typeIiNS_10shared_ptrIN8GPUTools2SM2GL13SamplerObjectINS3_23AnalyzerBaseObjectTypesEEEEEEENS_22__unordered_map_hasherIiSA_NS_4hashIiEELb1EEENS_21__unordered_map_equalIiSA_NS_8equal_toIiEELb1EEENS_9allocatorISA_EEE12__deallocateEPNS_11__hash_nodeISA_PvEE, 
                        __ZNSt3__112__hash_tableINS_17__hash_value_typeIiNS_10shared_ptrIN8GPUTools2SM2GL13SamplerObjectINS3_23AnalyzerBaseObjectTypesEEEEEEENS_22__unordered_map_hasherIiSA_NS_4hashIiEELb1EEENS_21__unordered_map_equalIiSA_NS_8equal_toIiEELb1EEENS_9allocatorISA_EEE14__erase_uniqueIiEEmRKT_, 
                        __ZNSt3__112__hash_tableINS_17__hash_value_typeIiNS_10shared_ptrIN8GPUTools2SM2GL13SamplerObjectINS3_23AnalyzerBaseObjectTypesEEEEEEENS_22__unordered_map_hasherIiSA_NS_4hashIiEELb1EEENS_21__unordered_map_equalIiSA_NS_8equal_toIiEELb1EEENS_9allocatorISA_EEE21__construct_node_hashIRKNS_4pairIKiS9_EEJEEENS_10unique_ptrINS_11__hash_nodeISA_PvEENS_22__hash_node_destructorINSJ_ISV_EEEEEEmOT_DpOT0_, 
                        __ZNSt3__112__hash_tableINS_17__hash_value_typeIiNS_10shared_ptrIN8GPUTools2SM2GL13SamplerObjectINS3_23AnalyzerBaseObjectTypesEEEEEEENS_22__unordered_map_hasherIiSA_NS_4hashIiEELb1EEENS_21__unordered_map_equalIiSA_NS_8equal_toIiEELb1EEENS_9allocatorISA_EEE4findIiEENS_15__hash_iteratorIPNS_11__hash_nodeISA_PvEEEERKT_, 
                        __ZNSt3__112__hash_tableINS_17__hash_value_typeIiNS_10shared_ptrIN8GPUTools2SM2GL13SamplerObjectINS3_23AnalyzerBaseObjectTypesEEEEEEENS_22__unordered_map_hasherIiSA_NS_4hashIiEELb1EEENS_21__unordered_map_equalIiSA_NS_8equal_toIiEELb1EEENS_9allocatorISA_EEE5eraseENS_21__hash_const_iteratorIPNS_11__hash_nodeISA_PvEEEE, 
                        __ZNSt3__112__hash_tableINS_17__hash_value_typeIiNS_10shared_ptrIN8GPUTools2SM2GL13SamplerObjectINS3_23AnalyzerBaseObjectTypesEEEEEEENS_22__unordered_map_hasherIiSA_NS_4hashIiEELb1EEENS_21__unordered_map_equalIiSA_NS_8equal_toIiEELb1EEENS_9allocatorISA_EEE6rehashEm, 
                        __ZNSt3__112__hash_tableINS_17__hash_value_typeIiNS_10shared_ptrIN8GPUTools2SM2GL13SamplerObjectINS3_23AnalyzerBaseObjectTypesEEEEEEENS_22__unordered_map_hasherIiSA_NS_4hashIiEELb1EEENS_21__unordered_map_equalIiSA_NS_8equal_toIiEELb1EEENS_9allocatorISA_EEE6removeENS_21__hash_const_iteratorIPNS_11__hash_nodeISA_PvEEEE, 
                        __ZNSt3__112__hash_tableINS_17__hash_value_typeIiNS_10shared_ptrIN8GPUTools2SM2GL13SamplerObjectINS3_23AnalyzerBaseObjectTypesEEEEEEENS_22__unordered_map_hasherIiSA_NS_4hashIiEELb1EEENS_21__unordered_map_equalIiSA_NS_8equal_toIiEELb1EEENS_9allocatorISA_EEE8__rehashEm, 
                        __ZNSt3__112__hash_tableINS_17__hash_value_typeIiNS_10shared_ptrIN8GPUTools2SM2GL13SamplerObjectINS3_23AnalyzerBaseObjectTypesEEEEEEENS_22__unordered_map_hasherIiSA_NS_4hashIiEELb1EEENS_21__unordered_map_equalIiSA_NS_8equal_toIiEELb1EEENS_9allocatorISA_EEED2Ev, 
                        __ZNSt3__112__hash_tableINS_17__hash_value_typeIiNS_10shared_ptrIN8GPUTools2SM2GL13TextureObjectINS3_23AnalyzerBaseObjectTypesEEEEEEENS_22__unordered_map_hasherIiSA_NS_4hashIiEELb1EEENS_21__unordered_map_equalIiSA_NS_8equal_toIiEELb1EEENS_9allocatorISA_EEE12__deallocateEPNS_11__hash_nodeISA_PvEE, 
                        __ZNSt3__112__hash_tableINS_17__hash_value_typeIiNS_10shared_ptrIN8GPUTools2SM2GL13TextureObjectINS3_23AnalyzerBaseObjectTypesEEEEEEENS_22__unordered_map_hasherIiSA_NS_4hashIiEELb1EEENS_21__unordered_map_equalIiSA_NS_8equal_toIiEELb1EEENS_9allocatorISA_EEE14__erase_uniqueIiEEmRKT_, 
                        __ZNSt3__112__hash_tableINS_17__hash_value_typeIiNS_10shared_ptrIN8GPUTools2SM2GL13TextureObjectINS3_23AnalyzerBaseObjectTypesEEEEEEENS_22__unordered_map_hasherIiSA_NS_4hashIiEELb1EEENS_21__unordered_map_equalIiSA_NS_8equal_toIiEELb1EEENS_9allocatorISA_EEE21__construct_node_hashIRKNS_4pairIKiS9_EEJEEENS_10unique_ptrINS_11__hash_nodeISA_PvEENS_22__hash_node_destructorINSJ_ISV_EEEEEEmOT_DpOT0_, 
                        __ZNSt3__112__hash_tableINS_17__hash_value_typeIiNS_10shared_ptrIN8GPUTools2SM2GL13TextureObjectINS3_23AnalyzerBaseObjectTypesEEEEEEENS_22__unordered_map_hasherIiSA_NS_4hashIiEELb1EEENS_21__unordered_map_equalIiSA_NS_8equal_toIiEELb1EEENS_9allocatorISA_EEE4findIiEENS_15__hash_iteratorIPNS_11__hash_nodeISA_PvEEEERKT_, 
                        __ZNSt3__112__hash_tableINS_17__hash_value_typeIiNS_10shared_ptrIN8GPUTools2SM2GL13TextureObjectINS3_23AnalyzerBaseObjectTypesEEEEEEENS_22__unordered_map_hasherIiSA_NS_4hashIiEELb1EEENS_21__unordered_map_equalIiSA_NS_8equal_toIiEELb1EEENS_9allocatorISA_EEE5eraseENS_21__hash_const_iteratorIPNS_11__hash_nodeISA_PvEEEE, 
                        __ZNSt3__112__hash_tableINS_17__hash_value_typeIiNS_10shared_ptrIN8GPUTools2SM2GL13TextureObjectINS3_23AnalyzerBaseObjectTypesEEEEEEENS_22__unordered_map_hasherIiSA_NS_4hashIiEELb1EEENS_21__unordered_map_equalIiSA_NS_8equal_toIiEELb1EEENS_9allocatorISA_EEE6rehashEm, 
                        __ZNSt3__112__hash_tableINS_17__hash_value_typeIiNS_10shared_ptrIN8GPUTools2SM2GL13TextureObjectINS3_23AnalyzerBaseObjectTypesEEEEEEENS_22__unordered_map_hasherIiSA_NS_4hashIiEELb1EEENS_21__unordered_map_equalIiSA_NS_8equal_toIiEELb1EEENS_9allocatorISA_EEE6removeENS_21__hash_const_iteratorIPNS_11__hash_nodeISA_PvEEEE, 
                        __ZNSt3__112__hash_tableINS_17__hash_value_typeIiNS_10shared_ptrIN8GPUTools2SM2GL13TextureObjectINS3_23AnalyzerBaseObjectTypesEEEEEEENS_22__unordered_map_hasherIiSA_NS_4hashIiEELb1EEENS_21__unordered_map_equalIiSA_NS_8equal_toIiEELb1EEENS_9allocatorISA_EEE8__rehashEm, 
                        __ZNSt3__112__hash_tableINS_17__hash_value_typeIiNS_10shared_ptrIN8GPUTools2SM2GL13TextureObjectINS3_23AnalyzerBaseObjectTypesEEEEEEENS_22__unordered_map_hasherIiSA_NS_4hashIiEELb1EEENS_21__unordered_map_equalIiSA_NS_8equal_toIiEELb1EEENS_9allocatorISA_EEED2Ev, 
                        __ZNSt3__112__hash_tableINS_17__hash_value_typeIiNS_10shared_ptrIN8GPUTools2SM2GL17FramebufferObjectINS3_23AnalyzerBaseObjectTypesEEEEEEENS_22__unordered_map_hasherIiSA_NS_4hashIiEELb1EEENS_21__unordered_map_equalIiSA_NS_8equal_toIiEELb1EEENS_9allocatorISA_EEE12__deallocateEPNS_11__hash_nodeISA_PvEE, 
                        __ZNSt3__112__hash_tableINS_17__hash_value_typeIiNS_10shared_ptrIN8GPUTools2SM2GL17FramebufferObjectINS3_23AnalyzerBaseObjectTypesEEEEEEENS_22__unordered_map_hasherIiSA_NS_4hashIiEELb1EEENS_21__unordered_map_equalIiSA_NS_8equal_toIiEELb1EEENS_9allocatorISA_EEE14__erase_uniqueIiEEmRKT_, 
                        __ZNSt3__112__hash_tableINS_17__hash_value_typeIiNS_10shared_ptrIN8GPUTools2SM2GL17FramebufferObjectINS3_23AnalyzerBaseObjectTypesEEEEEEENS_22__unordered_map_hasherIiSA_NS_4hashIiEELb1EEENS_21__unordered_map_equalIiSA_NS_8equal_toIiEELb1EEENS_9allocatorISA_EEE21__construct_node_hashIRKNS_4pairIKiS9_EEJEEENS_10unique_ptrINS_11__hash_nodeISA_PvEENS_22__hash_node_destructorINSJ_ISV_EEEEEEmOT_DpOT0_, 
                        __ZNSt3__112__hash_tableINS_17__hash_value_typeIiNS_10shared_ptrIN8GPUTools2SM2GL17FramebufferObjectINS3_23AnalyzerBaseObjectTypesEEEEEEENS_22__unordered_map_hasherIiSA_NS_4hashIiEELb1EEENS_21__unordered_map_equalIiSA_NS_8equal_toIiEELb1EEENS_9allocatorISA_EEE4findIiEENS_15__hash_iteratorIPNS_11__hash_nodeISA_PvEEEERKT_, 
                        __ZNSt3__112__hash_tableINS_17__hash_value_typeIiNS_10shared_ptrIN8GPUTools2SM2GL17FramebufferObjectINS3_23AnalyzerBaseObjectTypesEEEEEEENS_22__unordered_map_hasherIiSA_NS_4hashIiEELb1EEENS_21__unordered_map_equalIiSA_NS_8equal_toIiEELb1EEENS_9allocatorISA_EEE5eraseENS_21__hash_const_iteratorIPNS_11__hash_nodeISA_PvEEEE, 
                        __ZNSt3__112__hash_tableINS_17__hash_value_typeIiNS_10shared_ptrIN8GPUTools2SM2GL17FramebufferObjectINS3_23AnalyzerBaseObjectTypesEEEEEEENS_22__unordered_map_hasherIiSA_NS_4hashIiEELb1EEENS_21__unordered_map_equalIiSA_NS_8equal_toIiEELb1EEENS_9allocatorISA_EEE6rehashEm, 
                        __ZNSt3__112__hash_tableINS_17__hash_value_typeIiNS_10shared_ptrIN8GPUTools2SM2GL17FramebufferObjectINS3_23AnalyzerBaseObjectTypesEEEEEEENS_22__unordered_map_hasherIiSA_NS_4hashIiEELb1EEENS_21__unordered_map_equalIiSA_NS_8equal_toIiEELb1EEENS_9allocatorISA_EEE6removeENS_21__hash_const_iteratorIPNS_11__hash_nodeISA_PvEEEE, 
                        __ZNSt3__112__hash_tableINS_17__hash_value_typeIiNS_10shared_ptrIN8GPUTools2SM2GL17FramebufferObjectINS3_23AnalyzerBaseObjectTypesEEEEEEENS_22__unordered_map_hasherIiSA_NS_4hashIiEELb1EEENS_21__unordered_map_equalIiSA_NS_8equal_toIiEELb1EEENS_9allocatorISA_EEE8__rehashEm, 
                        __ZNSt3__112__hash_tableINS_17__hash_value_typeIiNS_10shared_ptrIN8GPUTools2SM2GL17FramebufferObjectINS3_23AnalyzerBaseObjectTypesEEEEEEENS_22__unordered_map_hasherIiSA_NS_4hashIiEELb1EEENS_21__unordered_map_equalIiSA_NS_8equal_toIiEELb1EEENS_9allocatorISA_EEED2Ev, 
                        __ZNSt3__112__hash_tableINS_17__hash_value_typeIiNS_10shared_ptrIN8GPUTools2SM2GL17VertexArrayObjectINS3_23AnalyzerBaseObjectTypesEEEEEEENS_22__unordered_map_hasherIiSA_NS_4hashIiEELb1EEENS_21__unordered_map_equalIiSA_NS_8equal_toIiEELb1EEENS_9allocatorISA_EEE12__deallocateEPNS_11__hash_nodeISA_PvEE, 
                        __ZNSt3__112__hash_tableINS_17__hash_value_typeIiNS_10shared_ptrIN8GPUTools2SM2GL17VertexArrayObjectINS3_23AnalyzerBaseObjectTypesEEEEEEENS_22__unordered_map_hasherIiSA_NS_4hashIiEELb1EEENS_21__unordered_map_equalIiSA_NS_8equal_toIiEELb1EEENS_9allocatorISA_EEE14__erase_uniqueIiEEmRKT_, 
                        __ZNSt3__112__hash_tableINS_17__hash_value_typeIiNS_10shared_ptrIN8GPUTools2SM2GL17VertexArrayObjectINS3_23AnalyzerBaseObjectTypesEEEEEEENS_22__unordered_map_hasherIiSA_NS_4hashIiEELb1EEENS_21__unordered_map_equalIiSA_NS_8equal_toIiEELb1EEENS_9allocatorISA_EEE21__construct_node_hashIRKNS_4pairIKiS9_EEJEEENS_10unique_ptrINS_11__hash_nodeISA_PvEENS_22__hash_node_destructorINSJ_ISV_EEEEEEmOT_DpOT0_, 
                        __ZNSt3__112__hash_tableINS_17__hash_value_typeIiNS_10shared_ptrIN8GPUTools2SM2GL17VertexArrayObjectINS3_23AnalyzerBaseObjectTypesEEEEEEENS_22__unordered_map_hasherIiSA_NS_4hashIiEELb1EEENS_21__unordered_map_equalIiSA_NS_8equal_toIiEELb1EEENS_9allocatorISA_EEE4findIiEENS_15__hash_iteratorIPNS_11__hash_nodeISA_PvEEEERKT_, 
                        __ZNSt3__112__hash_tableINS_17__hash_value_typeIiNS_10shared_ptrIN8GPUTools2SM2GL17VertexArrayObjectINS3_23AnalyzerBaseObjectTypesEEEEEEENS_22__unordered_map_hasherIiSA_NS_4hashIiEELb1EEENS_21__unordered_map_equalIiSA_NS_8equal_toIiEELb1EEENS_9allocatorISA_EEE5eraseENS_21__hash_const_iteratorIPNS_11__hash_nodeISA_PvEEEE, 
                        __ZNSt3__112__hash_tableINS_17__hash_value_typeIiNS_10shared_ptrIN8GPUTools2SM2GL17VertexArrayObjectINS3_23AnalyzerBaseObjectTypesEEEEEEENS_22__unordered_map_hasherIiSA_NS_4hashIiEELb1EEENS_21__unordered_map_equalIiSA_NS_8equal_toIiEELb1EEENS_9allocatorISA_EEE6rehashEm, 
                        __ZNSt3__112__hash_tableINS_17__hash_value_typeIiNS_10shared_ptrIN8GPUTools2SM2GL17VertexArrayObjectINS3_23AnalyzerBaseObjectTypesEEEEEEENS_22__unordered_map_hasherIiSA_NS_4hashIiEELb1EEENS_21__unordered_map_equalIiSA_NS_8equal_toIiEELb1EEENS_9allocatorISA_EEE6removeENS_21__hash_const_iteratorIPNS_11__hash_nodeISA_PvEEEE, 
                        __ZNSt3__112__hash_tableINS_17__hash_value_typeIiNS_10shared_ptrIN8GPUTools2SM2GL17VertexArrayObjectINS3_23AnalyzerBaseObjectTypesEEEEEEENS_22__unordered_map_hasherIiSA_NS_4hashIiEELb1EEENS_21__unordered_map_equalIiSA_NS_8equal_toIiEELb1EEENS_9allocatorISA_EEE8__rehashEm, 
                        __ZNSt3__112__hash_tableINS_17__hash_value_typeIiNS_10shared_ptrIN8GPUTools2SM2GL17VertexArrayObjectINS3_23AnalyzerBaseObjectTypesEEEEEEENS_22__unordered_map_hasherIiSA_NS_4hashIiEELb1EEENS_21__unordered_map_equalIiSA_NS_8equal_toIiEELb1EEENS_9allocatorISA_EEED2Ev, 
                        __ZNSt3__112__hash_tableINS_17__hash_value_typeIiNS_10shared_ptrIN8GPUTools2SM2GL18RenderbufferObjectINS3_23AnalyzerBaseObjectTypesEEEEEEENS_22__unordered_map_hasherIiSA_NS_4hashIiEELb1EEENS_21__unordered_map_equalIiSA_NS_8equal_toIiEELb1EEENS_9allocatorISA_EEE12__deallocateEPNS_11__hash_nodeISA_PvEE, 
                        __ZNSt3__112__hash_tableINS_17__hash_value_typeIiNS_10shared_ptrIN8GPUTools2SM2GL18RenderbufferObjectINS3_23AnalyzerBaseObjectTypesEEEEEEENS_22__unordered_map_hasherIiSA_NS_4hashIiEELb1EEENS_21__unordered_map_equalIiSA_NS_8equal_toIiEELb1EEENS_9allocatorISA_EEE14__erase_uniqueIiEEmRKT_, 
                        __ZNSt3__112__hash_tableINS_17__hash_value_typeIiNS_10shared_ptrIN8GPUTools2SM2GL18RenderbufferObjectINS3_23AnalyzerBaseObjectTypesEEEEEEENS_22__unordered_map_hasherIiSA_NS_4hashIiEELb1EEENS_21__unordered_map_equalIiSA_NS_8equal_toIiEELb1EEENS_9allocatorISA_EEE21__construct_node_hashIRKNS_4pairIKiS9_EEJEEENS_10unique_ptrINS_11__hash_nodeISA_PvEENS_22__hash_node_destructorINSJ_ISV_EEEEEEmOT_DpOT0_, 
                        __ZNSt3__112__hash_tableINS_17__hash_value_typeIiNS_10shared_ptrIN8GPUTools2SM2GL18RenderbufferObjectINS3_23AnalyzerBaseObjectTypesEEEEEEENS_22__unordered_map_hasherIiSA_NS_4hashIiEELb1EEENS_21__unordered_map_equalIiSA_NS_8equal_toIiEELb1EEENS_9allocatorISA_EEE4findIiEENS_15__hash_iteratorIPNS_11__hash_nodeISA_PvEEEERKT_, 
                        __ZNSt3__112__hash_tableINS_17__hash_value_typeIiNS_10shared_ptrIN8GPUTools2SM2GL18RenderbufferObjectINS3_23AnalyzerBaseObjectTypesEEEEEEENS_22__unordered_map_hasherIiSA_NS_4hashIiEELb1EEENS_21__unordered_map_equalIiSA_NS_8equal_toIiEELb1EEENS_9allocatorISA_EEE5eraseENS_21__hash_const_iteratorIPNS_11__hash_nodeISA_PvEEEE, 
                        __ZNSt3__112__hash_tableINS_17__hash_value_typeIiNS_10shared_ptrIN8GPUTools2SM2GL18RenderbufferObjectINS3_23AnalyzerBaseObjectTypesEEEEEEENS_22__unordered_map_hasherIiSA_NS_4hashIiEELb1EEENS_21__unordered_map_equalIiSA_NS_8equal_toIiEELb1EEENS_9allocatorISA_EEE6rehashEm, 
                        __ZNSt3__112__hash_tableINS_17__hash_value_typeIiNS_10shared_ptrIN8GPUTools2SM2GL18RenderbufferObjectINS3_23AnalyzerBaseObjectTypesEEEEEEENS_22__unordered_map_hasherIiSA_NS_4hashIiEELb1EEENS_21__unordered_map_equalIiSA_NS_8equal_toIiEELb1EEENS_9allocatorISA_EEE6removeENS_21__hash_const_iteratorIPNS_11__hash_nodeISA_PvEEEE, 
                        __ZNSt3__112__hash_tableINS_17__hash_value_typeIiNS_10shared_ptrIN8GPUTools2SM2GL18RenderbufferObjectINS3_23AnalyzerBaseObjectTypesEEEEEEENS_22__unordered_map_hasherIiSA_NS_4hashIiEELb1EEENS_21__unordered_map_equalIiSA_NS_8equal_toIiEELb1EEENS_9allocatorISA_EEE8__rehashEm, 
                        __ZNSt3__112__hash_tableINS_17__hash_value_typeIiNS_10shared_ptrIN8GPUTools2SM2GL18RenderbufferObjectINS3_23AnalyzerBaseObjectTypesEEEEEEENS_22__unordered_map_hasherIiSA_NS_4hashIiEELb1EEENS_21__unordered_map_equalIiSA_NS_8equal_toIiEELb1EEENS_9allocatorISA_EEED2Ev, 
                        __ZNSt3__112__hash_tableINS_17__hash_value_typeIiNS_10shared_ptrIN8GPUTools2SM2GL21ProgramPipelineObjectINS3_23AnalyzerBaseObjectTypesEEEEEEENS_22__unordered_map_hasherIiSA_NS_4hashIiEELb1EEENS_21__unordered_map_equalIiSA_NS_8equal_toIiEELb1EEENS_9allocatorISA_EEE12__deallocateEPNS_11__hash_nodeISA_PvEE, 
                        __ZNSt3__112__hash_tableINS_17__hash_value_typeIiNS_10shared_ptrIN8GPUTools2SM2GL21ProgramPipelineObjectINS3_23AnalyzerBaseObjectTypesEEEEEEENS_22__unordered_map_hasherIiSA_NS_4hashIiEELb1EEENS_21__unordered_map_equalIiSA_NS_8equal_toIiEELb1EEENS_9allocatorISA_EEE14__erase_uniqueIiEEmRKT_, 
                        __ZNSt3__112__hash_tableINS_17__hash_value_typeIiNS_10shared_ptrIN8GPUTools2SM2GL21ProgramPipelineObjectINS3_23AnalyzerBaseObjectTypesEEEEEEENS_22__unordered_map_hasherIiSA_NS_4hashIiEELb1EEENS_21__unordered_map_equalIiSA_NS_8equal_toIiEELb1EEENS_9allocatorISA_EEE21__construct_node_hashIRKNS_4pairIKiS9_EEJEEENS_10unique_ptrINS_11__hash_nodeISA_PvEENS_22__hash_node_destructorINSJ_ISV_EEEEEEmOT_DpOT0_, 
                        __ZNSt3__112__hash_tableINS_17__hash_value_typeIiNS_10shared_ptrIN8GPUTools2SM2GL21ProgramPipelineObjectINS3_23AnalyzerBaseObjectTypesEEEEEEENS_22__unordered_map_hasherIiSA_NS_4hashIiEELb1EEENS_21__unordered_map_equalIiSA_NS_8equal_toIiEELb1EEENS_9allocatorISA_EEE4findIiEENS_15__hash_iteratorIPNS_11__hash_nodeISA_PvEEEERKT_, 
                        __ZNSt3__112__hash_tableINS_17__hash_value_typeIiNS_10shared_ptrIN8GPUTools2SM2GL21ProgramPipelineObjectINS3_23AnalyzerBaseObjectTypesEEEEEEENS_22__unordered_map_hasherIiSA_NS_4hashIiEELb1EEENS_21__unordered_map_equalIiSA_NS_8equal_toIiEELb1EEENS_9allocatorISA_EEE5eraseENS_21__hash_const_iteratorIPNS_11__hash_nodeISA_PvEEEE, 
                        __ZNSt3__112__hash_tableINS_17__hash_value_typeIiNS_10shared_ptrIN8GPUTools2SM2GL21ProgramPipelineObjectINS3_23AnalyzerBaseObjectTypesEEEEEEENS_22__unordered_map_hasherIiSA_NS_4hashIiEELb1EEENS_21__unordered_map_equalIiSA_NS_8equal_toIiEELb1EEENS_9allocatorISA_EEE6rehashEm, 
                        __ZNSt3__112__hash_tableINS_17__hash_value_typeIiNS_10shared_ptrIN8GPUTools2SM2GL21ProgramPipelineObjectINS3_23AnalyzerBaseObjectTypesEEEEEEENS_22__unordered_map_hasherIiSA_NS_4hashIiEELb1EEENS_21__unordered_map_equalIiSA_NS_8equal_toIiEELb1EEENS_9allocatorISA_EEE6removeENS_21__hash_const_iteratorIPNS_11__hash_nodeISA_PvEEEE, 
                        __ZNSt3__112__hash_tableINS_17__hash_value_typeIiNS_10shared_ptrIN8GPUTools2SM2GL21ProgramPipelineObjectINS3_23AnalyzerBaseObjectTypesEEEEEEENS_22__unordered_map_hasherIiSA_NS_4hashIiEELb1EEENS_21__unordered_map_equalIiSA_NS_8equal_toIiEELb1EEENS_9allocatorISA_EEE8__rehashEm, 
                        __ZNSt3__112__hash_tableINS_17__hash_value_typeIiNS_10shared_ptrIN8GPUTools2SM2GL21ProgramPipelineObjectINS3_23AnalyzerBaseObjectTypesEEEEEEENS_22__unordered_map_hasherIiSA_NS_4hashIiEELb1EEENS_21__unordered_map_equalIiSA_NS_8equal_toIiEELb1EEENS_9allocatorISA_EEED2Ev, 
                        __ZNSt3__112__hash_tableINS_17__hash_value_typeIiNS_10shared_ptrIN8GPUTools2SM2GL23TransformFeedbackObjectINS3_23AnalyzerBaseObjectTypesEEEEEEENS_22__unordered_map_hasherIiSA_NS_4hashIiEELb1EEENS_21__unordered_map_equalIiSA_NS_8equal_toIiEELb1EEENS_9allocatorISA_EEE12__deallocateEPNS_11__hash_nodeISA_PvEE, 
                        __ZNSt3__112__hash_tableINS_17__hash_value_typeIiNS_10shared_ptrIN8GPUTools2SM2GL23TransformFeedbackObjectINS3_23AnalyzerBaseObjectTypesEEEEEEENS_22__unordered_map_hasherIiSA_NS_4hashIiEELb1EEENS_21__unordered_map_equalIiSA_NS_8equal_toIiEELb1EEENS_9allocatorISA_EEE14__erase_uniqueIiEEmRKT_, 
                        __ZNSt3__112__hash_tableINS_17__hash_value_typeIiNS_10shared_ptrIN8GPUTools2SM2GL23TransformFeedbackObjectINS3_23AnalyzerBaseObjectTypesEEEEEEENS_22__unordered_map_hasherIiSA_NS_4hashIiEELb1EEENS_21__unordered_map_equalIiSA_NS_8equal_toIiEELb1EEENS_9allocatorISA_EEE21__construct_node_hashIRKNS_4pairIKiS9_EEJEEENS_10unique_ptrINS_11__hash_nodeISA_PvEENS_22__hash_node_destructorINSJ_ISV_EEEEEEmOT_DpOT0_, 
                        __ZNSt3__112__hash_tableINS_17__hash_value_typeIiNS_10shared_ptrIN8GPUTools2SM2GL23TransformFeedbackObjectINS3_23AnalyzerBaseObjectTypesEEEEEEENS_22__unordered_map_hasherIiSA_NS_4hashIiEELb1EEENS_21__unordered_map_equalIiSA_NS_8equal_toIiEELb1EEENS_9allocatorISA_EEE4findIiEENS_15__hash_iteratorIPNS_11__hash_nodeISA_PvEEEERKT_, 
                        __ZNSt3__112__hash_tableINS_17__hash_value_typeIiNS_10shared_ptrIN8GPUTools2SM2GL23TransformFeedbackObjectINS3_23AnalyzerBaseObjectTypesEEEEEEENS_22__unordered_map_hasherIiSA_NS_4hashIiEELb1EEENS_21__unordered_map_equalIiSA_NS_8equal_toIiEELb1EEENS_9allocatorISA_EEE5eraseENS_21__hash_const_iteratorIPNS_11__hash_nodeISA_PvEEEE, 
                        __ZNSt3__112__hash_tableINS_17__hash_value_typeIiNS_10shared_ptrIN8GPUTools2SM2GL23TransformFeedbackObjectINS3_23AnalyzerBaseObjectTypesEEEEEEENS_22__unordered_map_hasherIiSA_NS_4hashIiEELb1EEENS_21__unordered_map_equalIiSA_NS_8equal_toIiEELb1EEENS_9allocatorISA_EEE6rehashEm, 
                        __ZNSt3__112__hash_tableINS_17__hash_value_typeIiNS_10shared_ptrIN8GPUTools2SM2GL23TransformFeedbackObjectINS3_23AnalyzerBaseObjectTypesEEEEEEENS_22__unordered_map_hasherIiSA_NS_4hashIiEELb1EEENS_21__unordered_map_equalIiSA_NS_8equal_toIiEELb1EEENS_9allocatorISA_EEE6removeENS_21__hash_const_iteratorIPNS_11__hash_nodeISA_PvEEEE, 
                        __ZNSt3__112__hash_tableINS_17__hash_value_typeIiNS_10shared_ptrIN8GPUTools2SM2GL23TransformFeedbackObjectINS3_23AnalyzerBaseObjectTypesEEEEEEENS_22__unordered_map_hasherIiSA_NS_4hashIiEELb1EEENS_21__unordered_map_equalIiSA_NS_8equal_toIiEELb1EEENS_9allocatorISA_EEE8__rehashEm, 
                        __ZNSt3__112__hash_tableINS_17__hash_value_typeIiNS_10shared_ptrIN8GPUTools2SM2GL23TransformFeedbackObjectINS3_23AnalyzerBaseObjectTypesEEEEEEENS_22__unordered_map_hasherIiSA_NS_4hashIiEELb1EEENS_21__unordered_map_equalIiSA_NS_8equal_toIiEELb1EEENS_9allocatorISA_EEED2Ev, 
                        __ZNSt3__112__hash_tableINS_17__hash_value_typeIiiEENS_22__unordered_map_hasherIiS2_NS_4hashIiEELb1EEENS_21__unordered_map_equalIiS2_NS_8equal_toIiEELb1EEENS_9allocatorIS2_EEE14__erase_uniqueIiEEmRKT_, 
                        __ZNSt3__112__hash_tableINS_17__hash_value_typeIiiEENS_22__unordered_map_hasherIiS2_NS_4hashIiEELb1EEENS_21__unordered_map_equalIiS2_NS_8equal_toIiEELb1EEENS_9allocatorIS2_EEE4findIiEENS_15__hash_iteratorIPNS_11__hash_nodeIS2_PvEEEERKT_, 
                        __ZNSt3__112__hash_tableINS_17__hash_value_typeIiiEENS_22__unordered_map_hasherIiS2_NS_4hashIiEELb1EEENS_21__unordered_map_equalIiS2_NS_8equal_toIiEELb1EEENS_9allocatorIS2_EEE5eraseENS_21__hash_const_iteratorIPNS_11__hash_nodeIS2_PvEEEE, 
                        __ZNSt3__112__hash_tableINS_17__hash_value_typeIiiEENS_22__unordered_map_hasherIiS2_NS_4hashIiEELb1EEENS_21__unordered_map_equalIiS2_NS_8equal_toIiEELb1EEENS_9allocatorIS2_EEE6rehashEm, 
                        __ZNSt3__112__hash_tableINS_17__hash_value_typeIiiEENS_22__unordered_map_hasherIiS2_NS_4hashIiEELb1EEENS_21__unordered_map_equalIiS2_NS_8equal_toIiEELb1EEENS_9allocatorIS2_EEE6removeENS_21__hash_const_iteratorIPNS_11__hash_nodeIS2_PvEEEE, 
                        __ZNSt3__112__hash_tableINS_17__hash_value_typeIiiEENS_22__unordered_map_hasherIiS2_NS_4hashIiEELb1EEENS_21__unordered_map_equalIiS2_NS_8equal_toIiEELb1EEENS_9allocatorIS2_EEE8__rehashEm, 
                        __ZNSt3__112__hash_tableINS_17__hash_value_typeIiiEENS_22__unordered_map_hasherIiS2_NS_4hashIiEELb1EEENS_21__unordered_map_equalIiS2_NS_8equal_toIiEELb1EEENS_9allocatorIS2_EEED2Ev, 
                        __ZNSt3__112__hash_tableINS_17__hash_value_typeIyN8GPUTools2FD8FunctionEEENS_22__unordered_map_hasherIyS5_NS_4hashIyEELb1EEENS_21__unordered_map_equalIyS5_NS_8equal_toIyEELb1EEENS_9allocatorIS5_EEE12__deallocateEPNS_11__hash_nodeIS5_PvEE, 
                        __ZNSt3__112__hash_tableINS_17__hash_value_typeIyN8GPUTools2FD8FunctionEEENS_22__unordered_map_hasherIyS5_NS_4hashIyEELb1EEENS_21__unordered_map_equalIyS5_NS_8equal_toIyEELb1EEENS_9allocatorIS5_EEE21__construct_node_hashIRKNS_21piecewise_construct_tEJNS_5tupleIJRKyEEENSL_IJEEEEEENS_10unique_ptrINS_11__hash_nodeIS5_PvEENS_22__hash_node_destructorINSE_IST_EEEEEEmOT_DpOT0_, 
                        __ZNSt3__112__hash_tableINS_17__hash_value_typeIyN8GPUTools2FD8FunctionEEENS_22__unordered_map_hasherIyS5_NS_4hashIyEELb1EEENS_21__unordered_map_equalIyS5_NS_8equal_toIyEELb1EEENS_9allocatorIS5_EEE4findIyEENS_15__hash_iteratorIPNS_11__hash_nodeIS5_PvEEEERKT_, 
                        __ZNSt3__112__hash_tableINS_17__hash_value_typeIyN8GPUTools2FD8FunctionEEENS_22__unordered_map_hasherIyS5_NS_4hashIyEELb1EEENS_21__unordered_map_equalIyS5_NS_8equal_toIyEELb1EEENS_9allocatorIS5_EEE5eraseENS_21__hash_const_iteratorIPNS_11__hash_nodeIS5_PvEEEE, 
                        __ZNSt3__112__hash_tableINS_17__hash_value_typeIyN8GPUTools2FD8FunctionEEENS_22__unordered_map_hasherIyS5_NS_4hashIyEELb1EEENS_21__unordered_map_equalIyS5_NS_8equal_toIyEELb1EEENS_9allocatorIS5_EEE6rehashEm, 
                        __ZNSt3__112__hash_tableINS_17__hash_value_typeIyN8GPUTools2FD8FunctionEEENS_22__unordered_map_hasherIyS5_NS_4hashIyEELb1EEENS_21__unordered_map_equalIyS5_NS_8equal_toIyEELb1EEENS_9allocatorIS5_EEE6removeENS_21__hash_const_iteratorIPNS_11__hash_nodeIS5_PvEEEE, 
                        __ZNSt3__112__hash_tableINS_17__hash_value_typeIyN8GPUTools2FD8FunctionEEENS_22__unordered_map_hasherIyS5_NS_4hashIyEELb1EEENS_21__unordered_map_equalIyS5_NS_8equal_toIyEELb1EEENS_9allocatorIS5_EEE8__rehashEm, 
                        __ZNSt3__112__hash_tableINS_17__hash_value_typeIyN8GPUTools2FD8FunctionEEENS_22__unordered_map_hasherIyS5_NS_4hashIyEELb1EEENS_21__unordered_map_equalIyS5_NS_8equal_toIyEELb1EEENS_9allocatorIS5_EEED2Ev, 
                        __ZNSt3__112__hash_tableINS_17__hash_value_typeIyPN8GPUTools2SM2GL18ContextStateMirrorINS2_23AnalyzerBaseObjectTypesEEEEENS_22__unordered_map_hasherIyS9_NS_4hashIyEELb1EEENS_21__unordered_map_equalIyS9_NS_8equal_toIyEELb1EEENS_9allocatorIS9_EEE4findIyEENS_15__hash_iteratorIPNS_11__hash_nodeIS9_PvEEEERKT_, 
                        __ZNSt3__112__hash_tableINS_17__hash_value_typeIyPN8GPUTools2SM2GL18ContextStateMirrorINS2_23AnalyzerBaseObjectTypesEEEEENS_22__unordered_map_hasherIyS9_NS_4hashIyEELb1EEENS_21__unordered_map_equalIyS9_NS_8equal_toIyEELb1EEENS_9allocatorIS9_EEE5clearEv, 
                        __ZNSt3__112__hash_tableINS_17__hash_value_typeIyPN8GPUTools2SM2GL18ContextStateMirrorINS2_23AnalyzerBaseObjectTypesEEEEENS_22__unordered_map_hasherIyS9_NS_4hashIyEELb1EEENS_21__unordered_map_equalIyS9_NS_8equal_toIyEELb1EEENS_9allocatorIS9_EEE6rehashEm, 
                        __ZNSt3__112__hash_tableINS_17__hash_value_typeIyPN8GPUTools2SM2GL18ContextStateMirrorINS2_23AnalyzerBaseObjectTypesEEEEENS_22__unordered_map_hasherIyS9_NS_4hashIyEELb1EEENS_21__unordered_map_equalIyS9_NS_8equal_toIyEELb1EEENS_9allocatorIS9_EEE8__rehashEm, 
                        __ZNSt3__112__hash_tableINS_17__hash_value_typeIyPN8GPUTools2SM2GL18ContextStateMirrorINS2_23AnalyzerBaseObjectTypesEEEEENS_22__unordered_map_hasherIyS9_NS_4hashIyEELb1EEENS_21__unordered_map_equalIyS9_NS_8equal_toIyEELb1EEENS_9allocatorIS9_EEED2Ev, 
                        __ZNSt3__112__hash_tableINS_17__hash_value_typeIyPN8GPUTools2SM2GL21SharegroupStateMirrorINS2_23AnalyzerBaseObjectTypesEEEEENS_22__unordered_map_hasherIyS9_NS_4hashIyEELb1EEENS_21__unordered_map_equalIyS9_NS_8equal_toIyEELb1EEENS_9allocatorIS9_EEE4findIyEENS_15__hash_iteratorIPNS_11__hash_nodeIS9_PvEEEERKT_, 
                        __ZNSt3__112__hash_tableINS_17__hash_value_typeIyPN8GPUTools2SM2GL21SharegroupStateMirrorINS2_23AnalyzerBaseObjectTypesEEEEENS_22__unordered_map_hasherIyS9_NS_4hashIyEELb1EEENS_21__unordered_map_equalIyS9_NS_8equal_toIyEELb1EEENS_9allocatorIS9_EEE5clearEv, 
                        __ZNSt3__112__hash_tableINS_17__hash_value_typeIyPN8GPUTools2SM2GL21SharegroupStateMirrorINS2_23AnalyzerBaseObjectTypesEEEEENS_22__unordered_map_hasherIyS9_NS_4hashIyEELb1EEENS_21__unordered_map_equalIyS9_NS_8equal_toIyEELb1EEENS_9allocatorIS9_EEE6rehashEm, 
                        __ZNSt3__112__hash_tableINS_17__hash_value_typeIyPN8GPUTools2SM2GL21SharegroupStateMirrorINS2_23AnalyzerBaseObjectTypesEEEEENS_22__unordered_map_hasherIyS9_NS_4hashIyEELb1EEENS_21__unordered_map_equalIyS9_NS_8equal_toIyEELb1EEENS_9allocatorIS9_EEE8__rehashEm, 
                        __ZNSt3__112__hash_tableINS_17__hash_value_typeIyPN8GPUTools2SM2GL21SharegroupStateMirrorINS2_23AnalyzerBaseObjectTypesEEEEENS_22__unordered_map_hasherIyS9_NS_4hashIyEELb1EEENS_21__unordered_map_equalIyS9_NS_8equal_toIyEELb1EEENS_9allocatorIS9_EEED2Ev, 
                        __ZNSt3__112__hash_tableINS_17__hash_value_typeIyiEENS_22__unordered_map_hasherIyS2_NS_4hashIyEELb1EEENS_21__unordered_map_equalIyS2_NS_8equal_toIyEELb1EEENS_9allocatorIS2_EEE14__assign_multiINS_21__hash_const_iteratorIPNS_11__hash_nodeIS2_PvEEEEEEvT_SL_, 
                        __ZNSt3__112__hash_tableINS_17__hash_value_typeIyiEENS_22__unordered_map_hasherIyS2_NS_4hashIyEELb1EEENS_21__unordered_map_equalIyS2_NS_8equal_toIyEELb1EEENS_9allocatorIS2_EEE19__node_insert_multiEPNS_11__hash_nodeIS2_PvEE, 
                        __ZNSt3__112__hash_tableINS_17__hash_value_typeIyiEENS_22__unordered_map_hasherIyS2_NS_4hashIyEELb1EEENS_21__unordered_map_equalIyS2_NS_8equal_toIyEELb1EEENS_9allocatorIS2_EEE6rehashEm, 
                        __ZNSt3__112__hash_tableINS_17__hash_value_typeIyiEENS_22__unordered_map_hasherIyS2_NS_4hashIyEELb1EEENS_21__unordered_map_equalIyS2_NS_8equal_toIyEELb1EEENS_9allocatorIS2_EEE8__rehashEm, 
                        __ZNSt3__112__hash_tableINS_17__hash_value_typeIyiEENS_22__unordered_map_hasherIyS2_NS_4hashIyEELb1EEENS_21__unordered_map_equalIyS2_NS_8equal_toIyEELb1EEENS_9allocatorIS2_EEED2Ev, 
                        __ZNSt3__112__hash_tableIyNS_4hashIyEENS_8equal_toIyEENS_9allocatorIyEEE4findIyEENS_15__hash_iteratorIPNS_11__hash_nodeIyPvEEEERKT_, 
                        __ZNSt3__112__hash_tableIyNS_4hashIyEENS_8equal_toIyEENS_9allocatorIyEEE6rehashEm, 
                        __ZNSt3__112__hash_tableIyNS_4hashIyEENS_8equal_toIyEENS_9allocatorIyEEE8__rehashEm, 
                        __ZNSt3__112__hash_tableIyNS_4hashIyEENS_8equal_toIyEENS_9allocatorIyEEEC2EOS7_, 
                        __ZNSt3__112__hash_tableIyNS_4hashIyEENS_8equal_toIyEENS_9allocatorIyEEED2Ev, 
                        __ZNSt3__113__vector_baseI5DYMtxNS_9allocatorIS1_EEED2Ev, 
                        __ZNSt3__113__vector_baseIN8GPUTools2FD8FunctionENS_9allocatorIS3_EEED2Ev, 
                        __ZNSt3__113__vector_baseIN8GPUTools2SM2GL12TextureLayerINS1_23AnalyzerBaseObjectTypesEEENS_9allocatorIS6_EEED2Ev, 
                        __ZNSt3__113__vector_baseIN8GPUTools2SM2GL14ProgramUniformINS1_23AnalyzerBaseObjectTypesEEENS_9allocatorIS6_EEED2Ev, 
                        __ZNSt3__113__vector_baseINS_12basic_stringIcNS_11char_traitsIcEENS_9allocatorIcEEEENS4_IS6_EEED2Ev, 
                        __ZNSt3__113__vector_baseIPN8GPUTools19StateDeltaGenerator12DiffFunctionENS_9allocatorIS4_EEED2Ev, 
                        __ZNSt3__113__vector_baseIdNS_9allocatorIdEEED2Ev, 
                        __ZNSt3__113__vector_baseImNS_9allocatorImEEED2Ev, 
                        __ZNSt3__113__vector_baseIyNS_9allocatorIyEEED2Ev, 
                        __ZNSt3__113unordered_mapINS_12basic_stringIcNS_11char_traitsIcEENS_9allocatorIcEEEEiNS_4hashIS6_EENS_8equal_toIS6_EENS4_INS_4pairIKS6_iEEEEEC2ERKSF_, 
                        __ZNSt3__113unordered_mapINS_12basic_stringIcNS_11char_traitsIcEENS_9allocatorIcEEEEiNS_4hashIS6_EENS_8equal_toIS6_EENS4_INS_4pairIKS6_iEEEEEixERSC_, 
                        __ZNSt3__113unordered_mapIiN8GPUTools2SM2GL12TextureLevelINS1_23AnalyzerBaseObjectTypesEEENS_4hashIiEENS_8equal_toIiEENS_9allocatorINS_4pairIKiS6_EEEEEC2ERKSG_, 
                        __ZNSt3__113unordered_mapIiN8GPUTools2SM2GL12TextureLevelINS1_23AnalyzerBaseObjectTypesEEENS_4hashIiEENS_8equal_toIiEENS_9allocatorINS_4pairIKiS6_EEEEEixERSD_, 
                        __ZNSt3__113unordered_mapIiN8GPUTools2SM2GL13ProgramAttribINS1_23AnalyzerBaseObjectTypesEEENS_4hashIiEENS_8equal_toIiEENS_9allocatorINS_4pairIKiS6_EEEEEC2ERKSG_, 
                        __ZNSt3__113unordered_mapIiN8GPUTools2SM2GL13ProgramAttribINS1_23AnalyzerBaseObjectTypesEEENS_4hashIiEENS_8equal_toIiEENS_9allocatorINS_4pairIKiS6_EEEEEixERSD_, 
                        __ZNSt3__113unordered_mapIiN8GPUTools2SM2GL14ProgramUniformINS1_23AnalyzerBaseObjectTypesEEENS_4hashIiEENS_8equal_toIiEENS_9allocatorINS_4pairIKiS6_EEEEEC2ERKSG_, 
                        __ZNSt3__113unordered_mapIiN8GPUTools2SM2GL14ProgramUniformINS1_23AnalyzerBaseObjectTypesEEENS_4hashIiEENS_8equal_toIiEENS_9allocatorINS_4pairIKiS6_EEEEEixERSD_, 
                        __ZNSt3__113unordered_mapIiN8GPUTools2SM2GL19ProgramUniformBlockINS1_23AnalyzerBaseObjectTypesEEENS_4hashIiEENS_8equal_toIiEENS_9allocatorINS_4pairIKiS6_EEEEEC2ERKSG_, 
                        __ZNSt3__113unordered_mapIiN8GPUTools2SM2GL19ProgramUniformBlockINS1_23AnalyzerBaseObjectTypesEEENS_4hashIiEENS_8equal_toIiEENS_9allocatorINS_4pairIKiS6_EEEEEixEOi, 
                        __ZNSt3__113unordered_mapIiN8GPUTools2SM2GL19ProgramUniformBlockINS1_23AnalyzerBaseObjectTypesEEENS_4hashIiEENS_8equal_toIiEENS_9allocatorINS_4pairIKiS6_EEEEEixERSD_, 
                        __ZNSt3__113unordered_mapIiN8GPUTools2SM2GL31ProgramTransformFeedbackVaryingINS1_23AnalyzerBaseObjectTypesEEENS_4hashIiEENS_8equal_toIiEENS_9allocatorINS_4pairIKiS6_EEEEEC2ERKSG_, 
                        __ZNSt3__113unordered_mapIiN8GPUTools2SM2GL31ProgramTransformFeedbackVaryingINS1_23AnalyzerBaseObjectTypesEEENS_4hashIiEENS_8equal_toIiEENS_9allocatorINS_4pairIKiS6_EEEEEixERSD_, 
                        __ZNSt3__113unordered_mapIiNS_10shared_ptrIN8GPUTools2SM2GL10SyncObjectINS2_23AnalyzerBaseObjectTypesEEEEENS_4hashIiEENS_8equal_toIiEENS_9allocatorINS_4pairIKiS8_EEEEEC2ERKSI_, 
                        __ZNSt3__113unordered_mapIiNS_10shared_ptrIN8GPUTools2SM2GL10SyncObjectINS2_23AnalyzerBaseObjectTypesEEEEENS_4hashIiEENS_8equal_toIiEENS_9allocatorINS_4pairIKiS8_EEEEEixERSF_, 
                        __ZNSt3__113unordered_mapIiNS_10shared_ptrIN8GPUTools2SM2GL11QueryObjectINS2_23AnalyzerBaseObjectTypesEEEEENS_4hashIiEENS_8equal_toIiEENS_9allocatorINS_4pairIKiS8_EEEEEC2ERKSI_, 
                        __ZNSt3__113unordered_mapIiNS_10shared_ptrIN8GPUTools2SM2GL11QueryObjectINS2_23AnalyzerBaseObjectTypesEEEEENS_4hashIiEENS_8equal_toIiEENS_9allocatorINS_4pairIKiS8_EEEEEixERSF_, 
                        __ZNSt3__113unordered_mapIiNS_10shared_ptrIN8GPUTools2SM2GL12BufferObjectINS2_23AnalyzerBaseObjectTypesEEEEENS_4hashIiEENS_8equal_toIiEENS_9allocatorINS_4pairIKiS8_EEEEEC2ERKSI_, 
                        __ZNSt3__113unordered_mapIiNS_10shared_ptrIN8GPUTools2SM2GL12BufferObjectINS2_23AnalyzerBaseObjectTypesEEEEENS_4hashIiEENS_8equal_toIiEENS_9allocatorINS_4pairIKiS8_EEEEEixERSF_, 
                        __ZNSt3__113unordered_mapIiNS_10shared_ptrIN8GPUTools2SM2GL12DrawableInfoINS2_23AnalyzerBaseObjectTypesEEEEENS_4hashIiEENS_8equal_toIiEENS_9allocatorINS_4pairIKiS8_EEEEEixERSF_, 
                        __ZNSt3__113unordered_mapIiNS_10shared_ptrIN8GPUTools2SM2GL12ShaderObjectINS2_23AnalyzerBaseObjectTypesEEEEENS_4hashIiEENS_8equal_toIiEENS_9allocatorINS_4pairIKiS8_EEEEEC2ERKSI_, 
                        __ZNSt3__113unordered_mapIiNS_10shared_ptrIN8GPUTools2SM2GL12ShaderObjectINS2_23AnalyzerBaseObjectTypesEEEEENS_4hashIiEENS_8equal_toIiEENS_9allocatorINS_4pairIKiS8_EEEEEixERSF_, 
                        __ZNSt3__113unordered_mapIiNS_10shared_ptrIN8GPUTools2SM2GL13ProgramObjectINS2_23AnalyzerBaseObjectTypesEEEEENS_4hashIiEENS_8equal_toIiEENS_9allocatorINS_4pairIKiS8_EEEEEC2ERKSI_, 
                        __ZNSt3__113unordered_mapIiNS_10shared_ptrIN8GPUTools2SM2GL13ProgramObjectINS2_23AnalyzerBaseObjectTypesEEEEENS_4hashIiEENS_8equal_toIiEENS_9allocatorINS_4pairIKiS8_EEEEEixERSF_, 
                        __ZNSt3__113unordered_mapIiNS_10shared_ptrIN8GPUTools2SM2GL13SamplerObjectINS2_23AnalyzerBaseObjectTypesEEEEENS_4hashIiEENS_8equal_toIiEENS_9allocatorINS_4pairIKiS8_EEEEEC2ERKSI_, 
                        __ZNSt3__113unordered_mapIiNS_10shared_ptrIN8GPUTools2SM2GL13SamplerObjectINS2_23AnalyzerBaseObjectTypesEEEEENS_4hashIiEENS_8equal_toIiEENS_9allocatorINS_4pairIKiS8_EEEEEixERSF_, 
                        __ZNSt3__113unordered_mapIiNS_10shared_ptrIN8GPUTools2SM2GL13TextureObjectINS2_23AnalyzerBaseObjectTypesEEEEENS_4hashIiEENS_8equal_toIiEENS_9allocatorINS_4pairIKiS8_EEEEEC2ERKSI_, 
                        __ZNSt3__113unordered_mapIiNS_10shared_ptrIN8GPUTools2SM2GL13TextureObjectINS2_23AnalyzerBaseObjectTypesEEEEENS_4hashIiEENS_8equal_toIiEENS_9allocatorINS_4pairIKiS8_EEEEEixEOi, 
                        __ZNSt3__113unordered_mapIiNS_10shared_ptrIN8GPUTools2SM2GL13TextureObjectINS2_23AnalyzerBaseObjectTypesEEEEENS_4hashIiEENS_8equal_toIiEENS_9allocatorINS_4pairIKiS8_EEEEEixERSF_, 
                        __ZNSt3__113unordered_mapIiNS_10shared_ptrIN8GPUTools2SM2GL17FramebufferObjectINS2_23AnalyzerBaseObjectTypesEEEEENS_4hashIiEENS_8equal_toIiEENS_9allocatorINS_4pairIKiS8_EEEEEC2ERKSI_, 
                        __ZNSt3__113unordered_mapIiNS_10shared_ptrIN8GPUTools2SM2GL17FramebufferObjectINS2_23AnalyzerBaseObjectTypesEEEEENS_4hashIiEENS_8equal_toIiEENS_9allocatorINS_4pairIKiS8_EEEEEixERSF_, 
                        __ZNSt3__113unordered_mapIiNS_10shared_ptrIN8GPUTools2SM2GL17VertexArrayObjectINS2_23AnalyzerBaseObjectTypesEEEEENS_4hashIiEENS_8equal_toIiEENS_9allocatorINS_4pairIKiS8_EEEEEC2ERKSI_, 
                        __ZNSt3__113unordered_mapIiNS_10shared_ptrIN8GPUTools2SM2GL17VertexArrayObjectINS2_23AnalyzerBaseObjectTypesEEEEENS_4hashIiEENS_8equal_toIiEENS_9allocatorINS_4pairIKiS8_EEEEEixEOi, 
                        __ZNSt3__113unordered_mapIiNS_10shared_ptrIN8GPUTools2SM2GL17VertexArrayObjectINS2_23AnalyzerBaseObjectTypesEEEEENS_4hashIiEENS_8equal_toIiEENS_9allocatorINS_4pairIKiS8_EEEEEixERSF_, 
                        __ZNSt3__113unordered_mapIiNS_10shared_ptrIN8GPUTools2SM2GL18RenderbufferObjectINS2_23AnalyzerBaseObjectTypesEEEEENS_4hashIiEENS_8equal_toIiEENS_9allocatorINS_4pairIKiS8_EEEEEC2ERKSI_, 
                        __ZNSt3__113unordered_mapIiNS_10shared_ptrIN8GPUTools2SM2GL18RenderbufferObjectINS2_23AnalyzerBaseObjectTypesEEEEENS_4hashIiEENS_8equal_toIiEENS_9allocatorINS_4pairIKiS8_EEEEEixERSF_, 
                        __ZNSt3__113unordered_mapIiNS_10shared_ptrIN8GPUTools2SM2GL21ProgramPipelineObjectINS2_23AnalyzerBaseObjectTypesEEEEENS_4hashIiEENS_8equal_toIiEENS_9allocatorINS_4pairIKiS8_EEEEEC2ERKSI_, 
                        __ZNSt3__113unordered_mapIiNS_10shared_ptrIN8GPUTools2SM2GL21ProgramPipelineObjectINS2_23AnalyzerBaseObjectTypesEEEEENS_4hashIiEENS_8equal_toIiEENS_9allocatorINS_4pairIKiS8_EEEEEixERSF_, 
                        __ZNSt3__113unordered_mapIiNS_10shared_ptrIN8GPUTools2SM2GL23TransformFeedbackObjectINS2_23AnalyzerBaseObjectTypesEEEEENS_4hashIiEENS_8equal_toIiEENS_9allocatorINS_4pairIKiS8_EEEEEC2ERKSI_, 
                        __ZNSt3__113unordered_mapIiNS_10shared_ptrIN8GPUTools2SM2GL23TransformFeedbackObjectINS2_23AnalyzerBaseObjectTypesEEEEENS_4hashIiEENS_8equal_toIiEENS_9allocatorINS_4pairIKiS8_EEEEEixEOi, 
                        __ZNSt3__113unordered_mapIiNS_10shared_ptrIN8GPUTools2SM2GL23TransformFeedbackObjectINS2_23AnalyzerBaseObjectTypesEEEEENS_4hashIiEENS_8equal_toIiEENS_9allocatorINS_4pairIKiS8_EEEEEixERSF_, 
                        __ZNSt3__113unordered_mapIiiNS_4hashIiEENS_8equal_toIiEENS_9allocatorINS_4pairIKiiEEEEEC2ERKSA_, 
                        __ZNSt3__113unordered_mapIiiNS_4hashIiEENS_8equal_toIiEENS_9allocatorINS_4pairIKiiEEEEEixEOi, 
                        __ZNSt3__113unordered_mapIiiNS_4hashIiEENS_8equal_toIiEENS_9allocatorINS_4pairIKiiEEEEEixERS7_, 
                        __ZNSt3__113unordered_mapIyN8GPUTools2FD8FunctionENS_4hashIyEENS_8equal_toIyEENS_9allocatorINS_4pairIKyS3_EEEEEixERSA_, 
                        __ZNSt3__113unordered_mapIyiNS_4hashIyEENS_8equal_toIyEENS_9allocatorINS_4pairIKyiEEEEEixERS7_, 
                        __ZNSt3__114__split_bufferIN8GPUTools2FD8FunctionERNS_9allocatorIS3_EEED2Ev, 
                        __ZNSt3__114__split_bufferIN8GPUTools2SM2GL12TextureLayerINS1_23AnalyzerBaseObjectTypesEEERNS_9allocatorIS6_EEED2Ev, 
                        __ZNSt3__114__split_bufferIN8GPUTools2SM2GL14ProgramUniformINS1_23AnalyzerBaseObjectTypesEEERNS_9allocatorIS6_EEED2Ev, 
                        __ZNSt3__114__split_bufferINS_12basic_stringIcNS_11char_traitsIcEENS_9allocatorIcEEEERNS4_IS6_EEED2Ev, 
                        __ZNSt3__114__split_bufferIPNS_12basic_stringIcNS_11char_traitsIcEENS_9allocatorIcEEEENS4_IS7_EEE10push_frontEOS7_, 
                        __ZNSt3__114__split_bufferIPNS_12basic_stringIcNS_11char_traitsIcEENS_9allocatorIcEEEENS4_IS7_EEE9push_backEOS7_, 
                        __ZNSt3__114__split_bufferIPNS_12basic_stringIcNS_11char_traitsIcEENS_9allocatorIcEEEENS4_IS7_EEED2Ev, 
                        __ZNSt3__114__split_bufferIPNS_12basic_stringIcNS_11char_traitsIcEENS_9allocatorIcEEEERNS4_IS7_EEE10push_frontERKS7_, 
                        __ZNSt3__114__split_bufferIPNS_12basic_stringIcNS_11char_traitsIcEENS_9allocatorIcEEEERNS4_IS7_EEE9push_backEOS7_, 
                        __ZNSt3__114__split_bufferIPPN8GPUTools19StateDeltaGenerator12DiffFunctionENS_9allocatorIS5_EEE10push_frontEOS5_, 
                        __ZNSt3__114__split_bufferIPPN8GPUTools19StateDeltaGenerator12DiffFunctionENS_9allocatorIS5_EEE9push_backEOS5_, 
                        __ZNSt3__114__split_bufferIPPN8GPUTools19StateDeltaGenerator12DiffFunctionENS_9allocatorIS5_EEED2Ev, 
                        __ZNSt3__114__split_bufferIPPN8GPUTools19StateDeltaGenerator12DiffFunctionERNS_9allocatorIS5_EEE10push_frontERKS5_, 
                        __ZNSt3__114__split_bufferIPPN8GPUTools19StateDeltaGenerator12DiffFunctionERNS_9allocatorIS5_EEE9push_backEOS5_, 
                        __ZNSt3__115basic_stringbufIcNS_11char_traitsIcEENS_9allocatorIcEEE3strERKNS_12basic_stringIcS2_S4_EE, 
                        __ZNSt3__115basic_stringbufIcNS_11char_traitsIcEENS_9allocatorIcEEE7seekoffExNS_8ios_base7seekdirEj, 
                        __ZNSt3__115basic_stringbufIcNS_11char_traitsIcEENS_9allocatorIcEEE7seekposENS_4fposI11__mbstate_tEEj, 
                        __ZNSt3__115basic_stringbufIcNS_11char_traitsIcEENS_9allocatorIcEEE8overflowEi, 
                        __ZNSt3__115basic_stringbufIcNS_11char_traitsIcEENS_9allocatorIcEEE9pbackfailEi, 
                        __ZNSt3__115basic_stringbufIcNS_11char_traitsIcEENS_9allocatorIcEEE9underflowEv, 
                        __ZNSt3__115basic_stringbufIcNS_11char_traitsIcEENS_9allocatorIcEEED0Ev, 
                        __ZNSt3__115basic_stringbufIcNS_11char_traitsIcEENS_9allocatorIcEEED1Ev, 
                        __ZNSt3__117bad_function_callD0Ev, __ZNSt3__117bad_function_callD1Ev, 
                        __ZNSt3__118__tree_left_rotateIPNS_16__tree_node_baseIPvEEEEvT_, 
                        __ZNSt3__119__tree_right_rotateIPNS_16__tree_node_baseIPvEEEEvT_, 
                        __ZNSt3__119basic_istringstreamIcNS_11char_traitsIcEENS_9allocatorIcEEED0Ev, 
                        __ZNSt3__119basic_istringstreamIcNS_11char_traitsIcEENS_9allocatorIcEEED1Ev, 
                        __ZNSt3__120__shared_ptr_emplaceIN8GPUTools2SM2GL10SyncObjectINS1_23AnalyzerBaseObjectTypesEEENS_9allocatorIS6_EEE16__on_zero_sharedEv, 
                        __ZNSt3__120__shared_ptr_emplaceIN8GPUTools2SM2GL10SyncObjectINS1_23AnalyzerBaseObjectTypesEEENS_9allocatorIS6_EEE21__on_zero_shared_weakEv, 
                        __ZNSt3__120__shared_ptr_emplaceIN8GPUTools2SM2GL10SyncObjectINS1_23AnalyzerBaseObjectTypesEEENS_9allocatorIS6_EEED0Ev, 
                        __ZNSt3__120__shared_ptr_emplaceIN8GPUTools2SM2GL10SyncObjectINS1_23AnalyzerBaseObjectTypesEEENS_9allocatorIS6_EEED1Ev, 
                        __ZNSt3__120__shared_ptr_emplaceIN8GPUTools2SM2GL11QueryObjectINS1_23AnalyzerBaseObjectTypesEEENS_9allocatorIS6_EEE16__on_zero_sharedEv, 
                        __ZNSt3__120__shared_ptr_emplaceIN8GPUTools2SM2GL11QueryObjectINS1_23AnalyzerBaseObjectTypesEEENS_9allocatorIS6_EEE21__on_zero_shared_weakEv, 
                        __ZNSt3__120__shared_ptr_emplaceIN8GPUTools2SM2GL11QueryObjectINS1_23AnalyzerBaseObjectTypesEEENS_9allocatorIS6_EEED0Ev, 
                        __ZNSt3__120__shared_ptr_emplaceIN8GPUTools2SM2GL11QueryObjectINS1_23AnalyzerBaseObjectTypesEEENS_9allocatorIS6_EEED1Ev, 
                        __ZNSt3__120__shared_ptr_emplaceIN8GPUTools2SM2GL12BufferObjectINS1_23AnalyzerBaseObjectTypesEEENS_9allocatorIS6_EEE16__on_zero_sharedEv, 
                        __ZNSt3__120__shared_ptr_emplaceIN8GPUTools2SM2GL12BufferObjectINS1_23AnalyzerBaseObjectTypesEEENS_9allocatorIS6_EEE21__on_zero_shared_weakEv, 
                        __ZNSt3__120__shared_ptr_emplaceIN8GPUTools2SM2GL12BufferObjectINS1_23AnalyzerBaseObjectTypesEEENS_9allocatorIS6_EEED0Ev, 
                        __ZNSt3__120__shared_ptr_emplaceIN8GPUTools2SM2GL12BufferObjectINS1_23AnalyzerBaseObjectTypesEEENS_9allocatorIS6_EEED1Ev, 
                        __ZNSt3__120__shared_ptr_emplaceIN8GPUTools2SM2GL12DrawableInfoINS1_23AnalyzerBaseObjectTypesEEENS_9allocatorIS6_EEE16__on_zero_sharedEv, 
                        __ZNSt3__120__shared_ptr_emplaceIN8GPUTools2SM2GL12DrawableInfoINS1_23AnalyzerBaseObjectTypesEEENS_9allocatorIS6_EEE21__on_zero_shared_weakEv, 
                        __ZNSt3__120__shared_ptr_emplaceIN8GPUTools2SM2GL12DrawableInfoINS1_23AnalyzerBaseObjectTypesEEENS_9allocatorIS6_EEED0Ev, 
                        __ZNSt3__120__shared_ptr_emplaceIN8GPUTools2SM2GL12DrawableInfoINS1_23AnalyzerBaseObjectTypesEEENS_9allocatorIS6_EEED1Ev, 
                        __ZNSt3__120__shared_ptr_emplaceIN8GPUTools2SM2GL12ShaderObjectINS1_23AnalyzerBaseObjectTypesEEENS_9allocatorIS6_EEE16__on_zero_sharedEv, 
                        __ZNSt3__120__shared_ptr_emplaceIN8GPUTools2SM2GL12ShaderObjectINS1_23AnalyzerBaseObjectTypesEEENS_9allocatorIS6_EEE21__on_zero_shared_weakEv, 
                        __ZNSt3__120__shared_ptr_emplaceIN8GPUTools2SM2GL12ShaderObjectINS1_23AnalyzerBaseObjectTypesEEENS_9allocatorIS6_EEED0Ev, 
                        __ZNSt3__120__shared_ptr_emplaceIN8GPUTools2SM2GL12ShaderObjectINS1_23AnalyzerBaseObjectTypesEEENS_9allocatorIS6_EEED1Ev, 
                        __ZNSt3__120__shared_ptr_emplaceIN8GPUTools2SM2GL13ProgramObjectINS1_23AnalyzerBaseObjectTypesEEENS_9allocatorIS6_EEE16__on_zero_sharedEv, 
                        __ZNSt3__120__shared_ptr_emplaceIN8GPUTools2SM2GL13ProgramObjectINS1_23AnalyzerBaseObjectTypesEEENS_9allocatorIS6_EEE21__on_zero_shared_weakEv, 
                        __ZNSt3__120__shared_ptr_emplaceIN8GPUTools2SM2GL13ProgramObjectINS1_23AnalyzerBaseObjectTypesEEENS_9allocatorIS6_EEED0Ev, 
                        __ZNSt3__120__shared_ptr_emplaceIN8GPUTools2SM2GL13ProgramObjectINS1_23AnalyzerBaseObjectTypesEEENS_9allocatorIS6_EEED1Ev, 
                        __ZNSt3__120__shared_ptr_emplaceIN8GPUTools2SM2GL13SamplerObjectINS1_23AnalyzerBaseObjectTypesEEENS_9allocatorIS6_EEE16__on_zero_sharedEv, 
                        __ZNSt3__120__shared_ptr_emplaceIN8GPUTools2SM2GL13SamplerObjectINS1_23AnalyzerBaseObjectTypesEEENS_9allocatorIS6_EEE21__on_zero_shared_weakEv, 
                        __ZNSt3__120__shared_ptr_emplaceIN8GPUTools2SM2GL13SamplerObjectINS1_23AnalyzerBaseObjectTypesEEENS_9allocatorIS6_EEED0Ev, 
                        __ZNSt3__120__shared_ptr_emplaceIN8GPUTools2SM2GL13SamplerObjectINS1_23AnalyzerBaseObjectTypesEEENS_9allocatorIS6_EEED1Ev, 
                        __ZNSt3__120__shared_ptr_emplaceIN8GPUTools2SM2GL13TextureObjectINS1_23AnalyzerBaseObjectTypesEEENS_9allocatorIS6_EEE16__on_zero_sharedEv, 
                        __ZNSt3__120__shared_ptr_emplaceIN8GPUTools2SM2GL13TextureObjectINS1_23AnalyzerBaseObjectTypesEEENS_9allocatorIS6_EEE21__on_zero_shared_weakEv, 
                        __ZNSt3__120__shared_ptr_emplaceIN8GPUTools2SM2GL13TextureObjectINS1_23AnalyzerBaseObjectTypesEEENS_9allocatorIS6_EEED0Ev, 
                        __ZNSt3__120__shared_ptr_emplaceIN8GPUTools2SM2GL13TextureObjectINS1_23AnalyzerBaseObjectTypesEEENS_9allocatorIS6_EEED1Ev, 
                        __ZNSt3__120__shared_ptr_emplaceIN8GPUTools2SM2GL17FramebufferObjectINS1_23AnalyzerBaseObjectTypesEEENS_9allocatorIS6_EEE16__on_zero_sharedEv, 
                        __ZNSt3__120__shared_ptr_emplaceIN8GPUTools2SM2GL17FramebufferObjectINS1_23AnalyzerBaseObjectTypesEEENS_9allocatorIS6_EEE21__on_zero_shared_weakEv, 
                        __ZNSt3__120__shared_ptr_emplaceIN8GPUTools2SM2GL17FramebufferObjectINS1_23AnalyzerBaseObjectTypesEEENS_9allocatorIS6_EEED0Ev, 
                        __ZNSt3__120__shared_ptr_emplaceIN8GPUTools2SM2GL17FramebufferObjectINS1_23AnalyzerBaseObjectTypesEEENS_9allocatorIS6_EEED1Ev, 
                        __ZNSt3__120__shared_ptr_emplaceIN8GPUTools2SM2GL17VertexArrayObjectINS1_23AnalyzerBaseObjectTypesEEENS_9allocatorIS6_EEE16__on_zero_sharedEv, 
                        __ZNSt3__120__shared_ptr_emplaceIN8GPUTools2SM2GL17VertexArrayObjectINS1_23AnalyzerBaseObjectTypesEEENS_9allocatorIS6_EEE21__on_zero_shared_weakEv, 
                        __ZNSt3__120__shared_ptr_emplaceIN8GPUTools2SM2GL17VertexArrayObjectINS1_23AnalyzerBaseObjectTypesEEENS_9allocatorIS6_EEED0Ev, 
                        __ZNSt3__120__shared_ptr_emplaceIN8GPUTools2SM2GL17VertexArrayObjectINS1_23AnalyzerBaseObjectTypesEEENS_9allocatorIS6_EEED1Ev, 
                        __ZNSt3__120__shared_ptr_emplaceIN8GPUTools2SM2GL18RenderbufferObjectINS1_23AnalyzerBaseObjectTypesEEENS_9allocatorIS6_EEE16__on_zero_sharedEv, 
                        __ZNSt3__120__shared_ptr_emplaceIN8GPUTools2SM2GL18RenderbufferObjectINS1_23AnalyzerBaseObjectTypesEEENS_9allocatorIS6_EEE21__on_zero_shared_weakEv, 
                        __ZNSt3__120__shared_ptr_emplaceIN8GPUTools2SM2GL18RenderbufferObjectINS1_23AnalyzerBaseObjectTypesEEENS_9allocatorIS6_EEED0Ev, 
                        __ZNSt3__120__shared_ptr_emplaceIN8GPUTools2SM2GL18RenderbufferObjectINS1_23AnalyzerBaseObjectTypesEEENS_9allocatorIS6_EEED1Ev, 
                        __ZNSt3__120__shared_ptr_emplaceIN8GPUTools2SM2GL21ProgramPipelineObjectINS1_23AnalyzerBaseObjectTypesEEENS_9allocatorIS6_EEE16__on_zero_sharedEv, 
                        __ZNSt3__120__shared_ptr_emplaceIN8GPUTools2SM2GL21ProgramPipelineObjectINS1_23AnalyzerBaseObjectTypesEEENS_9allocatorIS6_EEE21__on_zero_shared_weakEv, 
                        __ZNSt3__120__shared_ptr_emplaceIN8GPUTools2SM2GL21ProgramPipelineObjectINS1_23AnalyzerBaseObjectTypesEEENS_9allocatorIS6_EEED0Ev, 
                        __ZNSt3__120__shared_ptr_emplaceIN8GPUTools2SM2GL21ProgramPipelineObjectINS1_23AnalyzerBaseObjectTypesEEENS_9allocatorIS6_EEED1Ev, 
                        __ZNSt3__120__shared_ptr_emplaceIN8GPUTools2SM2GL23TransformFeedbackObjectINS1_23AnalyzerBaseObjectTypesEEENS_9allocatorIS6_EEE16__on_zero_sharedEv, 
                        __ZNSt3__120__shared_ptr_emplaceIN8GPUTools2SM2GL23TransformFeedbackObjectINS1_23AnalyzerBaseObjectTypesEEENS_9allocatorIS6_EEE21__on_zero_shared_weakEv, 
                        __ZNSt3__120__shared_ptr_emplaceIN8GPUTools2SM2GL23TransformFeedbackObjectINS1_23AnalyzerBaseObjectTypesEEENS_9allocatorIS6_EEED0Ev, 
                        __ZNSt3__120__shared_ptr_emplaceIN8GPUTools2SM2GL23TransformFeedbackObjectINS1_23AnalyzerBaseObjectTypesEEENS_9allocatorIS6_EEED1Ev, 
                        __ZNSt3__121__murmur2_or_cityhashImLm64EE18__hash_len_0_to_16EPKcm, 
                        __ZNSt3__121__murmur2_or_cityhashImLm64EE19__hash_len_17_to_32EPKcm, 
                        __ZNSt3__121__murmur2_or_cityhashImLm64EE19__hash_len_33_to_64EPKcm, 
                        __ZNSt3__121__murmur2_or_cityhashImLm64EEclEPKvm, 
                        __ZNSt3__127__tree_balance_after_insertIPNS_16__tree_node_baseIPvEEEEvT_S5_, 
                        __ZNSt3__15dequeINS_12basic_stringIcNS_11char_traitsIcEENS_9allocatorIcEEEENS4_IS6_EEE19__add_back_capacityEv, 
                        __ZNSt3__15dequeINS_12basic_stringIcNS_11char_traitsIcEENS_9allocatorIcEEEENS4_IS6_EEE8pop_backEv, 
                        __ZNSt3__15dequeINS_12basic_stringIcNS_11char_traitsIcEENS_9allocatorIcEEEENS4_IS6_EEE9push_backEOS6_, 
                        __ZNSt3__15dequeIPN8GPUTools19StateDeltaGenerator12DiffFunctionENS_9allocatorIS4_EEE19__add_back_capacityEv, 
                        __ZNSt3__15dequeIPN8GPUTools19StateDeltaGenerator12DiffFunctionENS_9allocatorIS4_EEE8pop_backEv, 
                        __ZNSt3__15dequeIPN8GPUTools19StateDeltaGenerator12DiffFunctionENS_9allocatorIS4_EEE9push_backEOS4_, 
                        __ZNSt3__15dequeIPN8GPUTools19StateDeltaGenerator12DiffFunctionENS_9allocatorIS4_EEE9push_backERKS4_, 
                        __ZNSt3__16__treeIPN8GPUTools19StateDeltaGenerator12DiffFunctionENS_4lessIS4_EENS_9allocatorIS4_EEE15__insert_uniqueERKS4_, 
                        __ZNSt3__16__treeIPN8GPUTools19StateDeltaGenerator12DiffFunctionENS_4lessIS4_EENS_9allocatorIS4_EEE16__insert_node_atEPNS_16__tree_node_baseIPvEERSD_SD_, 
                        __ZNSt3__16__treeIPN8GPUTools19StateDeltaGenerator12DiffFunctionENS_4lessIS4_EENS_9allocatorIS4_EEE4findIS4_EENS_15__tree_iteratorIS4_PNS_11__tree_nodeIS4_PvEElEERKT_, 
                        __ZNSt3__16__treeIPN8GPUTools19StateDeltaGenerator12DiffFunctionENS_4lessIS4_EENS_9allocatorIS4_EEE7destroyEPNS_11__tree_nodeIS4_PvEE, 
                        __ZNSt3__16__treeIjNS_4lessIjEENS_9allocatorIjEEE15__insert_uniqueEOj, 
                        __ZNSt3__16__treeIjNS_4lessIjEENS_9allocatorIjEEE15__insert_uniqueERKj, 
                        __ZNSt3__16__treeIjNS_4lessIjEENS_9allocatorIjEEE16__insert_node_atEPNS_16__tree_node_baseIPvEERS9_S9_, 
                        __ZNSt3__16__treeIjNS_4lessIjEENS_9allocatorIjEEE20__node_insert_uniqueEPNS_11__tree_nodeIjPvEE, 
                        __ZNSt3__16__treeIjNS_4lessIjEENS_9allocatorIjEEE4findIjEENS_15__tree_iteratorIjPNS_11__tree_nodeIjPvEElEERKT_, 
                        __ZNSt3__16__treeIjNS_4lessIjEENS_9allocatorIjEEE7destroyEPNS_11__tree_nodeIjPvEE, 
                        __ZNSt3__16vectorI5DYMtxNS_9allocatorIS1_EEE21__push_back_slow_pathIRKS1_EEvOT_, 
                        __ZNSt3__16vectorI5DYMtxNS_9allocatorIS1_EEE26__swap_out_circular_bufferERNS_14__split_bufferIS1_RS3_EE, 
                        __ZNSt3__16vectorI5DYMtxNS_9allocatorIS1_EEE8allocateEm, 
                        __ZNSt3__16vectorI5DYMtxNS_9allocatorIS1_EEEC2ERKS4_, 
                        __ZNSt3__16vectorIN8GPUTools2FD8FunctionENS_9allocatorIS3_EEE21__push_back_slow_pathIS3_EEvOT_, 
                        __ZNSt3__16vectorIN8GPUTools2FD8FunctionENS_9allocatorIS3_EEE26__swap_out_circular_bufferERNS_14__split_bufferIS3_RS5_EE, 
                        __ZNSt3__16vectorIN8GPUTools2SM2GL12TextureLayerINS1_23AnalyzerBaseObjectTypesEEENS_9allocatorIS6_EEE26__swap_out_circular_bufferERNS_14__split_bufferIS6_RS8_EE, 
                        __ZNSt3__16vectorIN8GPUTools2SM2GL12TextureLayerINS1_23AnalyzerBaseObjectTypesEEENS_9allocatorIS6_EEE6resizeEm, 
                        __ZNSt3__16vectorIN8GPUTools2SM2GL12TextureLayerINS1_23AnalyzerBaseObjectTypesEEENS_9allocatorIS6_EEE8__appendEm, 
                        __ZNSt3__16vectorIN8GPUTools2SM2GL12TextureLayerINS1_23AnalyzerBaseObjectTypesEEENS_9allocatorIS6_EEE8allocateEm, 
                        __ZNSt3__16vectorIN8GPUTools2SM2GL12TextureLayerINS1_23AnalyzerBaseObjectTypesEEENS_9allocatorIS6_EEEC2ERKS9_, 
                        __ZNSt3__16vectorIN8GPUTools2SM2GL14ProgramUniformINS1_23AnalyzerBaseObjectTypesEEENS_9allocatorIS6_EEE18__construct_at_endIPS6_EENS_9enable_ifIXsr21__is_forward_iteratorIT_EE5valueEvE4typeESD_SD_m, 
                        __ZNSt3__16vectorIN8GPUTools2SM2GL14ProgramUniformINS1_23AnalyzerBaseObjectTypesEEENS_9allocatorIS6_EEE26__swap_out_circular_bufferERNS_14__split_bufferIS6_RS8_EE, 
                        __ZNSt3__16vectorIN8GPUTools2SM2GL14ProgramUniformINS1_23AnalyzerBaseObjectTypesEEENS_9allocatorIS6_EEE6resizeEm, 
                        __ZNSt3__16vectorIN8GPUTools2SM2GL14ProgramUniformINS1_23AnalyzerBaseObjectTypesEEENS_9allocatorIS6_EEE8__appendEm, 
                        __ZNSt3__16vectorIN8GPUTools2SM2GL14ProgramUniformINS1_23AnalyzerBaseObjectTypesEEENS_9allocatorIS6_EEE8allocateEm, 
                        __ZNSt3__16vectorIN8GPUTools2SM2GL14ProgramUniformINS1_23AnalyzerBaseObjectTypesEEENS_9allocatorIS6_EEEC2ERKS9_, 
                        __ZNSt3__16vectorINS_12basic_stringIcNS_11char_traitsIcEENS_9allocatorIcEEEENS4_IS6_EEE10deallocateEv, 
                        __ZNSt3__16vectorINS_12basic_stringIcNS_11char_traitsIcEENS_9allocatorIcEEEENS4_IS6_EEE21__push_back_slow_pathIS6_EEvOT_, 
                        __ZNSt3__16vectorINS_12basic_stringIcNS_11char_traitsIcEENS_9allocatorIcEEEENS4_IS6_EEE6assignIPS6_EENS_9enable_ifIXaasr21__is_forward_iteratorIT_EE5valuesr16is_constructibleIS6_NS_15iterator_traitsISC_E9referenceEEE5valueEvE4typeESC_SC_, 
                        __ZNSt3__16vectorINS_12basic_stringIcNS_11char_traitsIcEENS_9allocatorIcEEEENS4_IS6_EEE6resizeEm, 
                        __ZNSt3__16vectorINS_12basic_stringIcNS_11char_traitsIcEENS_9allocatorIcEEEENS4_IS6_EEE8__appendEm, 
                        __ZNSt3__16vectorINS_12basic_stringIcNS_11char_traitsIcEENS_9allocatorIcEEEENS4_IS6_EEE8allocateEm, 
                        __ZNSt3__16vectorINS_12basic_stringIcNS_11char_traitsIcEENS_9allocatorIcEEEENS4_IS6_EEEC2ERKS8_, 
                        __ZNSt3__16vectorIPN8GPUTools19StateDeltaGenerator12DiffFunctionENS_9allocatorIS4_EEE21__push_back_slow_pathIRKS4_EEvOT_, 
                        __ZNSt3__16vectorIPN8GPUTools19StateDeltaGenerator12DiffFunctionENS_9allocatorIS4_EEE21__push_back_slow_pathIS4_EEvOT_, 
                        __ZNSt3__16vectorIPN8GPUTools19StateDeltaGenerator12DiffFunctionENS_9allocatorIS4_EEE26__swap_out_circular_bufferERNS_14__split_bufferIS4_RS6_EE, 
                        __ZNSt3__16vectorIdNS_9allocatorIdEEE10deallocateEv, 
                        __ZNSt3__16vectorIdNS_9allocatorIdEEE26__swap_out_circular_bufferERNS_14__split_bufferIdRS2_EE, 
                        __ZNSt3__16vectorIdNS_9allocatorIdEEE6assignIPdEENS_9enable_ifIXaasr21__is_forward_iteratorIT_EE5valuesr16is_constructibleIdNS_15iterator_traitsIS7_E9referenceEEE5valueEvE4typeES7_S7_, 
                        __ZNSt3__16vectorIdNS_9allocatorIdEEE6resizeEm, 
                        __ZNSt3__16vectorIdNS_9allocatorIdEEE6resizeEmRKd, 
                        __ZNSt3__16vectorIdNS_9allocatorIdEEE8__appendEm, 
                        __ZNSt3__16vectorIdNS_9allocatorIdEEE8__appendEmRKd, 
                        __ZNSt3__16vectorIdNS_9allocatorIdEEE8allocateEm, 
                        __ZNSt3__16vectorIdNS_9allocatorIdEEEC2ERKS3_, 
                        __ZNSt3__16vectorImNS_9allocatorImEEE21__push_back_slow_pathIRKmEEvOT_, 
                        __ZNSt3__16vectorImNS_9allocatorImEEE26__swap_out_circular_bufferERNS_14__split_bufferImRS2_EE, 
                        __ZNSt3__16vectorIyNS_9allocatorIyEEE21__push_back_slow_pathIRKyEEvOT_, 
                        __ZNSt3__16vectorIyNS_9allocatorIyEEE26__swap_out_circular_bufferERNS_14__split_bufferIyRS2_EE, 
                        __ZNSt3__18functionIFPvPKcPmEE4swapERS6_, __ZNSt3__18functionIFPvPKcPmEEC2ERKS6_, 
                        __ZNSt3__18functionIFPvPKcPmEEaSERKS6_, __ZNSt3__18functionIFvvEED1Ev, 
                        __ZTCNSt3__119basic_istringstreamIcNS_11char_traitsIcEENS_9allocatorIcEEEE0_NS_13basic_istreamIcS2_EE, 
                        __ZTINSt3__117bad_function_callE, __ZTISt9exception, 
                        __ZTSNSt3__117bad_function_callE, __ZTSSt9exception, 
                        __ZTTNSt3__119basic_istringstreamIcNS_11char_traitsIcEENS_9allocatorIcEEEE, 
                        __ZTVNSt3__110__function6__funcIU8__strongU13block_pointerFvvENS_9allocatorIS4_EES2_EE, 
                        __ZTVNSt3__115basic_stringbufIcNS_11char_traitsIcEENS_9allocatorIcEEEE, 
                        __ZTVNSt3__117bad_function_callE, __ZTVNSt3__119basic_istringstreamIcNS_11char_traitsIcEENS_9allocatorIcEEEE, 
                        __ZTVNSt3__120__shared_ptr_emplaceIN8GPUTools2SM2GL10SyncObjectINS1_23AnalyzerBaseObjectTypesEEENS_9allocatorIS6_EEEE, 
                        __ZTVNSt3__120__shared_ptr_emplaceIN8GPUTools2SM2GL11QueryObjectINS1_23AnalyzerBaseObjectTypesEEENS_9allocatorIS6_EEEE, 
                        __ZTVNSt3__120__shared_ptr_emplaceIN8GPUTools2SM2GL12BufferObjectINS1_23AnalyzerBaseObjectTypesEEENS_9allocatorIS6_EEEE, 
                        __ZTVNSt3__120__shared_ptr_emplaceIN8GPUTools2SM2GL12DrawableInfoINS1_23AnalyzerBaseObjectTypesEEENS_9allocatorIS6_EEEE, 
                        __ZTVNSt3__120__shared_ptr_emplaceIN8GPUTools2SM2GL12ShaderObjectINS1_23AnalyzerBaseObjectTypesEEENS_9allocatorIS6_EEEE, 
                        __ZTVNSt3__120__shared_ptr_emplaceIN8GPUTools2SM2GL13ProgramObjectINS1_23AnalyzerBaseObjectTypesEEENS_9allocatorIS6_EEEE, 
                        __ZTVNSt3__120__shared_ptr_emplaceIN8GPUTools2SM2GL13SamplerObjectINS1_23AnalyzerBaseObjectTypesEEENS_9allocatorIS6_EEEE, 
                        __ZTVNSt3__120__shared_ptr_emplaceIN8GPUTools2SM2GL13TextureObjectINS1_23AnalyzerBaseObjectTypesEEENS_9allocatorIS6_EEEE, 
                        __ZTVNSt3__120__shared_ptr_emplaceIN8GPUTools2SM2GL17FramebufferObjectINS1_23AnalyzerBaseObjectTypesEEENS_9allocatorIS6_EEEE, 
                        __ZTVNSt3__120__shared_ptr_emplaceIN8GPUTools2SM2GL17VertexArrayObjectINS1_23AnalyzerBaseObjectTypesEEENS_9allocatorIS6_EEEE, 
                        __ZTVNSt3__120__shared_ptr_emplaceIN8GPUTools2SM2GL18RenderbufferObjectINS1_23AnalyzerBaseObjectTypesEEENS_9allocatorIS6_EEEE, 
                        __ZTVNSt3__120__shared_ptr_emplaceIN8GPUTools2SM2GL21ProgramPipelineObjectINS1_23AnalyzerBaseObjectTypesEEENS_9allocatorIS6_EEEE, 
                        __ZTVNSt3__120__shared_ptr_emplaceIN8GPUTools2SM2GL23TransformFeedbackObjectINS1_23AnalyzerBaseObjectTypesEEENS_9allocatorIS6_EEEE, 
                        __ZTv0_n24_NSt3__119basic_istringstreamIcNS_11char_traitsIcEENS_9allocatorIcEEED0Ev, 
                        __ZTv0_n24_NSt3__119basic_istringstreamIcNS_11char_traitsIcEENS_9allocatorIcEEED1Ev, 
                        ___clang_call_terminate ]
    objc-classes:    [ _DYFunctionStreamModifierRemoveFuncs, _DYGLBufferObject, 
                       _DYGLCaptureArchiveModifier, _DYGLCaptureLoopingStateDeltaGenerator, 
                       _DYGLCaptureSession, _DYGLFrameBufferObject, _DYGLFramebufferAttachment, 
                       _DYGLGuestAppSession, _DYGLProgramObject, _DYGLProgramPipelineObject, 
                       _DYGLQueryObject, _DYGLRenderBufferObject, _DYGLResourceObject, 
                       _DYGLSamplerObject, _DYGLShaderObject, _DYGLSyncObject, 
                       _DYGLTextureImage, _DYGLTextureImageBackingStore, 
                       _DYGLTextureObject, _DYGLTransformFeedbackBufferBinding, 
                       _DYGLTransformFeedbackObject, _DYGLVertexArrayObject, 
                       _DYGLVertexAttribute ]
    objc-ivars:      [ _DYGLProgramPipelineObject._infoLog, _DYFunctionStreamModifierRemoveFuncs._currentFileType, 
                       _DYFunctionStreamModifierRemoveFuncs._removedContexts, 
                       _DYFunctionStreamModifierRemoveFuncs._removedFunctionCount, 
                       _DYGLBufferObject._data, _DYGLBufferObject._isClientData, 
                       _DYGLBufferObject._offset, _DYGLBufferObject._size, 
                       _DYGLBufferObject._usage, _DYGLCaptureArchiveModifier._origStateMirrorManager, 
                       _DYGLCaptureArchiveModifier._stateMirrorManager, 
                       _DYGLCaptureLoopingStateDeltaGenerator._captureContexts, 
                       _DYGLCaptureLoopingStateDeltaGenerator._fbufStream, 
                       _DYGLCaptureLoopingStateDeltaGenerator._groupsToIgnore, 
                       _DYGLCaptureLoopingStateDeltaGenerator._keptContexts, 
                       _DYGLCaptureLoopingStateDeltaGenerator._startupContexts, 
                       _DYGLCaptureLoopingStateDeltaGenerator._startupInitFunctions, 
                       _DYGLCaptureLoopingStateDeltaGenerator._startupSharegroups, 
                       _DYGLFrameBufferObject._attachmentsDict, _DYGLFrameBufferObject._drawBuffers, 
                       _DYGLFrameBufferObject._readBuffer, _DYGLFramebufferAttachment._cubemapFace, 
                       _DYGLFramebufferAttachment._internalID, _DYGLFramebufferAttachment._location, 
                       _DYGLFramebufferAttachment._objectID, _DYGLFramebufferAttachment._objectType, 
                       _DYGLFramebufferAttachment._textureLayer, _DYGLFramebufferAttachment._textureLevel, 
                       _DYGLGuestAppSession._breakOnGLErrors, _DYGLGuestAppSession._checkGLErrors, 
                       _DYGLGuestAppSession._trapOnGLErrors, _DYGLProgramObject._fragmentInfoLog, 
                       _DYGLProgramObject._fragmentSource, _DYGLProgramObject._hasBeenLinked, 
                       _DYGLProgramObject._infoLog, _DYGLProgramObject._linked, 
                       _DYGLProgramObject._separable, _DYGLProgramObject._vertexInfoLog, 
                       _DYGLProgramObject._vertexSource, _DYGLProgramPipelineObject._activeProgram, 
                       _DYGLProgramPipelineObject._fragmentProgram, _DYGLProgramPipelineObject._geometryProgram, 
                       _DYGLProgramPipelineObject._tessControlProgram, 
                       _DYGLProgramPipelineObject._tessEvaluationProgram, 
                       _DYGLProgramPipelineObject._valid, _DYGLProgramPipelineObject._vertexProgram, 
                       _DYGLQueryObject._isActive, _DYGLQueryObject._result, 
                       _DYGLRenderBufferObject._data, _DYGLRenderBufferObject._flipped, 
                       _DYGLRenderBufferObject._format, _DYGLRenderBufferObject._height, 
                       _DYGLRenderBufferObject._numSamples, _DYGLRenderBufferObject._width, 
                       _DYGLResourceObject._containerID, _DYGLResourceObject._internalID, 
                       _DYGLResourceObject._isStatic, _DYGLResourceObject._label, 
                       _DYGLResourceObject._objectID, _DYGLResourceObject._properties, 
                       _DYGLResourceObject._resourceType, _DYGLResourceObject._target, 
                       _DYGLSamplerObject._compareFunc, _DYGLSamplerObject._compareMode, 
                       _DYGLSamplerObject._magFilter, _DYGLSamplerObject._maxAnisotropy, 
                       _DYGLSamplerObject._maxLOD, _DYGLSamplerObject._minFilter, 
                       _DYGLSamplerObject._minLOD, _DYGLSamplerObject._wrapR, 
                       _DYGLSamplerObject._wrapS, _DYGLSamplerObject._wrapT, 
                       _DYGLShaderObject._compiled, _DYGLShaderObject._compiledSource, 
                       _DYGLShaderObject._currentSourceIsCompiled, _DYGLShaderObject._infoLog, 
                       _DYGLShaderObject._shaderType, _DYGLShaderObject._source, 
                       _DYGLSyncObject._condition, _DYGLSyncObject._flags, 
                       _DYGLSyncObject._objectType, _DYGLTextureImage._backingStore, 
                       _DYGLTextureImage._border, _DYGLTextureImage._data, 
                       _DYGLTextureImage._dataType, _DYGLTextureImage._depth, 
                       _DYGLTextureImage._engineDataType, _DYGLTextureImage._engineFormat, 
                       _DYGLTextureImage._format, _DYGLTextureImage._genericFormat, 
                       _DYGLTextureImage._height, _DYGLTextureImage._internalFormat, 
                       _DYGLTextureImage._layerIndex, _DYGLTextureImage._mipmapLevel, 
                       _DYGLTextureImage._numSamples, _DYGLTextureImage._offset, 
                       _DYGLTextureImage._target, _DYGLTextureImage._uncompressedData, 
                       _DYGLTextureImage._width, _DYGLTextureImageBackingStore._data, 
                       _DYGLTextureImageBackingStore._palette, _DYGLTextureImageBackingStore._uncompressedData, 
                       _DYGLTextureImageBackingStore.lock, _DYGLTextureObject._baseLevel, 
                       _DYGLTextureObject._compareFunc, _DYGLTextureObject._compareMode, 
                       _DYGLTextureObject._firstValidTextureImage, _DYGLTextureObject._generateMipmap, 
                       _DYGLTextureObject._images, _DYGLTextureObject._immutableFormat, 
                       _DYGLTextureObject._immutableLevels, _DYGLTextureObject._magFilter, 
                       _DYGLTextureObject._maxAnisotropy, _DYGLTextureObject._maxLayerSpecifiedForLevel, 
                       _DYGLTextureObject._maxLevel, _DYGLTextureObject._maxLevelSpecified, 
                       _DYGLTextureObject._maxLod, _DYGLTextureObject._minFilter, 
                       _DYGLTextureObject._minLod, _DYGLTextureObject._mipmapLevelsUsedMask, 
                       _DYGLTextureObject._swizzleA, _DYGLTextureObject._swizzleB, 
                       _DYGLTextureObject._swizzleG, _DYGLTextureObject._swizzleR, 
                       _DYGLTextureObject._wrapR, _DYGLTextureObject._wrapS, 
                       _DYGLTextureObject._wrapT, _DYGLTransformFeedbackBufferBinding._buffer, 
                       _DYGLTransformFeedbackBufferBinding._offset, _DYGLTransformFeedbackBufferBinding._size, 
                       _DYGLTransformFeedbackObject._active, _DYGLTransformFeedbackObject._bufferBindings, 
                       _DYGLTransformFeedbackObject._paused, _DYGLVertexArrayObject._attributes, 
                       _DYGLVertexArrayObject._elementArrayBuffer, _DYGLVertexAttribute._arrayBuffer, 
                       _DYGLVertexAttribute._attributeType, _DYGLVertexAttribute._clientDataOffset, 
                       _DYGLVertexAttribute._clientDataURL, _DYGLVertexAttribute._dataType, 
                       _DYGLVertexAttribute._divisor, _DYGLVertexAttribute._index, 
                       _DYGLVertexAttribute._integer, _DYGLVertexAttribute._normalized, 
                       _DYGLVertexAttribute._pointer, _DYGLVertexAttribute._size, 
                       _DYGLVertexAttribute._stride ]
...
