---
archs:           [ x86_64 ]
platform:        macosx
install-name:    '@rpath/GLTools.framework/Versions/A/GLTools'
current-version: 21759.0
exports:         
  - archs:           [ x86_64 ]
    symbols:         [ '-[DYGLFunctionPlayer initWithCaptureStore:]', '+[DYGLCaptureSessionInfo captureSessionInfoWithCaptureStore:]', 
                       '-[DYGLCaptureSessionInfo canPlaybackOnDeviceWithInfo:limitBackwardsCompatibility:isInternal:]', 
                       '-[DYGLCaptureSessionInfo contextInfoForContext:]', 
                       '-[DYGLCaptureSessionInfo contextsInfo]', '-[DYGLCaptureSessionInfo dealloc]', 
                       '-[DYGLCaptureSessionInfo deleteContexts:]', '-[DYGLCaptureSessionInfo initWithCaptureStore:]', 
                       '-[DYGLCaptureSessionInfo requiredExtensions]', 
                       '-[DYGLCaptureSessionInfo wasCheckingGLErrors]', 
                       '-[DYGLFunctionPlayer .cxx_construct]', '-[DYGLFunctionPlayer .cxx_destruct]', 
                       '-[DYGLFunctionPlayer _dispatchGLFunction]', '-[DYGLFunctionPlayer captureSessionInfo]', 
                       '-[DYGLFunctionPlayer contextDictionary]', '-[DYGLFunctionPlayer contextForContextIdentifier:]', 
                       '-[DYGLFunctionPlayer context]', '-[DYGLFunctionPlayer currentContextInfo]', 
                       '-[DYGLFunctionPlayer dealloc]', '-[DYGLFunctionPlayer deleteCurrentContext]', 
                       '-[DYGLFunctionPlayer executeGraphicsFunction]', 
                       '-[DYGLFunctionPlayer executePlatformFunction]', 
                       '-[DYGLFunctionPlayer gliContext]', '-[DYGLFunctionPlayer gliDispatch]', 
                       '-[DYGLFunctionPlayer initializeNewSharegroupInfoDictionary]', 
                       '-[DYGLFunctionPlayer newContextInfo]', '-[DYGLFunctionPlayer performPostGraphicsFunctionDispatchActions:]', 
                       '-[DYGLFunctionPlayer recreateContexts]', '-[DYGLFunctionPlayer setCurrentContext:]', 
                       '-[DYGLFunctionPlayer setRecreateContexts:]', '-[DYGLFunctionPlayer updateCurrentStateWithNewContext:contextID:sharegroupID:]', 
                       GCC_except_table0, GCC_except_table14, GCC_except_table30, 
                       GCC_except_table34, GCC_except_table6, __ZN8GPUTools2GL17WireframeRenderer13IsBadDrawCallEjii, 
                       __ZN8GPUTools2GL17WireframeRenderer24CreateLineListFromTriFanEPPvjjj, 
                       __ZN8GPUTools2GL17WireframeRenderer25CreateLineListFromTriListEPPvjjj, 
                       __ZN8GPUTools2GL17WireframeRenderer26CreateLineListFromTriStripEPPvjjj, 
                       __ZN8GPUTools2GL17WireframeRenderer31CreateLineListFromIndexedTriFanEPKvPPvjjb, 
                       __ZN8GPUTools2GL17WireframeRenderer32CreateLineListFromIndexedTriListEPKvPPvjjb, 
                       __ZN8GPUTools2GL17WireframeRenderer33CreateLineListFromIndexedTriStripEPKvPPvjjb, 
                       __ZN8GPUTools2GL17WireframeRendererD0Ev, __ZN8GPUTools2GL17WireframeRendererD1Ev, 
                       __ZN8GPUTools2GL17WireframeRendererD2Ev, __ZN8GPUTools8Playback2GL11ContextInfoD0Ev, 
                       __ZN8GPUTools8Playback2GL11ContextInfoD1Ev, __ZN8GPUTools8Playback2GL11ContextInfoD2Ev, 
                       __ZTVN8GPUTools2GL17WireframeRendererE, __ZTVN8GPUTools8Playback2GL11ContextInfoE, 
                       '___93-[DYGLCaptureSessionInfo canPlaybackOnDeviceWithInfo:limitBackwardsCompatibility:isInternal:]_block_invoke', 
                       ____ZN8GPUTools2GL27CopyTriFanIndicesToLineListIhEEjjPT_S3_b_block_invoke, 
                       ____ZN8GPUTools2GL27CopyTriFanIndicesToLineListIjEEjjPT_S3_b_block_invoke, 
                       ____ZN8GPUTools2GL27CopyTriFanIndicesToLineListItEEjjPT_S3_b_block_invoke, 
                       ____ZN8GPUTools2GL28CopyTriListIndicesToLineListIhEEjjPT_S3_b_block_invoke, 
                       ____ZN8GPUTools2GL28CopyTriListIndicesToLineListIjEEjjPT_S3_b_block_invoke, 
                       ____ZN8GPUTools2GL28CopyTriListIndicesToLineListItEEjjPT_S3_b_block_invoke, 
                       ____ZN8GPUTools2GL29CopyTriStripIndicesToLineListIhEEjjPT_S3_b_block_invoke, 
                       ____ZN8GPUTools2GL29CopyTriStripIndicesToLineListIjEEjjPT_S3_b_block_invoke, 
                       ____ZN8GPUTools2GL29CopyTriStripIndicesToLineListItEEjjPT_S3_b_block_invoke, 
                       ___block_descriptor_tmp, ___block_descriptor_tmp, 
                       ___block_descriptor_tmp.12, ___block_descriptor_tmp.14, 
                       ___block_descriptor_tmp.16, ___block_descriptor_tmp.18, 
                       ___block_descriptor_tmp.20, ___block_descriptor_tmp.22, 
                       ___block_descriptor_tmp.24, ___block_descriptor_tmp.9, 
                       ___block_literal_global, ___block_literal_global.10, 
                       ___block_literal_global.13, ___block_literal_global.15, 
                       ___block_literal_global.17, ___block_literal_global.19, 
                       ___block_literal_global.21, ___block_literal_global.23, 
                       ___block_literal_global.25, ___copy_helper_block_, 
                       ___destroy_helper_block_, _dy_dispatch ]
    weak-def-symbols: [ __ZNSt3__112__deque_baseINS_10unique_ptrIN8GPUTools8VMBufferENS_14default_deleteIS3_EEEENS_9allocatorIS6_EEE5clearEv, 
                        __ZN8GPUTools2GL24CopyTriIndicesToLineListIhEEjjPT_S3_bU13block_pointerFvS3_RjE, 
                        __ZN8GPUTools2GL24CopyTriIndicesToLineListIjEEjjPT_S3_bU13block_pointerFvS3_RjE, 
                        __ZN8GPUTools2GL24CopyTriIndicesToLineListItEEjjPT_S3_bU13block_pointerFvS3_RjE, 
                        __ZNSt3__112__hash_tableINS_17__hash_value_typeIyNS_10unique_ptrIN8GPUTools8Playback2GL11ContextInfoENS_14default_deleteIS6_EEEEEENS_22__unordered_map_hasherIySA_NS_4hashIyEELb1EEENS_21__unordered_map_equalIySA_NS_8equal_toIyEELb1EEENS_9allocatorISA_EEE20__node_insert_uniqueEPNS_11__hash_nodeISA_PvEE, 
                        __ZNSt3__112__hash_tableINS_17__hash_value_typeIyNS_10unique_ptrIN8GPUTools8Playback2GL11ContextInfoENS_14default_deleteIS6_EEEEEENS_22__unordered_map_hasherIySA_NS_4hashIyEELb1EEENS_21__unordered_map_equalIySA_NS_8equal_toIyEELb1EEENS_9allocatorISA_EEE6rehashEm, 
                        __ZNSt3__112__hash_tableINS_17__hash_value_typeIyNS_10unique_ptrIN8GPUTools8Playback2GL11ContextInfoENS_14default_deleteIS6_EEEEEENS_22__unordered_map_hasherIySA_NS_4hashIyEELb1EEENS_21__unordered_map_equalIySA_NS_8equal_toIyEELb1EEENS_9allocatorISA_EEE8__rehashEm, 
                        __ZNSt3__114__split_bufferIPNS_10unique_ptrIN8GPUTools8VMBufferENS_14default_deleteIS3_EEEENS_9allocatorIS7_EEE10push_frontEOS7_, 
                        __ZNSt3__114__split_bufferIPNS_10unique_ptrIN8GPUTools8VMBufferENS_14default_deleteIS3_EEEENS_9allocatorIS7_EEE13shrink_to_fitEv, 
                        __ZNSt3__114__split_bufferIPNS_10unique_ptrIN8GPUTools8VMBufferENS_14default_deleteIS3_EEEENS_9allocatorIS7_EEE9push_backEOS7_, 
                        __ZNSt3__15dequeINS_10unique_ptrIN8GPUTools8VMBufferENS_14default_deleteIS3_EEEENS_9allocatorIS6_EEE13shrink_to_fitEv, 
                        __ZNSt3__15dequeINS_10unique_ptrIN8GPUTools8VMBufferENS_14default_deleteIS3_EEEENS_9allocatorIS6_EEE19__add_back_capacityEv, 
                        ___clang_call_terminate ]
    objc-classes:    [ _DYGLCaptureSessionInfo, _DYGLFunctionPlayer ]
    objc-ivars:      [ _DYGLFunctionPlayer._didWarnClientStorageApple, 
                       _DYGLCaptureSessionInfo._contextsInfo, _DYGLCaptureSessionInfo._requiredExtensions, 
                       _DYGLCaptureSessionInfo._wasCheckingGLErrors, _DYGLFunctionPlayer._captureSessionInfo, 
                       _DYGLFunctionPlayer._contextInfoMap, _DYGLFunctionPlayer._ctx, 
                       _DYGLFunctionPlayer._ctx_dict, _DYGLFunctionPlayer._currentContextInfo, 
                       _DYGLFunctionPlayer._didWarnVertexAttribDivisorSnowLeopard, 
                       _DYGLFunctionPlayer._did_warn_texture_storage, _DYGLFunctionPlayer._disp, 
                       _DYGLFunctionPlayer._gli_ctx, _DYGLFunctionPlayer._lastCommandWasFrameBoundary, 
                       _DYGLFunctionPlayer._recreateContexts, _DYGLFunctionPlayer._sharegroupMap, 
                       _DYGLFunctionPlayer._sharegroup_dict ]
...
