---
archs:           [ x86_64 ]
platform:        macosx
install-name:    '@rpath/LLDBRPC.framework/LLDBRPC'
current-version: 360.1.70
exports:         
  - archs:           [ x86_64 ]
    symbols:         [ __ZN10rpc_common9RPCStreamC2Ev, GCC_except_table0, 
                       GCC_except_table0, GCC_except_table0, GCC_except_table0, 
                       GCC_except_table0, GCC_except_table1, GCC_except_table10, 
                       GCC_except_table10, GCC_except_table10, GCC_except_table10, 
                       GCC_except_table10, GCC_except_table10, GCC_except_table10, 
                       GCC_except_table10, GCC_except_table10, GCC_except_table10, 
                       GCC_except_table10, GCC_except_table10, GCC_except_table10, 
                       GCC_except_table10, GCC_except_table10, GCC_except_table10, 
                       GCC_except_table10, GCC_except_table10, GCC_except_table103, 
                       GCC_except_table105, GCC_except_table11, GCC_except_table11, 
                       GCC_except_table11, GCC_except_table11, GCC_except_table11, 
                       GCC_except_table11, GCC_except_table11, GCC_except_table11, 
                       GCC_except_table11, GCC_except_table11, GCC_except_table11, 
                       GCC_except_table12, GCC_except_table12, GCC_except_table12, 
                       GCC_except_table12, GCC_except_table12, GCC_except_table12, 
                       GCC_except_table12, GCC_except_table12, GCC_except_table12, 
                       GCC_except_table12, GCC_except_table12, GCC_except_table12, 
                       GCC_except_table125, GCC_except_table126, GCC_except_table128, 
                       GCC_except_table13, GCC_except_table13, GCC_except_table13, 
                       GCC_except_table13, GCC_except_table13, GCC_except_table13, 
                       GCC_except_table13, GCC_except_table13, GCC_except_table13, 
                       GCC_except_table13, GCC_except_table13, GCC_except_table134, 
                       GCC_except_table14, GCC_except_table14, GCC_except_table14, 
                       GCC_except_table14, GCC_except_table14, GCC_except_table14, 
                       GCC_except_table14, GCC_except_table14, GCC_except_table14, 
                       GCC_except_table14, GCC_except_table14, GCC_except_table14, 
                       GCC_except_table14, GCC_except_table14, GCC_except_table14, 
                       GCC_except_table14, GCC_except_table14, GCC_except_table14, 
                       GCC_except_table14, GCC_except_table14, GCC_except_table14, 
                       GCC_except_table147, GCC_except_table15, GCC_except_table15, 
                       GCC_except_table15, GCC_except_table15, GCC_except_table15, 
                       GCC_except_table15, GCC_except_table15, GCC_except_table15, 
                       GCC_except_table15, GCC_except_table15, GCC_except_table15, 
                       GCC_except_table15, GCC_except_table152, GCC_except_table16, 
                       GCC_except_table16, GCC_except_table16, GCC_except_table16, 
                       GCC_except_table16, GCC_except_table16, GCC_except_table16, 
                       GCC_except_table16, GCC_except_table16, GCC_except_table16, 
                       GCC_except_table16, GCC_except_table16, GCC_except_table16, 
                       GCC_except_table16, GCC_except_table161, GCC_except_table17, 
                       GCC_except_table17, GCC_except_table17, GCC_except_table17, 
                       GCC_except_table17, GCC_except_table17, GCC_except_table17, 
                       GCC_except_table17, GCC_except_table17, GCC_except_table17, 
                       GCC_except_table17, GCC_except_table17, GCC_except_table17, 
                       GCC_except_table17, GCC_except_table17, GCC_except_table17, 
                       GCC_except_table17, GCC_except_table17, GCC_except_table17, 
                       GCC_except_table18, GCC_except_table18, GCC_except_table18, 
                       GCC_except_table18, GCC_except_table18, GCC_except_table18, 
                       GCC_except_table18, GCC_except_table18, GCC_except_table18, 
                       GCC_except_table18, GCC_except_table18, GCC_except_table18, 
                       GCC_except_table18, GCC_except_table18, GCC_except_table18, 
                       GCC_except_table18, GCC_except_table182, GCC_except_table185, 
                       GCC_except_table19, GCC_except_table19, GCC_except_table19, 
                       GCC_except_table19, GCC_except_table19, GCC_except_table19, 
                       GCC_except_table19, GCC_except_table19, GCC_except_table19, 
                       GCC_except_table19, GCC_except_table19, GCC_except_table19, 
                       GCC_except_table19, GCC_except_table19, GCC_except_table19, 
                       GCC_except_table193, GCC_except_table2, GCC_except_table2, 
                       GCC_except_table2, GCC_except_table2, GCC_except_table2, 
                       GCC_except_table2, GCC_except_table2, GCC_except_table2, 
                       GCC_except_table2, GCC_except_table2, GCC_except_table2, 
                       GCC_except_table2, GCC_except_table2, GCC_except_table2, 
                       GCC_except_table2, GCC_except_table2, GCC_except_table2, 
                       GCC_except_table20, GCC_except_table20, GCC_except_table20, 
                       GCC_except_table20, GCC_except_table20, GCC_except_table20, 
                       GCC_except_table20, GCC_except_table20, GCC_except_table20, 
                       GCC_except_table20, GCC_except_table20, GCC_except_table20, 
                       GCC_except_table205, GCC_except_table21, GCC_except_table21, 
                       GCC_except_table21, GCC_except_table21, GCC_except_table21, 
                       GCC_except_table21, GCC_except_table21, GCC_except_table21, 
                       GCC_except_table21, GCC_except_table21, GCC_except_table21, 
                       GCC_except_table22, GCC_except_table22, GCC_except_table22, 
                       GCC_except_table22, GCC_except_table22, GCC_except_table22, 
                       GCC_except_table22, GCC_except_table22, GCC_except_table22, 
                       GCC_except_table22, GCC_except_table23, GCC_except_table23, 
                       GCC_except_table23, GCC_except_table23, GCC_except_table23, 
                       GCC_except_table23, GCC_except_table23, GCC_except_table23, 
                       GCC_except_table23, GCC_except_table23, GCC_except_table23, 
                       GCC_except_table23, GCC_except_table24, GCC_except_table24, 
                       GCC_except_table24, GCC_except_table24, GCC_except_table24, 
                       GCC_except_table24, GCC_except_table24, GCC_except_table25, 
                       GCC_except_table25, GCC_except_table25, GCC_except_table25, 
                       GCC_except_table25, GCC_except_table25, GCC_except_table25, 
                       GCC_except_table25, GCC_except_table25, GCC_except_table25, 
                       GCC_except_table26, GCC_except_table26, GCC_except_table26, 
                       GCC_except_table26, GCC_except_table26, GCC_except_table26, 
                       GCC_except_table26, GCC_except_table27, GCC_except_table27, 
                       GCC_except_table27, GCC_except_table27, GCC_except_table27, 
                       GCC_except_table27, GCC_except_table27, GCC_except_table27, 
                       GCC_except_table27, GCC_except_table28, GCC_except_table28, 
                       GCC_except_table28, GCC_except_table28, GCC_except_table28, 
                       GCC_except_table29, GCC_except_table29, GCC_except_table29, 
                       GCC_except_table29, GCC_except_table29, GCC_except_table29, 
                       GCC_except_table29, GCC_except_table3, GCC_except_table3, 
                       GCC_except_table3, GCC_except_table3, GCC_except_table3, 
                       GCC_except_table30, GCC_except_table30, GCC_except_table30, 
                       GCC_except_table31, GCC_except_table31, GCC_except_table31, 
                       GCC_except_table31, GCC_except_table31, GCC_except_table31, 
                       GCC_except_table31, GCC_except_table32, GCC_except_table32, 
                       GCC_except_table32, GCC_except_table32, GCC_except_table32, 
                       GCC_except_table33, GCC_except_table33, GCC_except_table33, 
                       GCC_except_table33, GCC_except_table33, GCC_except_table33, 
                       GCC_except_table34, GCC_except_table34, GCC_except_table35, 
                       GCC_except_table35, GCC_except_table35, GCC_except_table35, 
                       GCC_except_table35, GCC_except_table35, GCC_except_table35, 
                       GCC_except_table36, GCC_except_table36, GCC_except_table36, 
                       GCC_except_table37, GCC_except_table37, GCC_except_table37, 
                       GCC_except_table38, GCC_except_table38, GCC_except_table38, 
                       GCC_except_table38, GCC_except_table39, GCC_except_table39, 
                       GCC_except_table39, GCC_except_table39, GCC_except_table39, 
                       GCC_except_table39, GCC_except_table4, GCC_except_table4, 
                       GCC_except_table4, GCC_except_table4, GCC_except_table4, 
                       GCC_except_table4, GCC_except_table4, GCC_except_table4, 
                       GCC_except_table4, GCC_except_table4, GCC_except_table4, 
                       GCC_except_table4, GCC_except_table4, GCC_except_table4, 
                       GCC_except_table4, GCC_except_table4, GCC_except_table4, 
                       GCC_except_table4, GCC_except_table4, GCC_except_table4, 
                       GCC_except_table4, GCC_except_table4, GCC_except_table4, 
                       GCC_except_table4, GCC_except_table4, GCC_except_table4, 
                       GCC_except_table4, GCC_except_table4, GCC_except_table4, 
                       GCC_except_table4, GCC_except_table4, GCC_except_table40, 
                       GCC_except_table40, GCC_except_table40, GCC_except_table40, 
                       GCC_except_table41, GCC_except_table41, GCC_except_table41, 
                       GCC_except_table41, GCC_except_table41, GCC_except_table42, 
                       GCC_except_table42, GCC_except_table42, GCC_except_table42, 
                       GCC_except_table42, GCC_except_table43, GCC_except_table43, 
                       GCC_except_table43, GCC_except_table43, GCC_except_table44, 
                       GCC_except_table44, GCC_except_table44, GCC_except_table44, 
                       GCC_except_table45, GCC_except_table45, GCC_except_table45, 
                       GCC_except_table45, GCC_except_table46, GCC_except_table46, 
                       GCC_except_table47, GCC_except_table47, GCC_except_table48, 
                       GCC_except_table48, GCC_except_table48, GCC_except_table48, 
                       GCC_except_table49, GCC_except_table49, GCC_except_table50, 
                       GCC_except_table50, GCC_except_table51, GCC_except_table51, 
                       GCC_except_table52, GCC_except_table53, GCC_except_table54, 
                       GCC_except_table55, GCC_except_table55, GCC_except_table56, 
                       GCC_except_table56, GCC_except_table56, GCC_except_table57, 
                       GCC_except_table57, GCC_except_table58, GCC_except_table59, 
                       GCC_except_table6, GCC_except_table6, GCC_except_table6, 
                       GCC_except_table6, GCC_except_table6, GCC_except_table60, 
                       GCC_except_table61, GCC_except_table62, GCC_except_table62, 
                       GCC_except_table63, GCC_except_table7, GCC_except_table7, 
                       GCC_except_table7, GCC_except_table71, GCC_except_table72, 
                       GCC_except_table75, GCC_except_table77, GCC_except_table78, 
                       GCC_except_table79, GCC_except_table8, GCC_except_table8, 
                       GCC_except_table8, GCC_except_table8, GCC_except_table8, 
                       GCC_except_table8, GCC_except_table8, GCC_except_table8, 
                       GCC_except_table8, GCC_except_table8, GCC_except_table8, 
                       GCC_except_table8, GCC_except_table8, GCC_except_table8, 
                       GCC_except_table8, GCC_except_table8, GCC_except_table8, 
                       GCC_except_table8, GCC_except_table8, GCC_except_table8, 
                       GCC_except_table8, GCC_except_table8, GCC_except_table80, 
                       GCC_except_table81, GCC_except_table83, GCC_except_table83, 
                       GCC_except_table9, GCC_except_table9, GCC_except_table9, 
                       GCC_except_table9, GCC_except_table9, GCC_except_table9, 
                       GCC_except_table9, GCC_except_table90, _LLDBRPCVersionNumber, 
                       _LLDBRPCVersionString, __ZGVZN8lldb_rpc10SBDebugger10InitializeERKN3rpc10ConnectionEE6g_func, 
                       __ZGVZN8lldb_rpc10SBDebugger11GetListenerEvE6g_func, 
                       __ZGVZN8lldb_rpc10SBDebugger12CreateTargetEPKcS2_S2_bRNS_7SBErrorEE6g_func, 
                       __ZGVZN8lldb_rpc10SBDebugger13GetNumTargetsEvE6g_func, 
                       __ZGVZN8lldb_rpc10SBDebugger13HandleCommandEPKcE6g_func, 
                       __ZGVZN8lldb_rpc10SBDebugger16GetTargetAtIndexEjE6g_func, 
                       __ZGVZN8lldb_rpc10SBDebugger17SetSelectedTargetERNS_8SBTargetEE6g_func, 
                       __ZGVZN8lldb_rpc10SBDebugger18SetCurrentPlatformEPKcE6g_func, 
                       __ZGVZN8lldb_rpc10SBDebugger21GetCommandInterpreterEvE6g_func, 
                       __ZGVZN8lldb_rpc10SBDebugger21RunCommandInterpreterEbbE6g_func, 
                       __ZGVZN8lldb_rpc10SBDebugger22MemoryPressureDetectedEvE6g_func, 
                       __ZGVZN8lldb_rpc10SBDebugger25SetCurrentPlatformSDKRootEPKcE6g_func, 
                       __ZGVZN8lldb_rpc10SBDebugger6CreateERKN3rpc10ConnectionEbPFvPKcPvES7_E6g_func, 
                       __ZGVZN8lldb_rpc10SBDebugger7DestroyERS0_E6g_func, 
                       __ZGVZN8lldb_rpc10SBDebugger9EnableLogEPKcPS2_E6g_func, 
                       __ZGVZN8lldb_rpc10SBDebugger9SetIOFileEPKcE6g_func, 
                       __ZGVZN8lldb_rpc10SBFileSpecC1ERKN3rpc10ConnectionEPKcE6g_func, 
                       __ZGVZN8lldb_rpc10SBFileSpecC1ERKN3rpc10ConnectionEPKcbE6g_func, 
                       __ZGVZN8lldb_rpc10SBListener12GetNextEventERNS_7SBEventEE6g_func, 
                       __ZGVZN8lldb_rpc10SBListener12WaitForEventEjRNS_7SBEventEE6g_func, 
                       __ZGVZN8lldb_rpc10SBListener23StartListeningForEventsERKNS_13SBBroadcasterEjE6g_func, 
                       __ZGVZN8lldb_rpc10SBListener27StartListeningForEventClassERNS_10SBDebuggerEPKcjE6g_func, 
                       __ZGVZN8lldb_rpc11SBLineEntryC1ERKN3rpc10ConnectionEE6g_func, 
                       __ZGVZN8lldb_rpc11SBQueueItem26GetExtendedBacktraceThreadEPKcE6g_func, 
                       __ZGVZN8lldb_rpc12SBAttachInfo17SetIgnoreExistingEbE6g_func, 
                       __ZGVZN8lldb_rpc12SBAttachInfo9SetUserIDEjE6g_func, 
                       __ZGVZN8lldb_rpc12SBAttachInfoC1ERKN3rpc10ConnectionEE6g_func, 
                       __ZGVZN8lldb_rpc12SBAttachInfoC1ERKN3rpc10ConnectionEPKcbE6g_func, 
                       __ZGVZN8lldb_rpc12SBAttachInfoC1ERKN3rpc10ConnectionEPKcbbE6g_func, 
                       __ZGVZN8lldb_rpc12SBAttachInfoC1ERKN3rpc10ConnectionEyE6g_func, 
                       __ZGVZN8lldb_rpc12SBBreakpoint10SetEnabledEbE6g_func, 
                       __ZGVZN8lldb_rpc12SBBreakpoint11SetCallbackEPFbPvRNS_9SBProcessERNS_8SBThreadERNS_20SBBreakpointLocationEES1_E6g_func, 
                       __ZGVZN8lldb_rpc12SBBreakpoint12SetConditionEPKcE6g_func, 
                       __ZGVZN8lldb_rpc12SBBreakpoint14GetDescriptionERNS_8SBStreamEE6g_func, 
                       __ZGVZN8lldb_rpc12SBBreakpoint14SetIgnoreCountEjE6g_func, 
                       __ZGVZN8lldb_rpc12SBBreakpoint16FindLocationByIDEiE6g_func, 
                       __ZGVZN8lldb_rpc12SBBreakpoint18GetLocationAtIndexEjE6g_func, 
                       __ZGVZN8lldb_rpc12SBBreakpoint22GetBreakpointFromEventERKNS_7SBEventEE6g_func, 
                       __ZGVZN8lldb_rpc12SBBreakpoint31GetBreakpointEventTypeFromEventERKNS_7SBEventEE6g_func, 
                       __ZGVZN8lldb_rpc12SBBreakpoint34GetNumBreakpointLocationsFromEventERKNS_7SBEventEE6g_func, 
                       __ZGVZN8lldb_rpc12SBBreakpoint37GetBreakpointLocationAtIndexFromEventERKNS_7SBEventEjE6g_func, 
                       __ZGVZN8lldb_rpc12SBBreakpoint9IsEnabledEvE6g_func, 
                       __ZGVZN8lldb_rpc12SBLaunchInfo12SetArgumentsEPPKcbE6g_func, 
                       __ZGVZN8lldb_rpc12SBLaunchInfo14SetLaunchFlagsEjE6g_func, 
                       __ZGVZN8lldb_rpc12SBLaunchInfo17AddOpenFileActionEiPKcbbE6g_func, 
                       __ZGVZN8lldb_rpc12SBLaunchInfo17SetExecutableFileENS_10SBFileSpecEbE6g_func, 
                       __ZGVZN8lldb_rpc12SBLaunchInfo18SetLaunchEventDataEPKcE6g_func, 
                       __ZGVZN8lldb_rpc12SBLaunchInfo19SetWorkingDirectoryEPKcE6g_func, 
                       __ZGVZN8lldb_rpc12SBLaunchInfo21SetEnvironmentEntriesEPPKcbE6g_func, 
                       __ZGVZN8lldb_rpc12SBLaunchInfo9SetUserIDEjE6g_func, 
                       __ZGVZN8lldb_rpc12SBLaunchInfoC1ERKN3rpc10ConnectionEPPKcE6g_func, 
                       __ZGVZN8lldb_rpc12SBStringList12AppendStringEPKcE6g_func, 
                       __ZGVZN8lldb_rpc12SBStringList16GetStringAtIndexEmE6g_func, 
                       __ZGVZN8lldb_rpc12SBStringListC1ERKN3rpc10ConnectionEE6g_func, 
                       __ZGVZN8lldb_rpc12SBTypeMember7GetTypeEvE6g_func, 
                       __ZGVZN8lldb_rpc12SBWatchpoint10SetEnabledEbE6g_func, 
                       __ZGVZN8lldb_rpc12SBWatchpoint5GetIDEvE6g_func, 
                       __ZGVZN8lldb_rpc13SBBroadcaster11AddListenerERKNS_10SBListenerEjE6g_func, 
                       __ZGVZN8lldb_rpc13SBBroadcaster14RemoveListenerERKNS_10SBListenerEjE6g_func, 
                       __ZGVZN8lldb_rpc13SBBroadcaster20BroadcastEventByTypeEjbE6g_func, 
                       __ZGVZN8lldb_rpc13SBBroadcasterC1ERN3rpc10ConnectionEPKcE6g_func, 
                       __ZGVZN8lldb_rpc15SBSymbolContext12GetLineEntryEvE6g_func, 
                       __ZGVZN8lldb_rpc15SBSymbolContext9GetModuleEvE6g_func, 
                       __ZGVZN8lldb_rpc15SBSymbolContext9GetSymbolEvE6g_func, 
                       __ZGVZN8lldb_rpc18SBThreadCollection16GetThreadAtIndexEmE6g_func, 
                       __ZGVZN8lldb_rpc18SBThreadCollection7GetSizeEvE6g_func, 
                       __ZGVZN8lldb_rpc19SBExpressionOptions11SetLanguageENS_12LanguageTypeEE6g_func, 
                       __ZGVZN8lldb_rpc19SBExpressionOptions13SetStopOthersEbE6g_func, 
                       __ZGVZN8lldb_rpc19SBExpressionOptions16SetTryAllThreadsEbE6g_func, 
                       __ZGVZN8lldb_rpc19SBExpressionOptions16SetUnwindOnErrorEbE6g_func, 
                       __ZGVZN8lldb_rpc19SBExpressionOptions17SetCancelCallbackEPFbNS_25ExpressionEvaluationPhaseEPvES2_E6g_func, 
                       __ZGVZN8lldb_rpc19SBExpressionOptions17SetTrapExceptionsEbE6g_func, 
                       __ZGVZN8lldb_rpc19SBExpressionOptions18SetAutoApplyFixItsEbE6g_func, 
                       __ZGVZN8lldb_rpc19SBExpressionOptions20SetFetchDynamicValueENS_16DynamicValueTypeEE6g_func, 
                       __ZGVZN8lldb_rpc19SBExpressionOptions20SetGenerateDebugInfoEbE6g_func, 
                       __ZGVZN8lldb_rpc19SBExpressionOptions20SetIgnoreBreakpointsEbE6g_func, 
                       __ZGVZN8lldb_rpc19SBExpressionOptions24SetTimeoutInMicroSecondsEjE6g_func, 
                       __ZGVZN8lldb_rpc19SBExpressionOptions29SetPlaygroundTransformEnabledEbE6g_func, 
                       __ZGVZN8lldb_rpc19SBExpressionOptionsC1ERKN3rpc10ConnectionEE6g_func, 
                       __ZGVZN8lldb_rpc20SBBreakpointLocation10GetAddressEvE6g_func, 
                       __ZGVZN8lldb_rpc20SBBreakpointLocation10SetEnabledEbE6g_func, 
                       __ZGVZN8lldb_rpc20SBBreakpointLocation12GetConditionEvE6g_func, 
                       __ZGVZN8lldb_rpc20SBBreakpointLocation12SetConditionEPKcE6g_func, 
                       __ZGVZN8lldb_rpc20SBBreakpointLocation13GetBreakpointEvE6g_func, 
                       __ZGVZN8lldb_rpc20SBBreakpointLocation14GetIgnoreCountEvE6g_func, 
                       __ZGVZN8lldb_rpc20SBBreakpointLocation14SetIgnoreCountEjE6g_func, 
                       __ZGVZN8lldb_rpc20SBBreakpointLocation5GetIDEvE6g_func, 
                       __ZGVZN8lldb_rpc20SBBreakpointLocation9IsEnabledEvE6g_func, 
                       __ZGVZN8lldb_rpc20SBCommandInterpreter13HandleCommandEPKcRNS_21SBCommandReturnObjectEbE6g_func, 
                       __ZGVZN8lldb_rpc20SBCommandInterpreter14GetBroadcasterEvE6g_func, 
                       __ZGVZN8lldb_rpc20SBCommandInterpreter16HandleCompletionEPKcjiiRNS_12SBStringListEE6g_func, 
                       __ZGVZN8lldb_rpc20SBCommandInterpreter26SetCommandOverrideCallbackEPKcPFbPvPS2_ES3_E6g_func, 
                       __ZGVZN8lldb_rpc20SBCommandInterpreter8IsActiveEvE6g_func, 
                       __ZGVZN8lldb_rpc20SBTypeSummaryOptions10SetCappingENS_18TypeSummaryCappingEE6g_func, 
                       __ZGVZN8lldb_rpc20SBTypeSummaryOptionsC1ERKN3rpc10ConnectionEE6g_func, 
                       __ZGVZN8lldb_rpc21SBCommandReturnObject12GetErrorSizeEvE6g_func, 
                       __ZGVZN8lldb_rpc21SBCommandReturnObject13GetOutputSizeEvE6g_func, 
                       __ZGVZN8lldb_rpc21SBCommandReturnObject8GetErrorEvE6g_func, 
                       __ZGVZN8lldb_rpc21SBCommandReturnObject9GetOutputEvE6g_func, 
                       __ZGVZN8lldb_rpc21SBCommandReturnObjectC1ERKN3rpc10ConnectionEE6g_func, 
                       __ZGVZN8lldb_rpc6SBData11GetByteSizeEvE6g_func, 
                       __ZGVZN8lldb_rpc6SBData11ReadRawDataERNS_7SBErrorEyPvmE6g_func, 
                       __ZGVZN8lldb_rpc6SBType12GetTypeClassEvE6g_func, 
                       __ZGVZN8lldb_rpc6SBType13IsPointerTypeEvE6g_func, 
                       __ZGVZN8lldb_rpc6SBType14GetPointeeTypeEvE6g_func, 
                       __ZGVZN8lldb_rpc6SBType18GetDisplayTypeNameEvE6g_func, 
                       __ZGVZN8lldb_rpc6SBType25GetDirectBaseClassAtIndexEjE6g_func, 
                       __ZGVZN8lldb_rpc6SBType28GetNumberOfDirectBaseClassesEvE6g_func, 
                       __ZGVZN8lldb_rpc6SBType7GetNameEvE6g_func, __ZGVZN8lldb_rpc7SBError14GetDescriptionERNS_8SBStreamEE6g_func, 
                       __ZGVZN8lldb_rpc7SBErrorC1ERKN3rpc10ConnectionEE6g_func, 
                       __ZGVZN8lldb_rpc7SBEvent14GetDescriptionERNS_8SBStreamEE6g_func, 
                       __ZGVZN8lldb_rpc7SBEvent19GetCStringFromEventERKS0_E6g_func, 
                       __ZGVZN8lldb_rpc7SBEvent21BroadcasterMatchesRefERKNS_13SBBroadcasterEE6g_func, 
                       __ZGVZN8lldb_rpc7SBEventC1ERKN3rpc10ConnectionEE6g_func, 
                       __ZGVZN8lldb_rpc7SBFrame12FindVariableEPKcNS_16DynamicValueTypeEE6g_func, 
                       __ZGVZN8lldb_rpc7SBFrame12GetRegistersEvE6g_func, 
                       __ZGVZN8lldb_rpc7SBFrame12GetVariablesEbbbbNS_16DynamicValueTypeEE6g_func, 
                       __ZGVZN8lldb_rpc7SBFrame15GetFunctionNameEvE6g_func, 
                       __ZGVZN8lldb_rpc7SBFrame18EvaluateExpressionEPKcE6g_func, 
                       __ZGVZN8lldb_rpc7SBFrame18EvaluateExpressionEPKcNS_16DynamicValueTypeEE6g_func, 
                       __ZGVZN8lldb_rpc7SBFrame18EvaluateExpressionEPKcRKNS_19SBExpressionOptionsEE6g_func, 
                       __ZGVZN8lldb_rpc7SBFrame22GetDisplayFunctionNameEvE6g_func, 
                       __ZGVZN8lldb_rpc7SBFrame5SetPCEyE6g_func, __ZGVZN8lldb_rpc7SBFrame9FindValueEPKcNS_9ValueTypeENS_16DynamicValueTypeEE6g_func, 
                       __ZGVZN8lldb_rpc7SBFrame9IsInlinedEvE6g_func, __ZGVZN8lldb_rpc7SBQueue13GetNumThreadsEvE6g_func, 
                       __ZGVZN8lldb_rpc7SBQueue16GetThreadAtIndexEjE6g_func, 
                       __ZGVZN8lldb_rpc7SBQueue18GetNumPendingItemsEvE6g_func, 
                       __ZGVZN8lldb_rpc7SBQueue21GetPendingItemAtIndexEjE6g_func, 
                       __ZGVZN8lldb_rpc7SBQueue7GetKindEvE6g_func, __ZGVZN8lldb_rpc7SBValue10GetSummaryERNS_8SBStreamERNS_20SBTypeSummaryOptionsEE6g_func, 
                       __ZGVZN8lldb_rpc7SBValue10GetSummaryEvE6g_func, 
                       __ZGVZN8lldb_rpc7SBValue11GetTypeNameEvE6g_func, 
                       __ZGVZN8lldb_rpc7SBValue12GetValueTypeEvE6g_func, 
                       __ZGVZN8lldb_rpc7SBValue14GetDescriptionERNS_8SBStreamEE6g_func, 
                       __ZGVZN8lldb_rpc7SBValue14GetNumChildrenEvE6g_func, 
                       __ZGVZN8lldb_rpc7SBValue14GetStaticValueEvE6g_func, 
                       __ZGVZN8lldb_rpc7SBValue15GetChildAtIndexEjNS_16DynamicValueTypeEbE6g_func, 
                       __ZGVZN8lldb_rpc7SBValue16GetValueAsSignedExE6g_func, 
                       __ZGVZN8lldb_rpc7SBValue17GetExpressionPathERNS_8SBStreamEE6g_func, 
                       __ZGVZN8lldb_rpc7SBValue17GetValueDidChangeEvE6g_func, 
                       __ZGVZN8lldb_rpc7SBValue17MightHaveChildrenEvE6g_func, 
                       __ZGVZN8lldb_rpc7SBValue19SetValueFromCStringEPKcRNS_7SBErrorEE6g_func, 
                       __ZGVZN8lldb_rpc7SBValue20GetObjectDescriptionEvE6g_func, 
                       __ZGVZN8lldb_rpc7SBValue22GetChildMemberWithNameEPKcNS_16DynamicValueTypeEE6g_func, 
                       __ZGVZN8lldb_rpc7SBValue5ClearEvE6g_func, __ZGVZN8lldb_rpc7SBValue7GetDataEvE6g_func, 
                       __ZGVZN8lldb_rpc7SBValue7GetNameEvE6g_func, __ZGVZN8lldb_rpc7SBValue7GetTypeEvE6g_func, 
                       __ZGVZN8lldb_rpc7SBValue7IsValidEvE6g_func, __ZGVZN8lldb_rpc7SBValue8GetErrorEvE6g_func, 
                       __ZGVZN8lldb_rpc7SBValue8GetValueEvE6g_func, __ZGVZN8lldb_rpc7SBValue9GetFormatEvE6g_func, 
                       __ZGVZN8lldb_rpc7SBValue9IsInScopeEvE6g_func, __ZGVZN8lldb_rpc7SBValue9SetFormatENS_6FormatEE6g_func, 
                       __ZGVZN8lldb_rpc8SBHostOS11GetLLDBPathERKN3rpc10ConnectionENS_8PathTypeEE6g_func, 
                       __ZGVZN8lldb_rpc8SBModule11FindSectionEPKcE6g_func, 
                       __ZGVZN8lldb_rpc8SBModule18GetNumCompileUnitsEvE6g_func, 
                       __ZGVZN8lldb_rpc8SBModule19SetPlatformFileSpecERKNS_10SBFileSpecEE6g_func, 
                       __ZGVZN8lldb_rpc8SBStream7GetDataEvE6g_func, __ZGVZN8lldb_rpc8SBStream7GetSizeEvE6g_func, 
                       __ZGVZN8lldb_rpc8SBStreamC1ERKN3rpc10ConnectionEE6g_func, 
                       __ZGVZN8lldb_rpc8SBSymbol15GetStartAddressEvE6g_func, 
                       __ZGVZN8lldb_rpc8SBTarget10GetProcessEvE6g_func, 
                       __ZGVZN8lldb_rpc8SBTarget13ConnectRemoteERNS_10SBListenerEPKcS4_RNS_7SBErrorEE6g_func, 
                       __ZGVZN8lldb_rpc8SBTarget13GetExecutableEvE6g_func, 
                       __ZGVZN8lldb_rpc8SBTarget16BreakpointDeleteEiE6g_func, 
                       __ZGVZN8lldb_rpc8SBTarget16DeleteWatchpointEiE6g_func, 
                       __ZGVZN8lldb_rpc8SBTarget16GetModuleAtIndexEjE6g_func, 
                       __ZGVZN8lldb_rpc8SBTarget18FindBreakpointByIDEiE6g_func, 
                       __ZGVZN8lldb_rpc8SBTarget18FindWatchpointByIDEiE6g_func, 
                       __ZGVZN8lldb_rpc8SBTarget18ResolveLoadAddressEyE6g_func, 
                       __ZGVZN8lldb_rpc8SBTarget22BreakpointCreateByNameEPKcS2_E6g_func, 
                       __ZGVZN8lldb_rpc8SBTarget23BreakpointCreateByNamesEPPKcjjRKNS_14SBFileSpecListES6_E6g_func, 
                       __ZGVZN8lldb_rpc8SBTarget23FindFirstGlobalVariableEPKcE6g_func, 
                       __ZGVZN8lldb_rpc8SBTarget25BreakpointCreateByAddressEyE6g_func, 
                       __ZGVZN8lldb_rpc8SBTarget26BreakpointCreateByLocationEPKcjE6g_func, 
                       __ZGVZN8lldb_rpc8SBTarget28BreakpointCreateForExceptionENS_12LanguageTypeEbbRNS_12SBStringListEE6g_func, 
                       __ZGVZN8lldb_rpc8SBTarget5ClearEvE6g_func, __ZGVZN8lldb_rpc8SBTarget6AttachERNS_12SBAttachInfoERNS_7SBErrorEE6g_func, 
                       __ZGVZN8lldb_rpc8SBTarget6LaunchERNS_12SBLaunchInfoERNS_7SBErrorEE6g_func, 
                       __ZGVZN8lldb_rpc8SBTarget9AddModuleEPKcS2_S2_E6g_func, 
                       __ZGVZN8lldb_rpc8SBThread10GetProcessEvE6g_func, 
                       __ZGVZN8lldb_rpc8SBThread12GetNumFramesEvE6g_func, 
                       __ZGVZN8lldb_rpc8SBThread13GetStopReasonEvE6g_func, 
                       __ZGVZN8lldb_rpc8SBThread13StepOverUntilERNS_7SBFrameERNS_10SBFileSpecEjE6g_func, 
                       __ZGVZN8lldb_rpc8SBThread15GetFrameAtIndexEjE6g_func, 
                       __ZGVZN8lldb_rpc8SBThread15StepInstructionEbE6g_func, 
                       __ZGVZN8lldb_rpc8SBThread16GetSelectedFrameEvE6g_func, 
                       __ZGVZN8lldb_rpc8SBThread16SetSelectedFrameEjE6g_func, 
                       __ZGVZN8lldb_rpc8SBThread18EventIsThreadEventERKNS_7SBEventEE6g_func, 
                       __ZGVZN8lldb_rpc8SBThread18GetStopDescriptionEPcmE6g_func, 
                       __ZGVZN8lldb_rpc8SBThread18GetStopReturnValueEvE6g_func, 
                       __ZGVZN8lldb_rpc8SBThread23GetBroadcasterClassNameERKN3rpc10ConnectionEE6g_func, 
                       __ZGVZN8lldb_rpc8SBThread24GetStopReasonDataAtIndexEjE6g_func, 
                       __ZGVZN8lldb_rpc8SBThread25GetInfoItemByPathAsStringEPKcRNS_8SBStreamEE6g_func, 
                       __ZGVZN8lldb_rpc8SBThread26GetExtendedBacktraceThreadEPKcE6g_func, 
                       __ZGVZN8lldb_rpc8SBThread31GetStopReasonExtendedBacktracesENS_26InstrumentationRuntimeTypeEE6g_func, 
                       __ZGVZN8lldb_rpc8SBThread31GetStopReasonExtendedInfoAsJSONERNS_8SBStreamEE6g_func, 
                       __ZGVZN8lldb_rpc8SBThread38GetExtendedBacktraceOriginatingIndexIDEvE6g_func, 
                       __ZGVZN8lldb_rpc8SBThread6ResumeEvE6g_func, __ZGVZN8lldb_rpc8SBThread7StepOutEvE6g_func, 
                       __ZGVZN8lldb_rpc8SBThread7SuspendEvE6g_func, __ZGVZN8lldb_rpc8SBThread8StepIntoENS_7RunModeEE6g_func, 
                       __ZGVZN8lldb_rpc8SBThread8StepOverENS_7RunModeEE6g_func, 
                       __ZGVZN8lldb_rpc9SBAddress12GetLineEntryEvE6g_func, 
                       __ZGVZN8lldb_rpc9SBAddress16GetSymbolContextEjE6g_func, 
                       __ZGVZN8lldb_rpc9SBAddress9GetModuleEvE6g_func, 
                       __ZGVZN8lldb_rpc9SBAddress9GetOffsetEvE6g_func, 
                       __ZGVZN8lldb_rpc9SBAddress9GetSymbolEvE6g_func, 
                       __ZGVZN8lldb_rpc9SBAddressC1ERKN3rpc10ConnectionEE6g_func, 
                       __ZGVZN8lldb_rpc9SBProcess10ReadMemoryEyPvmRNS_7SBErrorEE6g_func, 
                       __ZGVZN8lldb_rpc9SBProcess12GetNumQueuesEvE6g_func, 
                       __ZGVZN8lldb_rpc9SBProcess12GetProcessIDEvE6g_func, 
                       __ZGVZN8lldb_rpc9SBProcess13GetExitStatusEvE6g_func, 
                       __ZGVZN8lldb_rpc9SBProcess13GetNumThreadsEvE6g_func, 
                       __ZGVZN8lldb_rpc9SBProcess13GetPluginNameEvE6g_func, 
                       __ZGVZN8lldb_rpc9SBProcess13SendEventDataEPKcE6g_func, 
                       __ZGVZN8lldb_rpc9SBProcess15GetQueueAtIndexEmE6g_func, 
                       __ZGVZN8lldb_rpc9SBProcess16GetThreadAtIndexEmE6g_func, 
                       __ZGVZN8lldb_rpc9SBProcess17GetHistoryThreadsEyE6g_func, 
                       __ZGVZN8lldb_rpc9SBProcess17GetStateFromEventERKNS_7SBEventEE6g_func, 
                       __ZGVZN8lldb_rpc9SBProcess17SetSelectedThreadERKNS_8SBThreadEE6g_func, 
                       __ZGVZN8lldb_rpc9SBProcess18GetExitDescriptionEvE6g_func, 
                       __ZGVZN8lldb_rpc9SBProcess18GetShortPluginNameEvE6g_func, 
                       __ZGVZN8lldb_rpc9SBProcess18SendAsyncInterruptEvE6g_func, 
                       __ZGVZN8lldb_rpc9SBProcess21GetRestartedFromEventERKNS_7SBEventEE6g_func, 
                       __ZGVZN8lldb_rpc9SBProcess26SetSelectedThreadByIndexIDEjE6g_func, 
                       __ZGVZN8lldb_rpc9SBProcess31IsInstrumentationRuntimePresentENS_26InstrumentationRuntimeTypeEE6g_func, 
                       __ZGVZN8lldb_rpc9SBProcess4KillEvE6g_func, __ZGVZN8lldb_rpc9SBProcess4StopEvE6g_func, 
                       __ZGVZN8lldb_rpc9SBProcess6DetachEbE6g_func, __ZGVZN8lldb_rpc9SBProcess6DetachEvE6g_func, 
                       __ZGVZN8lldb_rpc9SBProcess8ContinueEvE6g_func, __ZGVZN8lldb_rpc9SBProcess8GetStateEvE6g_func, 
                       __ZGVZN8lldb_rpc9SBProcess9LoadImageERNS_10SBFileSpecERNS_7SBErrorEE6g_func, 
                       __ZGVZN8lldb_rpc9SBSection14GetLoadAddressERNS_8SBTargetEE6g_func, 
                       __ZGVZNK8lldb_rpc10SBDebugger7IsValidEvE6g_func, 
                       __ZGVZNK8lldb_rpc10SBDebugger9GetPromptEvE6g_func, 
                       __ZGVZNK8lldb_rpc10SBFileSpec11GetFilenameEvE6g_func, 
                       __ZGVZNK8lldb_rpc10SBFileSpec12GetDirectoryEvE6g_func, 
                       __ZGVZNK8lldb_rpc10SBFileSpec6ExistsEvE6g_func, 
                       __ZGVZNK8lldb_rpc10SBFileSpec7GetPathEPcmE6g_func, 
                       __ZGVZNK8lldb_rpc11SBLineEntry11GetFileSpecEvE6g_func, 
                       __ZGVZNK8lldb_rpc11SBLineEntry15GetStartAddressEvE6g_func, 
                       __ZGVZNK8lldb_rpc11SBLineEntry7GetLineEvE6g_func, 
                       __ZGVZNK8lldb_rpc11SBLineEntry7IsValidEvE6g_func, 
                       __ZGVZNK8lldb_rpc11SBQueueItem10GetAddressEvE6g_func, 
                       __ZGVZNK8lldb_rpc11SBQueueItem7IsValidEvE6g_func, 
                       __ZGVZNK8lldb_rpc11SBValueList15GetValueAtIndexEjE6g_func, 
                       __ZGVZNK8lldb_rpc11SBValueList7GetSizeEvE6g_func, 
                       __ZGVZNK8lldb_rpc12SBBreakpoint11GetHitCountEvE6g_func, 
                       __ZGVZNK8lldb_rpc12SBBreakpoint15GetNumLocationsEvE6g_func, 
                       __ZGVZNK8lldb_rpc12SBBreakpoint5GetIDEvE6g_func, 
                       __ZGVZNK8lldb_rpc12SBBreakpoint7IsValidEvE6g_func, 
                       __ZGVZNK8lldb_rpc12SBStringList7GetSizeEvE6g_func, 
                       __ZGVZNK8lldb_rpc12SBWatchpoint7IsValidEvE6g_func, 
                       __ZGVZNK8lldb_rpc13SBBroadcaster7IsValidEvE6g_func, 
                       __ZGVZNK8lldb_rpc13SBCompileUnit18FindLineEntryIndexEjjPNS_10SBFileSpecEE6g_func, 
                       __ZGVZNK8lldb_rpc13SBCompileUnit18FindLineEntryIndexEjjPNS_10SBFileSpecEbE6g_func, 
                       __ZGVZNK8lldb_rpc13SBCompileUnit19GetLineEntryAtIndexEjE6g_func, 
                       __ZGVZNK8lldb_rpc13SBCompileUnit7IsValidEvE6g_func, 
                       __ZGVZNK8lldb_rpc20SBBreakpointLocation7IsValidEvE6g_func, 
                       __ZGVZNK8lldb_rpc6SBType7IsValidEvE6g_func, __ZGVZNK8lldb_rpc7SBError10GetCStringEvE6g_func, 
                       __ZGVZNK8lldb_rpc7SBError4FailEvE6g_func, __ZGVZNK8lldb_rpc7SBError7GetTypeEvE6g_func, 
                       __ZGVZNK8lldb_rpc7SBError7SuccessEvE6g_func, __ZGVZNK8lldb_rpc7SBError8GetErrorEvE6g_func, 
                       __ZGVZNK8lldb_rpc7SBEvent7GetTypeEvE6g_func, __ZGVZNK8lldb_rpc7SBFrame10GetFrameIDEvE6g_func, 
                       __ZGVZNK8lldb_rpc7SBFrame11DisassembleEvE6g_func, 
                       __ZGVZNK8lldb_rpc7SBFrame12GetLineEntryEvE6g_func, 
                       __ZGVZNK8lldb_rpc7SBFrame14GetCompileUnitEvE6g_func, 
                       __ZGVZNK8lldb_rpc7SBFrame16GetSymbolContextEjE6g_func, 
                       __ZGVZNK8lldb_rpc7SBFrame5GetFPEvE6g_func, __ZGVZNK8lldb_rpc7SBFrame5GetPCEvE6g_func, 
                       __ZGVZNK8lldb_rpc7SBFrame7IsValidEvE6g_func, __ZGVZNK8lldb_rpc7SBFrame9GetThreadEvE6g_func, 
                       __ZGVZNK8lldb_rpc7SBFrameeqERKS0_E6g_func, __ZGVZNK8lldb_rpc7SBQueue10GetQueueIDEvE6g_func, 
                       __ZGVZNK8lldb_rpc7SBQueue7GetNameEvE6g_func, __ZGVZNK8lldb_rpc7SBQueue7IsValidEvE6g_func, 
                       __ZGVZNK8lldb_rpc8SBModule11GetFileSpecEvE6g_func, 
                       __ZGVZNK8lldb_rpc8SBModule12GetUUIDBytesEvE6g_func, 
                       __ZGVZNK8lldb_rpc8SBModule13GetUUIDStringEvE6g_func, 
                       __ZGVZNK8lldb_rpc8SBModule7IsValidEvE6g_func, __ZGVZNK8lldb_rpc8SBModuleeqERKS0_E6g_func, 
                       __ZGVZNK8lldb_rpc8SBSymbol7GetNameEvE6g_func, __ZGVZNK8lldb_rpc8SBSymbol7IsValidEvE6g_func, 
                       __ZGVZNK8lldb_rpc8SBTarget11GetDebuggerEvE6g_func, 
                       __ZGVZNK8lldb_rpc8SBTarget13GetNumModulesEvE6g_func, 
                       __ZGVZNK8lldb_rpc8SBTarget14GetBroadcasterEvE6g_func, 
                       __ZGVZNK8lldb_rpc8SBTarget17GetNumWatchpointsEvE6g_func, 
                       __ZGVZNK8lldb_rpc8SBTarget20GetWatchpointAtIndexEjE6g_func, 
                       __ZGVZNK8lldb_rpc8SBTarget7IsValidEvE6g_func, __ZGVZNK8lldb_rpc8SBThread10GetIndexIDEvE6g_func, 
                       __ZGVZNK8lldb_rpc8SBThread10GetQueueIDEvE6g_func, 
                       __ZGVZNK8lldb_rpc8SBThread11GetThreadIDEvE6g_func, 
                       __ZGVZNK8lldb_rpc8SBThread12GetQueueNameEvE6g_func, 
                       __ZGVZNK8lldb_rpc8SBThread7GetNameEvE6g_func, __ZGVZNK8lldb_rpc8SBThread7IsValidEvE6g_func, 
                       __ZGVZNK8lldb_rpc8SBThread9GetStatusERNS_8SBStreamEE6g_func, 
                       __ZGVZNK8lldb_rpc8SBThreadeqERKS0_E6g_func, __ZGVZNK8lldb_rpc8SBThreadneERKS0_E6g_func, 
                       __ZGVZNK8lldb_rpc9SBAddress14GetLoadAddressERKNS_8SBTargetEE6g_func, 
                       __ZGVZNK8lldb_rpc9SBProcess14GetBroadcasterEvE6g_func, 
                       __ZGVZNK8lldb_rpc9SBProcess17GetSelectedThreadEvE6g_func, 
                       __ZGVZNK8lldb_rpc9SBProcess18GetAddressByteSizeEvE6g_func, 
                       __ZGVZNK8lldb_rpc9SBProcess19GetAsyncProfileDataEPcmE6g_func, 
                       __ZGVZNK8lldb_rpc9SBProcess7IsValidEvE6g_func, __ZGVZNK8lldb_rpc9SBProcess9GetSTDERREPcmE6g_func, 
                       __ZGVZNK8lldb_rpc9SBProcess9GetSTDOUTEPcmE6g_func, 
                       __ZGVZNK8lldb_rpc9SBProcess9GetTargetEvE6g_func, 
                       __ZL10g_log_file, __ZL10g_log_mask, __ZL11g_mutex_ptr, 
                       __ZL13DumpValueTypeRN10rpc_common9RPCStreamERNS_6StreamE, 
                       __ZL13g_strings_ptr, __ZL14g_function_map, __ZL17GetLogChannelMaskPKc, 
                       __ZL7g_mutex, __ZN10PosixSpawn10Attributes10SetDefaultEv, 
                       __ZN10PosixSpawn10AttributesD2Ev, __ZN10PosixSpawn11FileActions4Dup2Eii, 
                       __ZN10PosixSpawn11FileActions8SetupPTYEv, __ZN10PosixSpawn11FileActionsC2Ev, 
                       __ZN10PosixSpawn11FileActionsD2Ev, __ZN10PosixSpawn11ReapProcessEiPiS0_, 
                       __ZN10PosixSpawn12SetArgumentsEPPKc, __ZN10PosixSpawn13GetAttributesEv, 
                       __ZN10PosixSpawn13LaunchProcessEv, __ZN10PosixSpawn14AppendArgumentEPKc, 
                       __ZN10PosixSpawn14GetFileActionsEv, __ZN10PosixSpawn14SetEnvironmentEPPKc, 
                       __ZN10PosixSpawn17AppendEnvironmentEPKc, __ZN10PosixSpawn18ForwardEnvironmentEPKc, 
                       __ZN10PosixSpawnC1EPPKcS2_, __ZN10PosixSpawnC2EPPKcS2_, 
                       __ZN10PosixSpawnD1Ev, __ZN10PosixSpawnD2Ev, __ZN10rpc_client10InitializeEv, 
                       __ZN10rpc_common10Connection10DisconnectEv, __ZN10rpc_common10Connection10SendPacketERKNS_9RPCPacketE, 
                       __ZN10rpc_common10Connection11IsConnectedEv, __ZN10rpc_common10Connection13ReceivePacketERNS_9RPCPacketE, 
                       __ZN10rpc_common10Connection15AdoptUnixSocketEi, 
                       __ZN10rpc_common10Connection15ClearConnectionERKNSt3__110shared_ptrIS0_EE, 
                       __ZN10rpc_common10Connection15DumpPacketStatsERNS_6StreamEbb, 
                       __ZN10rpc_common10Connection15HandleRPCPacketERNS_9RPCPacketE, 
                       __ZN10rpc_common10Connection19GetConnectionFromIDEj, 
                       __ZN10rpc_common10Connection19GetServerExitStatusERiS1_, 
                       __ZN10rpc_common10Connection19SetIOFileDescriptorEi, 
                       __ZN10rpc_common10Connection20ReapRPCServerProcessEv, 
                       __ZN10rpc_common10Connection21SetServerExitedStatusEii, 
                       __ZN10rpc_common10Connection21SpawnRPCServerProcessEv, 
                       __ZN10rpc_common10Connection22CreateClientConnectionEPKc, 
                       __ZN10rpc_common10Connection22PrivateHandleRPCPacketERNS_9RPCPacketES2_Rb, 
                       __ZN10rpc_common10Connection23AddServerExitedCallbackEPFvPvRN3rpc10ConnectionEES1_, 
                       __ZN10rpc_common10Connection26RemoveServerExitedCallbackEPFvPvRN3rpc10ConnectionEES1_, 
                       __ZN10rpc_common10Connection26SetRPCServerExitedCallbackEPFvPviiiES1_, 
                       __ZN10rpc_common10Connection28SendPacketAndWaitForResponseERNS_9RPCPacketES2_, 
                       __ZN10rpc_common10Connection29SendRPCCallAndWaitForResponseERNS_9RPCStreamES2_, 
                       __ZN10rpc_common10Connection35GetConnectionFromRPCServerProcessIDEi, 
                       __ZN10rpc_common10Connection6SendFDEi, __ZN10rpc_common10Connection7RunLoopEv, 
                       __ZN10rpc_common10ConnectionC2EjPKc, __ZN10rpc_common10ConnectionD2Ev, 
                       __ZN10rpc_common10EncodeTypeIN3rpc9ObjectRefEEEvRNS_9RPCStreamERKT_, 
                       __ZN10rpc_common10InitializeEv, __ZN10rpc_common10SetLogFileEPKc, 
                       __ZN10rpc_common10StringList4argvEv, __ZN10rpc_common10StringList6DecodeERNS_9RPCStreamE, 
                       __ZN10rpc_common10StringListC1EPPKcm, __ZN10rpc_common10StringListC2EPPKcm, 
                       __ZN10rpc_common11GetThreadIDEv, __ZN10rpc_common12TypeToStringIN8lldb_rpc10SBDebuggerEEENSt3__19enable_ifIXntsr3std7is_enumIT_EE5valueEPKcE4typeEv, 
                       __ZN10rpc_common12TypeToStringIN8lldb_rpc10SBFileSpecEEENSt3__19enable_ifIXntsr3std7is_enumIT_EE5valueEPKcE4typeEv, 
                       __ZN10rpc_common12TypeToStringIN8lldb_rpc10SBListenerEEENSt3__19enable_ifIXntsr3std7is_enumIT_EE5valueEPKcE4typeEv, 
                       __ZN10rpc_common12TypeToStringIN8lldb_rpc11SBLineEntryEEENSt3__19enable_ifIXntsr3std7is_enumIT_EE5valueEPKcE4typeEv, 
                       __ZN10rpc_common12TypeToStringIN8lldb_rpc11SBQueueItemEEENSt3__19enable_ifIXntsr3std7is_enumIT_EE5valueEPKcE4typeEv, 
                       __ZN10rpc_common12TypeToStringIN8lldb_rpc11SBValueListEEENSt3__19enable_ifIXntsr3std7is_enumIT_EE5valueEPKcE4typeEv, 
                       __ZN10rpc_common12TypeToStringIN8lldb_rpc12SBAttachInfoEEENSt3__19enable_ifIXntsr3std7is_enumIT_EE5valueEPKcE4typeEv, 
                       __ZN10rpc_common12TypeToStringIN8lldb_rpc12SBBreakpointEEENSt3__19enable_ifIXntsr3std7is_enumIT_EE5valueEPKcE4typeEv, 
                       __ZN10rpc_common12TypeToStringIN8lldb_rpc12SBLaunchInfoEEENSt3__19enable_ifIXntsr3std7is_enumIT_EE5valueEPKcE4typeEv, 
                       __ZN10rpc_common12TypeToStringIN8lldb_rpc12SBStringListEEENSt3__19enable_ifIXntsr3std7is_enumIT_EE5valueEPKcE4typeEv, 
                       __ZN10rpc_common12TypeToStringIN8lldb_rpc12SBTypeMemberEEENSt3__19enable_ifIXntsr3std7is_enumIT_EE5valueEPKcE4typeEv, 
                       __ZN10rpc_common12TypeToStringIN8lldb_rpc12SBWatchpointEEENSt3__19enable_ifIXntsr3std7is_enumIT_EE5valueEPKcE4typeEv, 
                       __ZN10rpc_common12TypeToStringIN8lldb_rpc13SBBroadcasterEEENSt3__19enable_ifIXntsr3std7is_enumIT_EE5valueEPKcE4typeEv, 
                       __ZN10rpc_common12TypeToStringIN8lldb_rpc13SBCompileUnitEEENSt3__19enable_ifIXntsr3std7is_enumIT_EE5valueEPKcE4typeEv, 
                       __ZN10rpc_common12TypeToStringIN8lldb_rpc14SBFileSpecListEEENSt3__19enable_ifIXntsr3std7is_enumIT_EE5valueEPKcE4typeEv, 
                       __ZN10rpc_common12TypeToStringIN8lldb_rpc15SBSymbolContextEEENSt3__19enable_ifIXntsr3std7is_enumIT_EE5valueEPKcE4typeEv, 
                       __ZN10rpc_common12TypeToStringIN8lldb_rpc18SBThreadCollectionEEENSt3__19enable_ifIXntsr3std7is_enumIT_EE5valueEPKcE4typeEv, 
                       __ZN10rpc_common12TypeToStringIN8lldb_rpc19SBExpressionOptionsEEENSt3__19enable_ifIXntsr3std7is_enumIT_EE5valueEPKcE4typeEv, 
                       __ZN10rpc_common12TypeToStringIN8lldb_rpc20SBBreakpointLocationEEENSt3__19enable_ifIXntsr3std7is_enumIT_EE5valueEPKcE4typeEv, 
                       __ZN10rpc_common12TypeToStringIN8lldb_rpc20SBCommandInterpreterEEENSt3__19enable_ifIXntsr3std7is_enumIT_EE5valueEPKcE4typeEv, 
                       __ZN10rpc_common12TypeToStringIN8lldb_rpc20SBTypeSummaryOptionsEEENSt3__19enable_ifIXntsr3std7is_enumIT_EE5valueEPKcE4typeEv, 
                       __ZN10rpc_common12TypeToStringIN8lldb_rpc21SBCommandReturnObjectEEENSt3__19enable_ifIXntsr3std7is_enumIT_EE5valueEPKcE4typeEv, 
                       __ZN10rpc_common12TypeToStringIN8lldb_rpc6SBDataEEENSt3__19enable_ifIXntsr3std7is_enumIT_EE5valueEPKcE4typeEv, 
                       __ZN10rpc_common12TypeToStringIN8lldb_rpc6SBTypeEEENSt3__19enable_ifIXntsr3std7is_enumIT_EE5valueEPKcE4typeEv, 
                       __ZN10rpc_common12TypeToStringIN8lldb_rpc7SBErrorEEENSt3__19enable_ifIXntsr3std7is_enumIT_EE5valueEPKcE4typeEv, 
                       __ZN10rpc_common12TypeToStringIN8lldb_rpc7SBEventEEENSt3__19enable_ifIXntsr3std7is_enumIT_EE5valueEPKcE4typeEv, 
                       __ZN10rpc_common12TypeToStringIN8lldb_rpc7SBFrameEEENSt3__19enable_ifIXntsr3std7is_enumIT_EE5valueEPKcE4typeEv, 
                       __ZN10rpc_common12TypeToStringIN8lldb_rpc7SBQueueEEENSt3__19enable_ifIXntsr3std7is_enumIT_EE5valueEPKcE4typeEv, 
                       __ZN10rpc_common12TypeToStringIN8lldb_rpc7SBValueEEENSt3__19enable_ifIXntsr3std7is_enumIT_EE5valueEPKcE4typeEv, 
                       __ZN10rpc_common12TypeToStringIN8lldb_rpc8SBModuleEEENSt3__19enable_ifIXntsr3std7is_enumIT_EE5valueEPKcE4typeEv, 
                       __ZN10rpc_common12TypeToStringIN8lldb_rpc8SBStreamEEENSt3__19enable_ifIXntsr3std7is_enumIT_EE5valueEPKcE4typeEv, 
                       __ZN10rpc_common12TypeToStringIN8lldb_rpc8SBSymbolEEENSt3__19enable_ifIXntsr3std7is_enumIT_EE5valueEPKcE4typeEv, 
                       __ZN10rpc_common12TypeToStringIN8lldb_rpc8SBTargetEEENSt3__19enable_ifIXntsr3std7is_enumIT_EE5valueEPKcE4typeEv, 
                       __ZN10rpc_common12TypeToStringIN8lldb_rpc8SBThreadEEENSt3__19enable_ifIXntsr3std7is_enumIT_EE5valueEPKcE4typeEv, 
                       __ZN10rpc_common12TypeToStringIN8lldb_rpc9SBAddressEEENSt3__19enable_ifIXntsr3std7is_enumIT_EE5valueEPKcE4typeEv, 
                       __ZN10rpc_common12TypeToStringIN8lldb_rpc9SBProcessEEENSt3__19enable_ifIXntsr3std7is_enumIT_EE5valueEPKcE4typeEv, 
                       __ZN10rpc_common12TypeToStringIN8lldb_rpc9SBSectionEEENSt3__19enable_ifIXntsr3std7is_enumIT_EE5valueEPKcE4typeEv, 
                       __ZN10rpc_common12TypeToStringINS_10StringListEEENSt3__19enable_ifIXntsr3std7is_enumIT_EE5valueEPKcE4typeEv, 
                       __ZN10rpc_common12TypeToStringINS_16ConstCharPointerEEENSt3__19enable_ifIXntsr3std7is_enumIT_EE5valueEPKcE4typeEv, 
                       __ZN10rpc_common12TypeToStringINSt3__112basic_stringIcNS1_11char_traitsIcEENS1_9allocatorIcEEEEEENS1_9enable_ifIXntsr3std7is_enumIT_EE5valueEPKcE4typeEv, 
                       __ZN10rpc_common13InitializeLogEv, __ZN10rpc_common15FindRPCFunctionERKNS_15RPCFunctionInfoE, 
                       __ZN10rpc_common15RPCFunctionInfo4DumpEv, __ZN10rpc_common15RPCFunctionInfo6DecodeERNS_9RPCStreamE, 
                       __ZN10rpc_common15RPCFunctionInfo6EncodeERNS_9RPCStreamE, 
                       __ZN10rpc_common15RPCValueEncoderIN3rpc9ObjectRefEEEvRNS_9RPCStreamENS_9RPCPacket9ValueTypeERKT_, 
                       __ZN10rpc_common16ConstCharPointer6DecodeERNS_9RPCStreamE, 
                       __ZN10rpc_common16EnableLogChannelEPKc, __ZN10rpc_common16LoggingIsEnabledEj, 
                       __ZN10rpc_common17DisableLogChannelEPKc, __ZN10rpc_common18GetProgramBasenameEv, 
                       __ZN10rpc_common19RPCConnectionSocket10DisconnectEv, 
                       __ZN10rpc_common19RPCConnectionSocket4ReadERNSt3__112basic_stringIhNS1_11char_traitsIhEENS1_9allocatorIhEEEEb, 
                       __ZN10rpc_common19RPCConnectionSocket5CloseERi, 
                       __ZN10rpc_common19RPCConnectionSocket5WriteEPKvm, 
                       __ZN10rpc_common19RPCConnectionSocket5useFDEi, __ZN10rpc_common19RPCConnectionSocketC1Ev, 
                       __ZN10rpc_common19RPCConnectionSocketD0Ev, __ZN10rpc_common19RPCConnectionSocketD1Ev, 
                       __ZN10rpc_common19RPCConnectionSocketD2Ev, __ZN10rpc_common19RPCFunctionInstance15GetAvailabilityEv, 
                       __ZN10rpc_common19RPCFunctionInstance7CallRPCERNS_10ConnectionERNS_9RPCStreamES4_, 
                       __ZN10rpc_common19RegisterRPCFunctionERKNSt3__110shared_ptrINS_19RPCFunctionInstanceEEE, 
                       __ZN10rpc_common23GetClassNameFromClassIDENS_7ClassIDE, 
                       __ZN10rpc_common3LogEPKcz, __ZN10rpc_common5Bytes6DecodeERNS_9RPCStreamE, 
                       __ZN10rpc_common5Bytes7GetDataEv, __ZN10rpc_common5Bytes8SetBytesEPKvm, 
                       __ZN10rpc_common5BytesC1EPKvm, __ZN10rpc_common5BytesC2EPKvm, 
                       __ZN10rpc_common5BytesD1Ev, __ZN10rpc_common5BytesD2Ev, 
                       __ZN10rpc_common5VALogEPKcP13__va_list_tag, __ZN10rpc_common6DecodeIN3rpc14LocalObjectRefEEEbRNS_9RPCStreamERT_, 
                       __ZN10rpc_common6DecodeIN3rpc9ObjectRefEEEbRNS_9RPCStreamERT_, 
                       __ZN10rpc_common6EncodeIN3rpc9ObjectRefEEEvRNS_9RPCStreamERKT_, 
                       __ZN10rpc_common6Stream3EOLEv, __ZN10rpc_common6Stream4PutsEPKc, 
                       __ZN10rpc_common6Stream6PrintfEPKcz, __ZN10rpc_common6Stream8VAPrintfEPKcP13__va_list_tag, 
                       __ZN10rpc_common8RPCTimerC1Ev, __ZN10rpc_common8RPCTimerD1Ev, 
                       __ZN10rpc_common9Demangled10SetMangledEPKc, __ZN10rpc_common9DemangledC1EPKc, 
                       __ZN10rpc_common9DemangledD1Ev, __ZN10rpc_common9RPCPacket12UpdateHeaderEj, 
                       __ZN10rpc_common9RPCPacket15PrepareResponseERKS0_, 
                       __ZN10rpc_common9RPCPacket3LogEbbRNS_6StreamE, __ZN10rpc_common9RPCPacket4SendERNS_10ConnectionEj, 
                       __ZN10rpc_common9RPCPacket6DecodeERNS_9RPCStreamE, 
                       __ZN10rpc_common9RPCPacketC1ENS0_4TypeEy, __ZN10rpc_common9RPCStream10GetCStringERNSt3__112basic_stringIcNS1_11char_traitsIcEENS1_9allocatorIcEEEE, 
                       __ZN10rpc_common9RPCStreamC1Ev, __ZN10rpc_common9RPCStreamD1Ev, 
                       __ZN10rpc_common9RPCStreamlsEPKc, __ZN10rpc_common9RPCStreamlsEPPKc, 
                       __ZN10rpc_common9RPCStreamlsEPv, __ZN10rpc_common9RPCStreamlsERKNSt3__112basic_stringIcNS1_11char_traitsIcEENS1_9allocatorIcEEEE, 
                       __ZN10rpc_common9RPCStreamlsEb, __ZN10rpc_common9RPCStreamlsEi, 
                       __ZN10rpc_common9RPCStreamlsEj, __ZN10rpc_common9RPCStreamlsEm, 
                       __ZN10rpc_common9RPCStreamlsEx, __ZN10rpc_common9RPCStreamlsEy, 
                       __ZN10rpc_common9RPCStreamrsERNSt3__112basic_stringIcNS1_11char_traitsIcEENS1_9allocatorIcEEEE, 
                       __ZN10rpc_common9RPCStreamrsERPv, __ZN10rpc_common9RPCStreamrsERb, 
                       __ZN10rpc_common9RPCStreamrsERi, __ZN10rpc_common9RPCStreamrsERj, 
                       __ZN10rpc_common9RPCStreamrsERm, __ZN10rpc_common9RPCStreamrsERx, 
                       __ZN10rpc_common9RPCStreamrsERy, __ZN10rpc_commonlsERNS_9RPCStreamERKN3rpc14LocalObjectRefE, 
                       __ZN10rpc_commonlsERNS_9RPCStreamERKN3rpc9ObjectRefE, 
                       __ZN10rpc_commonlsERNS_9RPCStreamERKNS_10StringListE, 
                       __ZN10rpc_commonrsERNS_9RPCStreamERN3rpc14LocalObjectRefE, 
                       __ZN10rpc_commonrsERNS_9RPCStreamERN3rpc9ObjectRefE, 
                       __ZN10rpc_commonrsERNS_9RPCStreamERNS_10StringListE, 
                       __ZN10rpc_commonrsERNS_9RPCStreamERNS_16ConstCharPointerE, 
                       __ZN10rpc_commonrsERNS_9RPCStreamERNS_5BytesE, __ZN110_ZN4lldb12SBBreakpoint11SetCallbackEPFbPvRNS_9SBProcessERNS_8SBThreadERNS_20SBBreakpointLocationEES1__callbackD0Ev, 
                       __ZN110_ZN4lldb12SBBreakpoint11SetCallbackEPFbPvRNS_9SBProcessERNS_8SBThreadERNS_20SBBreakpointLocationEES1__callbackD1Ev, 
                       __ZN12_GLOBAL__N_114SetCloexecFlagEi, __ZN13RPCStringPool10InitializeEv, 
                       __ZN13RPCStringPool3AddERKN10rpc_common16ConstCharPointerE, 
                       __ZN13RPCStringPool3AddERKN10rpc_common5BytesE, 
                       __ZN13RPCStringPool3AddERKNSt3__112basic_stringIcNS0_11char_traitsIcEENS0_9allocatorIcEEEE, 
                       __ZN17RPCPseudoTerminal24OpenFirstAvailableMasterEi, 
                       __ZN17RPCPseudoTerminal9OpenSlaveEi, __ZN17RPCPseudoTerminalC1Ev, 
                       __ZN17RPCPseudoTerminalD1Ev, __ZN17RPCPseudoTerminalD2Ev, 
                       __ZN3rpc10Connection10DisconnectEv, __ZN3rpc10Connection15DumpPacketStatsEb, 
                       __ZN3rpc10Connection18ConnectToRPCServerEPKc, __ZN3rpc10Connection19GetServerExitStatusERiS1_, 
                       __ZN3rpc10Connection23AddServerExitedCallbackEPFvPvRS0_ES1_, 
                       __ZN3rpc10Connection26RemoveServerExitedCallbackEPFvPvRS0_ES1_, 
                       __ZN3rpc10Connection26SetRPCServerExitedCallbackEPFvPviiiES1_, 
                       __ZN3rpc10Connection36GetConnnectionFromRPCServerProcessIDEi, 
                       __ZN3rpc10Connection8ShutdownEv, __ZN3rpc10ConnectionC1ERKNSt3__110shared_ptrIN10rpc_common10ConnectionEEE, 
                       __ZN3rpc10ConnectionC1Ev, __ZN3rpc10ConnectionC2ERKNSt3__110shared_ptrIN10rpc_common10ConnectionEEE, 
                       __ZN3rpc10ConnectionC2Ev, __ZN3rpc10ConnectionD1Ev, 
                       __ZN3rpc10ConnectionD2Ev, __ZN3rpc10ConnectioncvbEv, 
                       __ZN3rpc10InitializeEv, __ZN3rpc10SetLogFileEPKc, 
                       __ZN3rpc14LocalObjectRef14ObjectRefSetSPERKNSt3__110shared_ptrINS_9ObjectRefEEE, 
                       __ZN3rpc14LocalObjectRef19ObjectRefInvalidateEv, 
                       __ZN3rpc14LocalObjectRefC1ERKS0_, __ZN3rpc14LocalObjectRefC1Ejjy, 
                       __ZN3rpc14LocalObjectRefC2ERKS0_, __ZN3rpc14LocalObjectRefC2Ejjy, 
                       __ZN3rpc14LocalObjectRefD1Ev, __ZN3rpc14LocalObjectRefD2Ev, 
                       __ZN3rpc14LocalObjectRefaSERKS0_, __ZN3rpc16EnableLogChannelEPKc, 
                       __ZN3rpc17DisableLogChannelEPKc, __ZN3rpc18GetProgramBasenameEv, 
                       __ZN3rpc3LogEPKcz, __ZN3rpc9ObjectRef14ObjectRefSetIDEy, 
                       __ZN3rpc9ObjectRef19ObjectRefInvalidateEv, __ZN3rpc9ObjectRef24ObjectRefSetConnectionIDEj, 
                       __ZN3rpc9ObjectRef4CopyERKS0_, __ZN3rpc9ObjectRef6DecRefEv, 
                       __ZN3rpc9ObjectRefC1EOS0_, __ZN3rpc9ObjectRefC1ERKS0_, 
                       __ZN3rpc9ObjectRefC1Ejjy, __ZN3rpc9ObjectRefC2EOS0_, 
                       __ZN3rpc9ObjectRefC2ERKS0_, __ZN3rpc9ObjectRefC2Ejjy, 
                       __ZN3rpc9ObjectRefD1Ev, __ZN3rpc9ObjectRefD2Ev, 
                       __ZN3rpc9ObjectRefaSEOS0_, __ZN3rpc9ObjectRefaSERKS0_, 
                       __ZN3rpc9ObjectRefeqERKS0_, __ZN3rpc9ObjectRefneERKS0_, 
                       __ZN84_ZN4lldb20SBCommandInterpreter26SetCommandOverrideCallbackEPKcPFbPvPS2_ES3__callbackD0Ev, 
                       __ZN84_ZN4lldb20SBCommandInterpreter26SetCommandOverrideCallbackEPKcPFbPvPS2_ES3__callbackD1Ev, 
                       __ZN8IOReader10ClosePipesEv, __ZN8IOReader10ReadThreadENSt3__18functionIFbPKvmEEE, 
                       __ZN8IOReader14JoinReadThreadEv, __ZN8IOReader15StartReadThreadENSt3__18functionIFbPKvmEEE, 
                       __ZN8IOReader4ReadEiPvm, __ZN8IOReader5SetFDEi, 
                       __ZN8IOReader5WriteEiPKvm, __ZN8IOReader6CancelEv, 
                       __ZN8IOReaderC1Ei, __ZN8IOReaderD1Ev, __ZN8IOReaderD2Ev, 
                       __ZN8lldb_rpc10SBDebugger10InitializeERKN3rpc10ConnectionE, 
                       __ZN8lldb_rpc10SBDebugger11GetListenerEv, __ZN8lldb_rpc10SBDebugger12CreateTargetEPKcS2_S2_bRNS_7SBErrorE, 
                       __ZN8lldb_rpc10SBDebugger13GetNumTargetsEv, __ZN8lldb_rpc10SBDebugger13HandleCommandEPKc, 
                       __ZN8lldb_rpc10SBDebugger14StateAsCStringENS_9StateTypeE, 
                       __ZN8lldb_rpc10SBDebugger16GetTargetAtIndexEj, __ZN8lldb_rpc10SBDebugger17SetSelectedTargetERNS_8SBTargetE, 
                       __ZN8lldb_rpc10SBDebugger18SetCurrentPlatformEPKc, 
                       __ZN8lldb_rpc10SBDebugger19StateIsStoppedStateENS_9StateTypeE, 
                       __ZN8lldb_rpc10SBDebugger21GetCommandInterpreterEv, 
                       __ZN8lldb_rpc10SBDebugger21RunCommandInterpreterEbb, 
                       __ZN8lldb_rpc10SBDebugger22MemoryPressureDetectedEv, 
                       __ZN8lldb_rpc10SBDebugger25SetCurrentPlatformSDKRootEPKc, 
                       __ZN8lldb_rpc10SBDebugger6CreateERKN3rpc10ConnectionEbPFvPKcPvES7_, 
                       __ZN8lldb_rpc10SBDebugger7DestroyERS0_, __ZN8lldb_rpc10SBDebugger9EnableLogEPKcPS2_, 
                       __ZN8lldb_rpc10SBDebugger9SetIOFileEPKc, __ZN8lldb_rpc10SBDebuggerC1ERKS0_, 
                       __ZN8lldb_rpc10SBDebuggerC1Ev, __ZN8lldb_rpc10SBDebuggerC2ERKS0_, 
                       __ZN8lldb_rpc10SBDebuggerC2Ev, __ZN8lldb_rpc10SBDebuggerD1Ev, 
                       __ZN8lldb_rpc10SBDebuggerD2Ev, __ZN8lldb_rpc10SBDebuggeraSERKS0_, 
                       __ZN8lldb_rpc10SBFileSpecC1EOS0_, __ZN8lldb_rpc10SBFileSpecC1ERKN3rpc10ConnectionEPKc, 
                       __ZN8lldb_rpc10SBFileSpecC1ERKN3rpc10ConnectionEPKcb, 
                       __ZN8lldb_rpc10SBFileSpecC1ERKS0_, __ZN8lldb_rpc10SBFileSpecC1Ev, 
                       __ZN8lldb_rpc10SBFileSpecC2EOS0_, __ZN8lldb_rpc10SBFileSpecC2ERKN3rpc10ConnectionEPKc, 
                       __ZN8lldb_rpc10SBFileSpecC2ERKN3rpc10ConnectionEPKcb, 
                       __ZN8lldb_rpc10SBFileSpecC2ERKS0_, __ZN8lldb_rpc10SBFileSpecC2Ev, 
                       __ZN8lldb_rpc10SBFileSpecD1Ev, __ZN8lldb_rpc10SBFileSpecD2Ev, 
                       __ZN8lldb_rpc10SBFileSpecaSEOS0_, __ZN8lldb_rpc10SBFileSpecaSERKS0_, 
                       __ZN8lldb_rpc10SBListener12GetNextEventERNS_7SBEventE, 
                       __ZN8lldb_rpc10SBListener12WaitForEventEjRNS_7SBEventE, 
                       __ZN8lldb_rpc10SBListener23StartListeningForEventsERKNS_13SBBroadcasterEj, 
                       __ZN8lldb_rpc10SBListener27StartListeningForEventClassERNS_10SBDebuggerEPKcj, 
                       __ZN8lldb_rpc10SBListenerC1ERKS0_, __ZN8lldb_rpc10SBListenerC1Ev, 
                       __ZN8lldb_rpc10SBListenerC2ERKS0_, __ZN8lldb_rpc10SBListenerC2Ev, 
                       __ZN8lldb_rpc10SBListenerD1Ev, __ZN8lldb_rpc10SBListenerD2Ev, 
                       __ZN8lldb_rpc10SBListeneraSERKS0_, __ZN8lldb_rpc11SBLineEntryC1EOS0_, 
                       __ZN8lldb_rpc11SBLineEntryC1ERKN3rpc10ConnectionE, 
                       __ZN8lldb_rpc11SBLineEntryC1ERKS0_, __ZN8lldb_rpc11SBLineEntryC1Ev, 
                       __ZN8lldb_rpc11SBLineEntryC2EOS0_, __ZN8lldb_rpc11SBLineEntryC2ERKN3rpc10ConnectionE, 
                       __ZN8lldb_rpc11SBLineEntryC2ERKS0_, __ZN8lldb_rpc11SBLineEntryC2Ev, 
                       __ZN8lldb_rpc11SBLineEntryD1Ev, __ZN8lldb_rpc11SBLineEntryD2Ev, 
                       __ZN8lldb_rpc11SBLineEntryaSEOS0_, __ZN8lldb_rpc11SBLineEntryaSERKS0_, 
                       __ZN8lldb_rpc11SBQueueItem26GetExtendedBacktraceThreadEPKc, 
                       __ZN8lldb_rpc11SBQueueItemC1ERKS0_, __ZN8lldb_rpc11SBQueueItemC1Ev, 
                       __ZN8lldb_rpc11SBQueueItemC2ERKS0_, __ZN8lldb_rpc11SBQueueItemC2Ev, 
                       __ZN8lldb_rpc11SBQueueItemD1Ev, __ZN8lldb_rpc11SBQueueItemD2Ev, 
                       __ZN8lldb_rpc11SBQueueItemaSERKS0_, __ZN8lldb_rpc11SBValueListC1EOS0_, 
                       __ZN8lldb_rpc11SBValueListC1ERKS0_, __ZN8lldb_rpc11SBValueListC1Ev, 
                       __ZN8lldb_rpc11SBValueListC2EOS0_, __ZN8lldb_rpc11SBValueListC2ERKS0_, 
                       __ZN8lldb_rpc11SBValueListC2Ev, __ZN8lldb_rpc11SBValueListD1Ev, 
                       __ZN8lldb_rpc11SBValueListD2Ev, __ZN8lldb_rpc11SBValueListaSEOS0_, 
                       __ZN8lldb_rpc11SBValueListaSERKS0_, __ZN8lldb_rpc12SBAttachInfo17SetIgnoreExistingEb, 
                       __ZN8lldb_rpc12SBAttachInfo9SetUserIDEj, __ZN8lldb_rpc12SBAttachInfoC1ERKN3rpc10ConnectionE, 
                       __ZN8lldb_rpc12SBAttachInfoC1ERKN3rpc10ConnectionEPKcb, 
                       __ZN8lldb_rpc12SBAttachInfoC1ERKN3rpc10ConnectionEPKcbb, 
                       __ZN8lldb_rpc12SBAttachInfoC1ERKN3rpc10ConnectionEy, 
                       __ZN8lldb_rpc12SBAttachInfoC1ERKS0_, __ZN8lldb_rpc12SBAttachInfoC1Ev, 
                       __ZN8lldb_rpc12SBAttachInfoC2ERKN3rpc10ConnectionE, 
                       __ZN8lldb_rpc12SBAttachInfoC2ERKN3rpc10ConnectionEPKcb, 
                       __ZN8lldb_rpc12SBAttachInfoC2ERKN3rpc10ConnectionEPKcbb, 
                       __ZN8lldb_rpc12SBAttachInfoC2ERKN3rpc10ConnectionEy, 
                       __ZN8lldb_rpc12SBAttachInfoC2ERKS0_, __ZN8lldb_rpc12SBAttachInfoC2Ev, 
                       __ZN8lldb_rpc12SBAttachInfoD1Ev, __ZN8lldb_rpc12SBAttachInfoD2Ev, 
                       __ZN8lldb_rpc12SBAttachInfoaSERKS0_, __ZN8lldb_rpc12SBBreakpoint10SetEnabledEb, 
                       __ZN8lldb_rpc12SBBreakpoint11SetCallbackEPFbPvRNS_9SBProcessERNS_8SBThreadERNS_20SBBreakpointLocationEES1_, 
                       __ZN8lldb_rpc12SBBreakpoint12SetConditionEPKc, __ZN8lldb_rpc12SBBreakpoint14GetDescriptionERNS_8SBStreamE, 
                       __ZN8lldb_rpc12SBBreakpoint14SetIgnoreCountEj, __ZN8lldb_rpc12SBBreakpoint16FindLocationByIDEi, 
                       __ZN8lldb_rpc12SBBreakpoint18GetLocationAtIndexEj, 
                       __ZN8lldb_rpc12SBBreakpoint22GetBreakpointFromEventERKNS_7SBEventE, 
                       __ZN8lldb_rpc12SBBreakpoint31GetBreakpointEventTypeFromEventERKNS_7SBEventE, 
                       __ZN8lldb_rpc12SBBreakpoint34GetNumBreakpointLocationsFromEventERKNS_7SBEventE, 
                       __ZN8lldb_rpc12SBBreakpoint37GetBreakpointLocationAtIndexFromEventERKNS_7SBEventEj, 
                       __ZN8lldb_rpc12SBBreakpoint9IsEnabledEv, __ZN8lldb_rpc12SBBreakpointC1ERKS0_, 
                       __ZN8lldb_rpc12SBBreakpointC1Ev, __ZN8lldb_rpc12SBBreakpointC2ERKS0_, 
                       __ZN8lldb_rpc12SBBreakpointC2Ev, __ZN8lldb_rpc12SBBreakpointD1Ev, 
                       __ZN8lldb_rpc12SBBreakpointD2Ev, __ZN8lldb_rpc12SBBreakpointaSERKS0_, 
                       __ZN8lldb_rpc12SBLaunchInfo12SetArgumentsEPPKcb, 
                       __ZN8lldb_rpc12SBLaunchInfo14SetLaunchFlagsEj, __ZN8lldb_rpc12SBLaunchInfo17AddOpenFileActionEiPKcbb, 
                       __ZN8lldb_rpc12SBLaunchInfo17SetExecutableFileENS_10SBFileSpecEb, 
                       __ZN8lldb_rpc12SBLaunchInfo18SetLaunchEventDataEPKc, 
                       __ZN8lldb_rpc12SBLaunchInfo19SetWorkingDirectoryEPKc, 
                       __ZN8lldb_rpc12SBLaunchInfo21SetEnvironmentEntriesEPPKcb, 
                       __ZN8lldb_rpc12SBLaunchInfo9SetUserIDEj, __ZN8lldb_rpc12SBLaunchInfoC1ERKN3rpc10ConnectionEPPKc, 
                       __ZN8lldb_rpc12SBLaunchInfoC1ERKS0_, __ZN8lldb_rpc12SBLaunchInfoC2ERKN3rpc10ConnectionEPPKc, 
                       __ZN8lldb_rpc12SBLaunchInfoC2ERKS0_, __ZN8lldb_rpc12SBLaunchInfoD1Ev, 
                       __ZN8lldb_rpc12SBLaunchInfoD2Ev, __ZN8lldb_rpc12SBLaunchInfoaSERKS0_, 
                       __ZN8lldb_rpc12SBStringList12AppendStringEPKc, __ZN8lldb_rpc12SBStringList16GetStringAtIndexEm, 
                       __ZN8lldb_rpc12SBStringListC1EOS0_, __ZN8lldb_rpc12SBStringListC1ERKN3rpc10ConnectionE, 
                       __ZN8lldb_rpc12SBStringListC1ERKS0_, __ZN8lldb_rpc12SBStringListC1Ev, 
                       __ZN8lldb_rpc12SBStringListC2EOS0_, __ZN8lldb_rpc12SBStringListC2ERKN3rpc10ConnectionE, 
                       __ZN8lldb_rpc12SBStringListC2ERKS0_, __ZN8lldb_rpc12SBStringListC2Ev, 
                       __ZN8lldb_rpc12SBStringListD1Ev, __ZN8lldb_rpc12SBStringListD2Ev, 
                       __ZN8lldb_rpc12SBStringListaSEOS0_, __ZN8lldb_rpc12SBStringListaSERKS0_, 
                       __ZN8lldb_rpc12SBTypeMember7GetTypeEv, __ZN8lldb_rpc12SBTypeMemberC1EOS0_, 
                       __ZN8lldb_rpc12SBTypeMemberC1ERKS0_, __ZN8lldb_rpc12SBTypeMemberC1Ev, 
                       __ZN8lldb_rpc12SBTypeMemberC2EOS0_, __ZN8lldb_rpc12SBTypeMemberC2ERKS0_, 
                       __ZN8lldb_rpc12SBTypeMemberC2Ev, __ZN8lldb_rpc12SBTypeMemberD1Ev, 
                       __ZN8lldb_rpc12SBTypeMemberD2Ev, __ZN8lldb_rpc12SBTypeMemberaSEOS0_, 
                       __ZN8lldb_rpc12SBTypeMemberaSERKS0_, __ZN8lldb_rpc12SBWatchpoint10SetEnabledEb, 
                       __ZN8lldb_rpc12SBWatchpoint5GetIDEv, __ZN8lldb_rpc12SBWatchpointC1ERKS0_, 
                       __ZN8lldb_rpc12SBWatchpointC1Ev, __ZN8lldb_rpc12SBWatchpointC2ERKS0_, 
                       __ZN8lldb_rpc12SBWatchpointC2Ev, __ZN8lldb_rpc12SBWatchpointD1Ev, 
                       __ZN8lldb_rpc12SBWatchpointD2Ev, __ZN8lldb_rpc12SBWatchpointaSERKS0_, 
                       __ZN8lldb_rpc13SBBroadcaster11AddListenerERKNS_10SBListenerEj, 
                       __ZN8lldb_rpc13SBBroadcaster14RemoveListenerERKNS_10SBListenerEj, 
                       __ZN8lldb_rpc13SBBroadcaster20BroadcastEventByTypeEjb, 
                       __ZN8lldb_rpc13SBBroadcasterC1ERKS0_, __ZN8lldb_rpc13SBBroadcasterC1ERN3rpc10ConnectionEPKc, 
                       __ZN8lldb_rpc13SBBroadcasterC1Ev, __ZN8lldb_rpc13SBBroadcasterC2ERKS0_, 
                       __ZN8lldb_rpc13SBBroadcasterC2ERN3rpc10ConnectionEPKc, 
                       __ZN8lldb_rpc13SBBroadcasterC2Ev, __ZN8lldb_rpc13SBBroadcasterD1Ev, 
                       __ZN8lldb_rpc13SBBroadcasterD2Ev, __ZN8lldb_rpc13SBBroadcasteraSERKS0_, 
                       __ZN8lldb_rpc13SBCompileUnitC1ERKS0_, __ZN8lldb_rpc13SBCompileUnitC1Ev, 
                       __ZN8lldb_rpc13SBCompileUnitC2ERKS0_, __ZN8lldb_rpc13SBCompileUnitC2Ev, 
                       __ZN8lldb_rpc13SBCompileUnitD1Ev, __ZN8lldb_rpc13SBCompileUnitD2Ev, 
                       __ZN8lldb_rpc13SBCompileUnitaSERKS0_, __ZN8lldb_rpc14SBFileSpecListC1Ev, 
                       __ZN8lldb_rpc14SBFileSpecListC2Ev, __ZN8lldb_rpc14SBFileSpecListD1Ev, 
                       __ZN8lldb_rpc14SBFileSpecListD2Ev, __ZN8lldb_rpc15SBSymbolContext12GetLineEntryEv, 
                       __ZN8lldb_rpc15SBSymbolContext9GetModuleEv, __ZN8lldb_rpc15SBSymbolContext9GetSymbolEv, 
                       __ZN8lldb_rpc15SBSymbolContextC1EOS0_, __ZN8lldb_rpc15SBSymbolContextC1ERKS0_, 
                       __ZN8lldb_rpc15SBSymbolContextC1Ev, __ZN8lldb_rpc15SBSymbolContextC2EOS0_, 
                       __ZN8lldb_rpc15SBSymbolContextC2ERKS0_, __ZN8lldb_rpc15SBSymbolContextC2Ev, 
                       __ZN8lldb_rpc15SBSymbolContextD1Ev, __ZN8lldb_rpc15SBSymbolContextD2Ev, 
                       __ZN8lldb_rpc15SBSymbolContextaSEOS0_, __ZN8lldb_rpc15SBSymbolContextaSERKS0_, 
                       __ZN8lldb_rpc18SBThreadCollection16GetThreadAtIndexEm, 
                       __ZN8lldb_rpc18SBThreadCollection7GetSizeEv, __ZN8lldb_rpc18SBThreadCollectionC1ERKS0_, 
                       __ZN8lldb_rpc18SBThreadCollectionC1Ev, __ZN8lldb_rpc18SBThreadCollectionC2ERKS0_, 
                       __ZN8lldb_rpc18SBThreadCollectionC2Ev, __ZN8lldb_rpc18SBThreadCollectionD1Ev, 
                       __ZN8lldb_rpc18SBThreadCollectionD2Ev, __ZN8lldb_rpc18SBThreadCollectionaSERKS0_, 
                       __ZN8lldb_rpc19SBExpressionOptions11SetLanguageENS_12LanguageTypeE, 
                       __ZN8lldb_rpc19SBExpressionOptions13SetStopOthersEb, 
                       __ZN8lldb_rpc19SBExpressionOptions16SetTryAllThreadsEb, 
                       __ZN8lldb_rpc19SBExpressionOptions16SetUnwindOnErrorEb, 
                       __ZN8lldb_rpc19SBExpressionOptions17SetCancelCallbackEPFbNS_25ExpressionEvaluationPhaseEPvES2_, 
                       __ZN8lldb_rpc19SBExpressionOptions17SetTrapExceptionsEb, 
                       __ZN8lldb_rpc19SBExpressionOptions18SetAutoApplyFixItsEb, 
                       __ZN8lldb_rpc19SBExpressionOptions20SetFetchDynamicValueENS_16DynamicValueTypeE, 
                       __ZN8lldb_rpc19SBExpressionOptions20SetGenerateDebugInfoEb, 
                       __ZN8lldb_rpc19SBExpressionOptions20SetIgnoreBreakpointsEb, 
                       __ZN8lldb_rpc19SBExpressionOptions24SetTimeoutInMicroSecondsEj, 
                       __ZN8lldb_rpc19SBExpressionOptions29SetPlaygroundTransformEnabledEb, 
                       __ZN8lldb_rpc19SBExpressionOptionsC1EOS0_, __ZN8lldb_rpc19SBExpressionOptionsC1ERKN3rpc10ConnectionE, 
                       __ZN8lldb_rpc19SBExpressionOptionsC1ERKS0_, __ZN8lldb_rpc19SBExpressionOptionsC1Ev, 
                       __ZN8lldb_rpc19SBExpressionOptionsC2EOS0_, __ZN8lldb_rpc19SBExpressionOptionsC2ERKN3rpc10ConnectionE, 
                       __ZN8lldb_rpc19SBExpressionOptionsC2ERKS0_, __ZN8lldb_rpc19SBExpressionOptionsC2Ev, 
                       __ZN8lldb_rpc19SBExpressionOptionsD1Ev, __ZN8lldb_rpc19SBExpressionOptionsD2Ev, 
                       __ZN8lldb_rpc19SBExpressionOptionsaSEOS0_, __ZN8lldb_rpc19SBExpressionOptionsaSERKS0_, 
                       __ZN8lldb_rpc20SBBreakpointLocation10GetAddressEv, 
                       __ZN8lldb_rpc20SBBreakpointLocation10SetEnabledEb, 
                       __ZN8lldb_rpc20SBBreakpointLocation12GetConditionEv, 
                       __ZN8lldb_rpc20SBBreakpointLocation12SetConditionEPKc, 
                       __ZN8lldb_rpc20SBBreakpointLocation13GetBreakpointEv, 
                       __ZN8lldb_rpc20SBBreakpointLocation14GetIgnoreCountEv, 
                       __ZN8lldb_rpc20SBBreakpointLocation14SetIgnoreCountEj, 
                       __ZN8lldb_rpc20SBBreakpointLocation5GetIDEv, __ZN8lldb_rpc20SBBreakpointLocation9IsEnabledEv, 
                       __ZN8lldb_rpc20SBBreakpointLocationC1ERKS0_, __ZN8lldb_rpc20SBBreakpointLocationC1Ev, 
                       __ZN8lldb_rpc20SBBreakpointLocationC2ERKS0_, __ZN8lldb_rpc20SBBreakpointLocationC2Ev, 
                       __ZN8lldb_rpc20SBBreakpointLocationD1Ev, __ZN8lldb_rpc20SBBreakpointLocationD2Ev, 
                       __ZN8lldb_rpc20SBBreakpointLocationaSERKS0_, __ZN8lldb_rpc20SBCommandInterpreter13HandleCommandEPKcRNS_21SBCommandReturnObjectEb, 
                       __ZN8lldb_rpc20SBCommandInterpreter14GetBroadcasterEv, 
                       __ZN8lldb_rpc20SBCommandInterpreter16HandleCompletionEPKcjiiRNS_12SBStringListE, 
                       __ZN8lldb_rpc20SBCommandInterpreter26SetCommandOverrideCallbackEPKcPFbPvPS2_ES3_, 
                       __ZN8lldb_rpc20SBCommandInterpreter8IsActiveEv, 
                       __ZN8lldb_rpc20SBCommandInterpreterC1ERKS0_, __ZN8lldb_rpc20SBCommandInterpreterC1Ev, 
                       __ZN8lldb_rpc20SBCommandInterpreterC2ERKS0_, __ZN8lldb_rpc20SBCommandInterpreterC2Ev, 
                       __ZN8lldb_rpc20SBCommandInterpreterD1Ev, __ZN8lldb_rpc20SBCommandInterpreterD2Ev, 
                       __ZN8lldb_rpc20SBCommandInterpreteraSERKS0_, __ZN8lldb_rpc20SBTypeSummaryOptions10SetCappingENS_18TypeSummaryCappingE, 
                       __ZN8lldb_rpc20SBTypeSummaryOptionsC1EOS0_, __ZN8lldb_rpc20SBTypeSummaryOptionsC1ERKN3rpc10ConnectionE, 
                       __ZN8lldb_rpc20SBTypeSummaryOptionsC1ERKS0_, __ZN8lldb_rpc20SBTypeSummaryOptionsC1Ev, 
                       __ZN8lldb_rpc20SBTypeSummaryOptionsC2EOS0_, __ZN8lldb_rpc20SBTypeSummaryOptionsC2ERKN3rpc10ConnectionE, 
                       __ZN8lldb_rpc20SBTypeSummaryOptionsC2ERKS0_, __ZN8lldb_rpc20SBTypeSummaryOptionsC2Ev, 
                       __ZN8lldb_rpc20SBTypeSummaryOptionsD1Ev, __ZN8lldb_rpc20SBTypeSummaryOptionsD2Ev, 
                       __ZN8lldb_rpc20SBTypeSummaryOptionsaSEOS0_, __ZN8lldb_rpc20SBTypeSummaryOptionsaSERKS0_, 
                       __ZN8lldb_rpc21SBCommandReturnObject12GetErrorSizeEv, 
                       __ZN8lldb_rpc21SBCommandReturnObject13GetOutputSizeEv, 
                       __ZN8lldb_rpc21SBCommandReturnObject8GetErrorEv, 
                       __ZN8lldb_rpc21SBCommandReturnObject9GetOutputEv, 
                       __ZN8lldb_rpc21SBCommandReturnObjectC1EOS0_, __ZN8lldb_rpc21SBCommandReturnObjectC1ERKN3rpc10ConnectionE, 
                       __ZN8lldb_rpc21SBCommandReturnObjectC1ERKS0_, __ZN8lldb_rpc21SBCommandReturnObjectC1Ev, 
                       __ZN8lldb_rpc21SBCommandReturnObjectC2EOS0_, __ZN8lldb_rpc21SBCommandReturnObjectC2ERKN3rpc10ConnectionE, 
                       __ZN8lldb_rpc21SBCommandReturnObjectC2ERKS0_, __ZN8lldb_rpc21SBCommandReturnObjectC2Ev, 
                       __ZN8lldb_rpc21SBCommandReturnObjectD1Ev, __ZN8lldb_rpc21SBCommandReturnObjectD2Ev, 
                       __ZN8lldb_rpc21SBCommandReturnObjectaSEOS0_, __ZN8lldb_rpc21SBCommandReturnObjectaSERKS0_, 
                       __ZN8lldb_rpc6SBData11GetByteSizeEv, __ZN8lldb_rpc6SBData11ReadRawDataERNS_7SBErrorEyPvm, 
                       __ZN8lldb_rpc6SBDataC1ERKS0_, __ZN8lldb_rpc6SBDataC1Ev, 
                       __ZN8lldb_rpc6SBDataC2ERKS0_, __ZN8lldb_rpc6SBDataC2Ev, 
                       __ZN8lldb_rpc6SBDataD1Ev, __ZN8lldb_rpc6SBDataD2Ev, 
                       __ZN8lldb_rpc6SBDataaSERKS0_, __ZN8lldb_rpc6SBType12GetTypeClassEv, 
                       __ZN8lldb_rpc6SBType13IsPointerTypeEv, __ZN8lldb_rpc6SBType14GetPointeeTypeEv, 
                       __ZN8lldb_rpc6SBType18GetDisplayTypeNameEv, __ZN8lldb_rpc6SBType25GetDirectBaseClassAtIndexEj, 
                       __ZN8lldb_rpc6SBType28GetNumberOfDirectBaseClassesEv, 
                       __ZN8lldb_rpc6SBType7GetNameEv, __ZN8lldb_rpc6SBTypeC1ERKS0_, 
                       __ZN8lldb_rpc6SBTypeC1Ev, __ZN8lldb_rpc6SBTypeC2ERKS0_, 
                       __ZN8lldb_rpc6SBTypeC2Ev, __ZN8lldb_rpc6SBTypeD1Ev, 
                       __ZN8lldb_rpc6SBTypeD2Ev, __ZN8lldb_rpc6SBTypeaSERKS0_, 
                       __ZN8lldb_rpc7SBError14GetDescriptionERNS_8SBStreamE, 
                       __ZN8lldb_rpc7SBErrorC1EOS0_, __ZN8lldb_rpc7SBErrorC1ERKN3rpc10ConnectionE, 
                       __ZN8lldb_rpc7SBErrorC1ERKS0_, __ZN8lldb_rpc7SBErrorC1Ev, 
                       __ZN8lldb_rpc7SBErrorC2EOS0_, __ZN8lldb_rpc7SBErrorC2ERKN3rpc10ConnectionE, 
                       __ZN8lldb_rpc7SBErrorC2ERKS0_, __ZN8lldb_rpc7SBErrorC2Ev, 
                       __ZN8lldb_rpc7SBErrorD1Ev, __ZN8lldb_rpc7SBErrorD2Ev, 
                       __ZN8lldb_rpc7SBErroraSEOS0_, __ZN8lldb_rpc7SBErroraSERKS0_, 
                       __ZN8lldb_rpc7SBEvent14GetDescriptionERNS_8SBStreamE, 
                       __ZN8lldb_rpc7SBEvent19GetCStringFromEventERKS0_, 
                       __ZN8lldb_rpc7SBEvent21BroadcasterMatchesRefERKNS_13SBBroadcasterE, 
                       __ZN8lldb_rpc7SBEventC1ERKN3rpc10ConnectionE, __ZN8lldb_rpc7SBEventC1ERKS0_, 
                       __ZN8lldb_rpc7SBEventC1Ev, __ZN8lldb_rpc7SBEventC2ERKN3rpc10ConnectionE, 
                       __ZN8lldb_rpc7SBEventC2ERKS0_, __ZN8lldb_rpc7SBEventC2Ev, 
                       __ZN8lldb_rpc7SBEventD1Ev, __ZN8lldb_rpc7SBEventD2Ev, 
                       __ZN8lldb_rpc7SBEventaSERKS0_, __ZN8lldb_rpc7SBFrame12FindVariableEPKcNS_16DynamicValueTypeE, 
                       __ZN8lldb_rpc7SBFrame12GetRegistersEv, __ZN8lldb_rpc7SBFrame12GetVariablesEbbbbNS_16DynamicValueTypeE, 
                       __ZN8lldb_rpc7SBFrame15GetFunctionNameEv, __ZN8lldb_rpc7SBFrame18EvaluateExpressionEPKc, 
                       __ZN8lldb_rpc7SBFrame18EvaluateExpressionEPKcNS_16DynamicValueTypeE, 
                       __ZN8lldb_rpc7SBFrame18EvaluateExpressionEPKcRKNS_19SBExpressionOptionsE, 
                       __ZN8lldb_rpc7SBFrame22GetDisplayFunctionNameEv, 
                       __ZN8lldb_rpc7SBFrame5SetPCEy, __ZN8lldb_rpc7SBFrame9FindValueEPKcNS_9ValueTypeENS_16DynamicValueTypeE, 
                       __ZN8lldb_rpc7SBFrame9IsInlinedEv, __ZN8lldb_rpc7SBFrameC1ERKS0_, 
                       __ZN8lldb_rpc7SBFrameC1Ev, __ZN8lldb_rpc7SBFrameC2ERKS0_, 
                       __ZN8lldb_rpc7SBFrameC2Ev, __ZN8lldb_rpc7SBFrameD1Ev, 
                       __ZN8lldb_rpc7SBFrameD2Ev, __ZN8lldb_rpc7SBFrameaSERKS0_, 
                       __ZN8lldb_rpc7SBQueue13GetNumThreadsEv, __ZN8lldb_rpc7SBQueue16GetThreadAtIndexEj, 
                       __ZN8lldb_rpc7SBQueue18GetNumPendingItemsEv, __ZN8lldb_rpc7SBQueue21GetPendingItemAtIndexEj, 
                       __ZN8lldb_rpc7SBQueue7GetKindEv, __ZN8lldb_rpc7SBQueueC1ERKS0_, 
                       __ZN8lldb_rpc7SBQueueC1Ev, __ZN8lldb_rpc7SBQueueC2ERKS0_, 
                       __ZN8lldb_rpc7SBQueueC2Ev, __ZN8lldb_rpc7SBQueueD1Ev, 
                       __ZN8lldb_rpc7SBQueueD2Ev, __ZN8lldb_rpc7SBQueueaSERKS0_, 
                       __ZN8lldb_rpc7SBValue10GetSummaryERNS_8SBStreamERNS_20SBTypeSummaryOptionsE, 
                       __ZN8lldb_rpc7SBValue10GetSummaryEv, __ZN8lldb_rpc7SBValue11GetTypeNameEv, 
                       __ZN8lldb_rpc7SBValue12GetValueTypeEv, __ZN8lldb_rpc7SBValue14GetDescriptionERNS_8SBStreamE, 
                       __ZN8lldb_rpc7SBValue14GetNumChildrenEv, __ZN8lldb_rpc7SBValue14GetStaticValueEv, 
                       __ZN8lldb_rpc7SBValue15GetChildAtIndexEjNS_16DynamicValueTypeEb, 
                       __ZN8lldb_rpc7SBValue16GetValueAsSignedEx, __ZN8lldb_rpc7SBValue17GetExpressionPathERNS_8SBStreamE, 
                       __ZN8lldb_rpc7SBValue17GetValueDidChangeEv, __ZN8lldb_rpc7SBValue17MightHaveChildrenEv, 
                       __ZN8lldb_rpc7SBValue19SetValueFromCStringEPKcRNS_7SBErrorE, 
                       __ZN8lldb_rpc7SBValue20GetObjectDescriptionEv, __ZN8lldb_rpc7SBValue22GetChildMemberWithNameEPKcNS_16DynamicValueTypeE, 
                       __ZN8lldb_rpc7SBValue5ClearEv, __ZN8lldb_rpc7SBValue7GetDataEv, 
                       __ZN8lldb_rpc7SBValue7GetNameEv, __ZN8lldb_rpc7SBValue7GetTypeEv, 
                       __ZN8lldb_rpc7SBValue7IsValidEv, __ZN8lldb_rpc7SBValue8GetErrorEv, 
                       __ZN8lldb_rpc7SBValue8GetValueEv, __ZN8lldb_rpc7SBValue9GetFormatEv, 
                       __ZN8lldb_rpc7SBValue9IsInScopeEv, __ZN8lldb_rpc7SBValue9SetFormatENS_6FormatE, 
                       __ZN8lldb_rpc7SBValueC1ERKS0_, __ZN8lldb_rpc7SBValueC1Ev, 
                       __ZN8lldb_rpc7SBValueC2ERKS0_, __ZN8lldb_rpc7SBValueC2Ev, 
                       __ZN8lldb_rpc7SBValueD1Ev, __ZN8lldb_rpc7SBValueD2Ev, 
                       __ZN8lldb_rpc7SBValueaSERKS0_, __ZN8lldb_rpc8SBHostOS11GetLLDBPathERKN3rpc10ConnectionENS_8PathTypeE, 
                       __ZN8lldb_rpc8SBHostOSC1ERKS0_, __ZN8lldb_rpc8SBHostOSC2ERKS0_, 
                       __ZN8lldb_rpc8SBHostOSaSERKS0_, __ZN8lldb_rpc8SBModule11FindSectionEPKc, 
                       __ZN8lldb_rpc8SBModule18GetNumCompileUnitsEv, __ZN8lldb_rpc8SBModule19SetPlatformFileSpecERKNS_10SBFileSpecE, 
                       __ZN8lldb_rpc8SBModuleC1ERKS0_, __ZN8lldb_rpc8SBModuleC1Ev, 
                       __ZN8lldb_rpc8SBModuleC2ERKS0_, __ZN8lldb_rpc8SBModuleC2Ev, 
                       __ZN8lldb_rpc8SBModuleD1Ev, __ZN8lldb_rpc8SBModuleD2Ev, 
                       __ZN8lldb_rpc8SBModuleaSERKS0_, __ZN8lldb_rpc8SBStream7GetDataEv, 
                       __ZN8lldb_rpc8SBStream7GetSizeEv, __ZN8lldb_rpc8SBStreamC1EOS0_, 
                       __ZN8lldb_rpc8SBStreamC1ERKN3rpc10ConnectionE, __ZN8lldb_rpc8SBStreamC1Ev, 
                       __ZN8lldb_rpc8SBStreamC2EOS0_, __ZN8lldb_rpc8SBStreamC2ERKN3rpc10ConnectionE, 
                       __ZN8lldb_rpc8SBStreamC2Ev, __ZN8lldb_rpc8SBStreamD1Ev, 
                       __ZN8lldb_rpc8SBStreamD2Ev, __ZN8lldb_rpc8SBStreamaSEOS0_, 
                       __ZN8lldb_rpc8SBSymbol15GetStartAddressEv, __ZN8lldb_rpc8SBSymbolC1ERKS0_, 
                       __ZN8lldb_rpc8SBSymbolC1Ev, __ZN8lldb_rpc8SBSymbolC2ERKS0_, 
                       __ZN8lldb_rpc8SBSymbolC2Ev, __ZN8lldb_rpc8SBSymbolD1Ev, 
                       __ZN8lldb_rpc8SBSymbolD2Ev, __ZN8lldb_rpc8SBSymbolaSERKS0_, 
                       __ZN8lldb_rpc8SBTarget10GetProcessEv, __ZN8lldb_rpc8SBTarget13ConnectRemoteERNS_10SBListenerEPKcS4_RNS_7SBErrorE, 
                       __ZN8lldb_rpc8SBTarget13GetExecutableEv, __ZN8lldb_rpc8SBTarget16BreakpointDeleteEi, 
                       __ZN8lldb_rpc8SBTarget16DeleteWatchpointEi, __ZN8lldb_rpc8SBTarget16GetModuleAtIndexEj, 
                       __ZN8lldb_rpc8SBTarget18FindBreakpointByIDEi, __ZN8lldb_rpc8SBTarget18FindWatchpointByIDEi, 
                       __ZN8lldb_rpc8SBTarget18ResolveLoadAddressEy, __ZN8lldb_rpc8SBTarget22BreakpointCreateByNameEPKcS2_, 
                       __ZN8lldb_rpc8SBTarget23BreakpointCreateByNamesEPPKcjjRKNS_14SBFileSpecListES6_, 
                       __ZN8lldb_rpc8SBTarget23FindFirstGlobalVariableEPKc, 
                       __ZN8lldb_rpc8SBTarget25BreakpointCreateByAddressEy, 
                       __ZN8lldb_rpc8SBTarget26BreakpointCreateByLocationEPKcj, 
                       __ZN8lldb_rpc8SBTarget28BreakpointCreateForExceptionENS_12LanguageTypeEbbRNS_12SBStringListE, 
                       __ZN8lldb_rpc8SBTarget5ClearEv, __ZN8lldb_rpc8SBTarget6AttachERNS_12SBAttachInfoERNS_7SBErrorE, 
                       __ZN8lldb_rpc8SBTarget6LaunchERNS_12SBLaunchInfoERNS_7SBErrorE, 
                       __ZN8lldb_rpc8SBTarget9AddModuleEPKcS2_S2_, __ZN8lldb_rpc8SBTargetC1ERKS0_, 
                       __ZN8lldb_rpc8SBTargetC1Ev, __ZN8lldb_rpc8SBTargetC2ERKS0_, 
                       __ZN8lldb_rpc8SBTargetC2Ev, __ZN8lldb_rpc8SBTargetD1Ev, 
                       __ZN8lldb_rpc8SBTargetD2Ev, __ZN8lldb_rpc8SBTargetaSERKS0_, 
                       __ZN8lldb_rpc8SBThread10GetProcessEv, __ZN8lldb_rpc8SBThread12GetNumFramesEv, 
                       __ZN8lldb_rpc8SBThread13GetStopReasonEv, __ZN8lldb_rpc8SBThread13StepOverUntilERNS_7SBFrameERNS_10SBFileSpecEj, 
                       __ZN8lldb_rpc8SBThread15GetFrameAtIndexEj, __ZN8lldb_rpc8SBThread15StepInstructionEb, 
                       __ZN8lldb_rpc8SBThread16GetSelectedFrameEv, __ZN8lldb_rpc8SBThread16SetSelectedFrameEj, 
                       __ZN8lldb_rpc8SBThread18EventIsThreadEventERKNS_7SBEventE, 
                       __ZN8lldb_rpc8SBThread18GetStopDescriptionEPcm, 
                       __ZN8lldb_rpc8SBThread18GetStopReturnValueEv, __ZN8lldb_rpc8SBThread23GetBroadcasterClassNameERKN3rpc10ConnectionE, 
                       __ZN8lldb_rpc8SBThread24GetStopReasonDataAtIndexEj, 
                       __ZN8lldb_rpc8SBThread25GetInfoItemByPathAsStringEPKcRNS_8SBStreamE, 
                       __ZN8lldb_rpc8SBThread26GetExtendedBacktraceThreadEPKc, 
                       __ZN8lldb_rpc8SBThread31GetStopReasonExtendedBacktracesENS_26InstrumentationRuntimeTypeE, 
                       __ZN8lldb_rpc8SBThread31GetStopReasonExtendedInfoAsJSONERNS_8SBStreamE, 
                       __ZN8lldb_rpc8SBThread38GetExtendedBacktraceOriginatingIndexIDEv, 
                       __ZN8lldb_rpc8SBThread6ResumeEv, __ZN8lldb_rpc8SBThread7StepOutEv, 
                       __ZN8lldb_rpc8SBThread7SuspendEv, __ZN8lldb_rpc8SBThread8StepIntoENS_7RunModeE, 
                       __ZN8lldb_rpc8SBThread8StepOverENS_7RunModeE, __ZN8lldb_rpc8SBThreadC1ERKS0_, 
                       __ZN8lldb_rpc8SBThreadC1Ev, __ZN8lldb_rpc8SBThreadC2ERKS0_, 
                       __ZN8lldb_rpc8SBThreadC2Ev, __ZN8lldb_rpc8SBThreadD1Ev, 
                       __ZN8lldb_rpc8SBThreadD2Ev, __ZN8lldb_rpc8SBThreadaSERKS0_, 
                       __ZN8lldb_rpc9SBAddress12GetLineEntryEv, __ZN8lldb_rpc9SBAddress16GetSymbolContextEj, 
                       __ZN8lldb_rpc9SBAddress9GetModuleEv, __ZN8lldb_rpc9SBAddress9GetOffsetEv, 
                       __ZN8lldb_rpc9SBAddress9GetSymbolEv, __ZN8lldb_rpc9SBAddressC1EOS0_, 
                       __ZN8lldb_rpc9SBAddressC1ERKN3rpc10ConnectionE, 
                       __ZN8lldb_rpc9SBAddressC1ERKS0_, __ZN8lldb_rpc9SBAddressC1Ev, 
                       __ZN8lldb_rpc9SBAddressC2EOS0_, __ZN8lldb_rpc9SBAddressC2ERKN3rpc10ConnectionE, 
                       __ZN8lldb_rpc9SBAddressC2ERKS0_, __ZN8lldb_rpc9SBAddressC2Ev, 
                       __ZN8lldb_rpc9SBAddressD1Ev, __ZN8lldb_rpc9SBAddressD2Ev, 
                       __ZN8lldb_rpc9SBAddressaSEOS0_, __ZN8lldb_rpc9SBAddressaSERKS0_, 
                       __ZN8lldb_rpc9SBProcess10ReadMemoryEyPvmRNS_7SBErrorE, 
                       __ZN8lldb_rpc9SBProcess12GetNumQueuesEv, __ZN8lldb_rpc9SBProcess12GetProcessIDEv, 
                       __ZN8lldb_rpc9SBProcess13GetExitStatusEv, __ZN8lldb_rpc9SBProcess13GetNumThreadsEv, 
                       __ZN8lldb_rpc9SBProcess13GetPluginNameEv, __ZN8lldb_rpc9SBProcess13SendEventDataEPKc, 
                       __ZN8lldb_rpc9SBProcess15GetQueueAtIndexEm, __ZN8lldb_rpc9SBProcess16GetThreadAtIndexEm, 
                       __ZN8lldb_rpc9SBProcess17GetHistoryThreadsEy, __ZN8lldb_rpc9SBProcess17GetStateFromEventERKNS_7SBEventE, 
                       __ZN8lldb_rpc9SBProcess17SetSelectedThreadERKNS_8SBThreadE, 
                       __ZN8lldb_rpc9SBProcess18GetExitDescriptionEv, __ZN8lldb_rpc9SBProcess18GetShortPluginNameEv, 
                       __ZN8lldb_rpc9SBProcess18SendAsyncInterruptEv, __ZN8lldb_rpc9SBProcess21GetRestartedFromEventERKNS_7SBEventE, 
                       __ZN8lldb_rpc9SBProcess26SetSelectedThreadByIndexIDEj, 
                       __ZN8lldb_rpc9SBProcess31IsInstrumentationRuntimePresentENS_26InstrumentationRuntimeTypeE, 
                       __ZN8lldb_rpc9SBProcess4KillEv, __ZN8lldb_rpc9SBProcess4StopEv, 
                       __ZN8lldb_rpc9SBProcess6DetachEb, __ZN8lldb_rpc9SBProcess6DetachEv, 
                       __ZN8lldb_rpc9SBProcess8ContinueEv, __ZN8lldb_rpc9SBProcess8GetStateEv, 
                       __ZN8lldb_rpc9SBProcess9LoadImageERNS_10SBFileSpecERNS_7SBErrorE, 
                       __ZN8lldb_rpc9SBProcessC1ERKS0_, __ZN8lldb_rpc9SBProcessC1Ev, 
                       __ZN8lldb_rpc9SBProcessC2ERKS0_, __ZN8lldb_rpc9SBProcessC2Ev, 
                       __ZN8lldb_rpc9SBProcessD1Ev, __ZN8lldb_rpc9SBProcessD2Ev, 
                       __ZN8lldb_rpc9SBProcessaSERKS0_, __ZN8lldb_rpc9SBSection14GetLoadAddressERNS_8SBTargetE, 
                       __ZN8lldb_rpc9SBSectionC1ERKS0_, __ZN8lldb_rpc9SBSectionC1Ev, 
                       __ZN8lldb_rpc9SBSectionC2ERKS0_, __ZN8lldb_rpc9SBSectionC2Ev, 
                       __ZN8lldb_rpc9SBSectionD1Ev, __ZN8lldb_rpc9SBSectionD2Ev, 
                       __ZN8lldb_rpc9SBSectionaSERKS0_, __ZN98_ZN4lldb19SBExpressionOptions17SetCancelCallbackEPFbNS_25ExpressionEvaluationPhaseEPvES2__callbackD0Ev, 
                       __ZN98_ZN4lldb19SBExpressionOptions17SetCancelCallbackEPFbNS_25ExpressionEvaluationPhaseEPvES2__callbackD1Ev, 
                       __ZN9PacketMap12ServerExitedEv, __ZN9PacketMap14JoinAllThreadsEv, 
                       __ZN9PacketMap14ShutdownThreadEy, __ZN9PacketMap15WaitForResponseERKN10rpc_common9RPCPacketERS1_, 
                       __ZN9PacketMap19GetPacketsForThreadEy, __ZN9PacketMap6AppendERN10rpc_common9RPCPacketE, 
                       __ZN9ThreadKey22g_thread_destroyed_keyE, __ZNK10rpc_common10Connection17GetTargetThreadIDEy, 
                       __ZNK10rpc_common10StringList3LogERNS_6StreamE, 
                       __ZNK10rpc_common10StringList6EncodeERNS_9RPCStreamE, 
                       __ZNK10rpc_common16ConstCharPointer3LogERNS_6StreamE, 
                       __ZNK10rpc_common5Bytes11GetAsStringEv, __ZNK10rpc_common5Bytes7GetSizeEv, 
                       __ZNK10rpc_common8RPCTimer22GetElapsedMircoSecondsEv, 
                       __ZNK10rpc_common9RPCPacket6EncodeERNS_9RPCStreamE, 
                       __ZNK10rpc_common9RPCStream3LogERNS_6StreamEmm, 
                       __ZNK10rpc_common9RPCStream4DumpEmm, __ZNK10rpc_common9RPCStream7GetDataEv, 
                       __ZNK10rpc_common9RPCStream7GetSizeEv, __ZNK3rpc10Connection11IsConnectedEv, 
                       __ZNK3rpc10Connection13GetConnectionEv, __ZNK3rpc10Connection15GetConnectionIDEv, 
                       __ZNK3rpc10Connection18GetServerProcessIDEv, __ZNK3rpc10Connection18SendFileDescriptorEi, 
                       __ZNK3rpc14LocalObjectRef14ObjectRefGetIDEv, __ZNK3rpc14LocalObjectRef16ObjectRefIsValidEv, 
                       __ZNK3rpc14LocalObjectRef19ObjectRefGetClassIDEv, 
                       __ZNK3rpc14LocalObjectRef21ObjectRefGetObjectPtrEv, 
                       __ZNK3rpc14LocalObjectRef22ObjectRefGetConnectionEv, 
                       __ZNK3rpc14LocalObjectRef24ObjectRefGetConnectionIDEv, 
                       __ZNK3rpc14LocalObjectRef24ObjectRefGetConnectionSPEv, 
                       __ZNK3rpc9ObjectRef14ObjectRefGetIDEv, __ZNK3rpc9ObjectRef16ObjectRefIsValidEv, 
                       __ZNK3rpc9ObjectRef19ObjectRefGetClassIDEv, __ZNK3rpc9ObjectRef22ObjectRefGetConnectionEv, 
                       __ZNK3rpc9ObjectRef24ObjectRefGetConnectionIDEv, 
                       __ZNK3rpc9ObjectRef24ObjectRefGetConnectionSPEv, 
                       __ZNK8lldb_rpc10SBDebugger7IsValidEv, __ZNK8lldb_rpc10SBDebugger9GetPromptEv, 
                       __ZNK8lldb_rpc10SBFileSpec11GetFilenameEv, __ZNK8lldb_rpc10SBFileSpec12GetDirectoryEv, 
                       __ZNK8lldb_rpc10SBFileSpec6ExistsEv, __ZNK8lldb_rpc10SBFileSpec7GetPathEPcm, 
                       __ZNK8lldb_rpc11SBLineEntry11GetFileSpecEv, __ZNK8lldb_rpc11SBLineEntry15GetStartAddressEv, 
                       __ZNK8lldb_rpc11SBLineEntry7GetLineEv, __ZNK8lldb_rpc11SBLineEntry7IsValidEv, 
                       __ZNK8lldb_rpc11SBQueueItem10GetAddressEv, __ZNK8lldb_rpc11SBQueueItem7IsValidEv, 
                       __ZNK8lldb_rpc11SBValueList15GetValueAtIndexEj, 
                       __ZNK8lldb_rpc11SBValueList7GetSizeEv, __ZNK8lldb_rpc12SBBreakpoint11GetHitCountEv, 
                       __ZNK8lldb_rpc12SBBreakpoint15GetNumLocationsEv, 
                       __ZNK8lldb_rpc12SBBreakpoint5GetIDEv, __ZNK8lldb_rpc12SBBreakpoint7IsValidEv, 
                       __ZNK8lldb_rpc12SBStringList7GetSizeEv, __ZNK8lldb_rpc12SBWatchpoint7IsValidEv, 
                       __ZNK8lldb_rpc13SBBroadcaster7IsValidEv, __ZNK8lldb_rpc13SBCompileUnit18FindLineEntryIndexEjjPNS_10SBFileSpecE, 
                       __ZNK8lldb_rpc13SBCompileUnit18FindLineEntryIndexEjjPNS_10SBFileSpecEb, 
                       __ZNK8lldb_rpc13SBCompileUnit19GetLineEntryAtIndexEj, 
                       __ZNK8lldb_rpc13SBCompileUnit7IsValidEv, __ZNK8lldb_rpc20SBBreakpointLocation7IsValidEv, 
                       __ZNK8lldb_rpc6SBType7IsValidEv, __ZNK8lldb_rpc7SBError10GetCStringEv, 
                       __ZNK8lldb_rpc7SBError4FailEv, __ZNK8lldb_rpc7SBError7GetTypeEv, 
                       __ZNK8lldb_rpc7SBError7SuccessEv, __ZNK8lldb_rpc7SBError8GetErrorEv, 
                       __ZNK8lldb_rpc7SBEvent7GetTypeEv, __ZNK8lldb_rpc7SBFrame10GetFrameIDEv, 
                       __ZNK8lldb_rpc7SBFrame11DisassembleEv, __ZNK8lldb_rpc7SBFrame12GetLineEntryEv, 
                       __ZNK8lldb_rpc7SBFrame14GetCompileUnitEv, __ZNK8lldb_rpc7SBFrame16GetSymbolContextEj, 
                       __ZNK8lldb_rpc7SBFrame5GetFPEv, __ZNK8lldb_rpc7SBFrame5GetPCEv, 
                       __ZNK8lldb_rpc7SBFrame7IsValidEv, __ZNK8lldb_rpc7SBFrame9GetThreadEv, 
                       __ZNK8lldb_rpc7SBFrameeqERKS0_, __ZNK8lldb_rpc7SBQueue10GetQueueIDEv, 
                       __ZNK8lldb_rpc7SBQueue7GetNameEv, __ZNK8lldb_rpc7SBQueue7IsValidEv, 
                       __ZNK8lldb_rpc8SBModule11GetFileSpecEv, __ZNK8lldb_rpc8SBModule12GetUUIDBytesEv, 
                       __ZNK8lldb_rpc8SBModule13GetUUIDStringEv, __ZNK8lldb_rpc8SBModule7IsValidEv, 
                       __ZNK8lldb_rpc8SBModuleeqERKS0_, __ZNK8lldb_rpc8SBSymbol7GetNameEv, 
                       __ZNK8lldb_rpc8SBSymbol7IsValidEv, __ZNK8lldb_rpc8SBTarget11GetDebuggerEv, 
                       __ZNK8lldb_rpc8SBTarget13GetNumModulesEv, __ZNK8lldb_rpc8SBTarget14GetBroadcasterEv, 
                       __ZNK8lldb_rpc8SBTarget17GetNumWatchpointsEv, __ZNK8lldb_rpc8SBTarget20GetWatchpointAtIndexEj, 
                       __ZNK8lldb_rpc8SBTarget7IsValidEv, __ZNK8lldb_rpc8SBThread10GetIndexIDEv, 
                       __ZNK8lldb_rpc8SBThread10GetQueueIDEv, __ZNK8lldb_rpc8SBThread11GetThreadIDEv, 
                       __ZNK8lldb_rpc8SBThread12GetQueueNameEv, __ZNK8lldb_rpc8SBThread7GetNameEv, 
                       __ZNK8lldb_rpc8SBThread7IsValidEv, __ZNK8lldb_rpc8SBThread9GetStatusERNS_8SBStreamE, 
                       __ZNK8lldb_rpc8SBThreadeqERKS0_, __ZNK8lldb_rpc8SBThreadneERKS0_, 
                       __ZNK8lldb_rpc9SBAddress14GetLoadAddressERKNS_8SBTargetE, 
                       __ZNK8lldb_rpc9SBProcess14GetBroadcasterEv, __ZNK8lldb_rpc9SBProcess17GetSelectedThreadEv, 
                       __ZNK8lldb_rpc9SBProcess18GetAddressByteSizeEv, 
                       __ZNK8lldb_rpc9SBProcess19GetAsyncProfileDataEPcm, 
                       __ZNK8lldb_rpc9SBProcess7IsValidEv, __ZNK8lldb_rpc9SBProcess9GetSTDERREPcm, 
                       __ZNK8lldb_rpc9SBProcess9GetSTDOUTEPcm, __ZNK8lldb_rpc9SBProcess9GetTargetEv, 
                       '__ZNKSt3__110__function6__funcIZN10rpc_common10Connection19SetIOFileDescriptorEiE3$_1NS_9allocatorIS4_EEFbPKvmEE11target_typeEv', 
                       '__ZNKSt3__110__function6__funcIZN10rpc_common10Connection19SetIOFileDescriptorEiE3$_1NS_9allocatorIS4_EEFbPKvmEE6targetERKSt9type_info', 
                       '__ZNKSt3__110__function6__funcIZN10rpc_common10Connection19SetIOFileDescriptorEiE3$_1NS_9allocatorIS4_EEFbPKvmEE7__cloneEPNS0_6__baseIS9_EE', 
                       '__ZNKSt3__110__function6__funcIZN10rpc_common10Connection19SetIOFileDescriptorEiE3$_1NS_9allocatorIS4_EEFbPKvmEE7__cloneEv', 
                       '__ZNSt3__110__function6__funcIZN10rpc_common10Connection19SetIOFileDescriptorEiE3$_1NS_9allocatorIS4_EEFbPKvmEE18destroy_deallocateEv', 
                       '__ZNSt3__110__function6__funcIZN10rpc_common10Connection19SetIOFileDescriptorEiE3$_1NS_9allocatorIS4_EEFbPKvmEE7destroyEv', 
                       '__ZNSt3__110__function6__funcIZN10rpc_common10Connection19SetIOFileDescriptorEiE3$_1NS_9allocatorIS4_EEFbPKvmEED0Ev', 
                       '__ZNSt3__110__function6__funcIZN10rpc_common10Connection19SetIOFileDescriptorEiE3$_1NS_9allocatorIS4_EEFbPKvmEED1Ev', 
                       '__ZNSt3__110__function6__funcIZN10rpc_common10Connection19SetIOFileDescriptorEiE3$_1NS_9allocatorIS4_EEFbPKvmEEclEOS8_Om', 
                       __ZNSt3__113__vector_baseIPKcNS_9allocatorIS2_EEED2Ev, 
                       __ZNSt3__114__split_bufferIPN10rpc_common9RPCPacketERNS_9allocatorIS3_EEE10push_frontERKS3_, 
                       __ZNSt3__114__split_bufferIPN10rpc_common9RPCPacketERNS_9allocatorIS3_EEE9push_backEOS3_, 
                       '__ZNSt3__114__thread_proxyINS_5tupleIJZN10rpc_common10Connection15AdoptUnixSocketEiE3$_0EEEEEPvS6_', 
                       '__ZNSt3__114__thread_proxyINS_5tupleIJZN10rpc_common10Connection21SpawnRPCServerProcessEvE3$_2EEEEEPvS6_', 
                       '__ZNSt3__114__thread_proxyINS_5tupleIJZN8IOReader15StartReadThreadENS_8functionIFbPKvmEEEE3$_0EEEEEPvSA_', 
                       '__ZNSt3__117__call_once_proxyINS_5tupleIJOZN10rpc_client10InitializeEvE3$_0EEEEEvPv', 
                       '__ZNSt3__117__call_once_proxyINS_5tupleIJOZN3rpc18GetProgramBasenameEvE3$_0EEEEEvPv', 
                       __ZNSt3__120__shared_ptr_pointerIP110_ZN4lldb12SBBreakpoint11SetCallbackEPFbPvRNS_9SBProcessERNS_8SBThreadERNS_20SBBreakpointLocationEES1__callbackNS_14default_deleteIS1_EENS_9allocatorIS1_EEE16__on_zero_sharedEv, 
                       __ZNSt3__120__shared_ptr_pointerIP110_ZN4lldb12SBBreakpoint11SetCallbackEPFbPvRNS_9SBProcessERNS_8SBThreadERNS_20SBBreakpointLocationEES1__callbackNS_14default_deleteIS1_EENS_9allocatorIS1_EEE21__on_zero_shared_weakEv, 
                       __ZNSt3__120__shared_ptr_pointerIP110_ZN4lldb12SBBreakpoint11SetCallbackEPFbPvRNS_9SBProcessERNS_8SBThreadERNS_20SBBreakpointLocationEES1__callbackNS_14default_deleteIS1_EENS_9allocatorIS1_EEED0Ev, 
                       __ZNSt3__120__shared_ptr_pointerIP110_ZN4lldb12SBBreakpoint11SetCallbackEPFbPvRNS_9SBProcessERNS_8SBThreadERNS_20SBBreakpointLocationEES1__callbackNS_14default_deleteIS1_EENS_9allocatorIS1_EEED1Ev, 
                       __ZNSt3__120__shared_ptr_pointerIP50_ZN4lldb10SBDebugger6CreateEbPFvPKcPvES3__callbackNS_14default_deleteIS1_EENS_9allocatorIS1_EEE21__on_zero_shared_weakEv, 
                       __ZNSt3__120__shared_ptr_pointerIP50_ZN4lldb10SBDebugger6CreateEbPFvPKcPvES3__callbackNS_14default_deleteIS1_EENS_9allocatorIS1_EEED0Ev, 
                       __ZNSt3__120__shared_ptr_pointerIP50_ZN4lldb10SBDebugger6CreateEbPFvPKcPvES3__callbackNS_14default_deleteIS1_EENS_9allocatorIS1_EEED1Ev, 
                       __ZNSt3__120__shared_ptr_pointerIP84_ZN4lldb20SBCommandInterpreter26SetCommandOverrideCallbackEPKcPFbPvPS2_ES3__callbackNS_14default_deleteIS1_EENS_9allocatorIS1_EEE16__on_zero_sharedEv, 
                       __ZNSt3__120__shared_ptr_pointerIP84_ZN4lldb20SBCommandInterpreter26SetCommandOverrideCallbackEPKcPFbPvPS2_ES3__callbackNS_14default_deleteIS1_EENS_9allocatorIS1_EEE21__on_zero_shared_weakEv, 
                       __ZNSt3__120__shared_ptr_pointerIP84_ZN4lldb20SBCommandInterpreter26SetCommandOverrideCallbackEPKcPFbPvPS2_ES3__callbackNS_14default_deleteIS1_EENS_9allocatorIS1_EEED0Ev, 
                       __ZNSt3__120__shared_ptr_pointerIP84_ZN4lldb20SBCommandInterpreter26SetCommandOverrideCallbackEPKcPFbPvPS2_ES3__callbackNS_14default_deleteIS1_EENS_9allocatorIS1_EEED1Ev, 
                       __ZNSt3__120__shared_ptr_pointerIP98_ZN4lldb19SBExpressionOptions17SetCancelCallbackEPFbNS_25ExpressionEvaluationPhaseEPvES2__callbackNS_14default_deleteIS1_EENS_9allocatorIS1_EEE16__on_zero_sharedEv, 
                       __ZNSt3__120__shared_ptr_pointerIP98_ZN4lldb19SBExpressionOptions17SetCancelCallbackEPFbNS_25ExpressionEvaluationPhaseEPvES2__callbackNS_14default_deleteIS1_EENS_9allocatorIS1_EEE21__on_zero_shared_weakEv, 
                       __ZNSt3__120__shared_ptr_pointerIP98_ZN4lldb19SBExpressionOptions17SetCancelCallbackEPFbNS_25ExpressionEvaluationPhaseEPvES2__callbackNS_14default_deleteIS1_EENS_9allocatorIS1_EEED0Ev, 
                       __ZNSt3__120__shared_ptr_pointerIP98_ZN4lldb19SBExpressionOptions17SetCancelCallbackEPFbNS_25ExpressionEvaluationPhaseEPvES2__callbackNS_14default_deleteIS1_EENS_9allocatorIS1_EEED1Ev, 
                       __ZNSt3__120__shared_ptr_pointerIPN3rpc9ObjectRefENS_14default_deleteIS2_EENS_9allocatorIS2_EEE21__on_zero_shared_weakEv, 
                       __ZNSt3__120__shared_ptr_pointerIPN3rpc9ObjectRefENS_14default_deleteIS2_EENS_9allocatorIS2_EEED0Ev, 
                       __ZNSt3__120__shared_ptr_pointerIPN3rpc9ObjectRefENS_14default_deleteIS2_EENS_9allocatorIS2_EEED1Ev, 
                       __ZNSt3__16__treeINS_12__value_typeIN10rpc_common15RPCFunctionInfoENS_10shared_ptrINS2_19RPCFunctionInstanceEEEEENS_19__map_value_compareIS3_S7_NS_4lessIS3_EELb1EEENS_9allocatorIS7_EEE16__insert_node_atEPNS_16__tree_node_baseIPvEERSI_SI_, 
                       __ZNSt3__16__treeINS_12__value_typeIyN13ThreadCallMap5ValueEEENS_19__map_value_compareIyS4_NS_4lessIyEELb1EEENS_9allocatorIS4_EEE4findIyEENS_15__tree_iteratorIS4_PNS_11__tree_nodeIS4_PvEElEERKT_, 
                       __ZNSt3__16__treeINS_12__value_typeIyN13ThreadCallMap5ValueEEENS_19__map_value_compareIyS4_NS_4lessIyEELb1EEENS_9allocatorIS4_EEE7destroyEPNS_11__tree_nodeIS4_PvEE, 
                       __ZNSt3__16__treeINS_12__value_typeIyNS_10unique_ptrI7PacketsNS_14default_deleteIS3_EEEEEENS_19__map_value_compareIyS7_NS_4lessIyEELb1EEENS_9allocatorIS7_EEE16__insert_node_atEPNS_16__tree_node_baseIPvEERSI_SI_, 
                       __ZNSt3__16__treeINS_12__value_typeIyNS_10unique_ptrI7PacketsNS_14default_deleteIS3_EEEEEENS_19__map_value_compareIyS7_NS_4lessIyEELb1EEENS_9allocatorIS7_EEE4findIyEENS_15__tree_iteratorIS7_PNS_11__tree_nodeIS7_PvEElEERKT_, 
                       __ZNSt3__16__treeINS_12basic_stringIcNS_11char_traitsIcEENS_9allocatorIcEEEENS_4lessIS6_EENS4_IS6_EEE16__insert_node_atEPNS_16__tree_node_baseIPvEERSE_SE_, 
                       __ZNSt3__16__treeINS_4pairIPFvPvRN3rpc10ConnectionEES2_EENS_4lessIS8_EENS_9allocatorIS8_EEE16__insert_node_atEPNS_16__tree_node_baseIS2_EERSG_SG_, 
                       __ZNSt3__16vectorINS_4pairIjjEENS_9allocatorIS2_EEE26__swap_out_circular_bufferERNS_14__split_bufferIS2_RS4_EE, 
                       __ZNSt3__16vectorIPKcNS_9allocatorIS2_EEE21__push_back_slow_pathIS2_EEvOT_, 
                       __ZNSt3__16vectorIPKcNS_9allocatorIS2_EEE26__swap_out_circular_bufferERNS_14__split_bufferIS2_RS4_EE, 
                       __ZTIN10rpc_common19RPCConnectionSocketE, __ZTIN10rpc_common19RPCFunctionInstanceE, 
                       '__ZTINSt3__110__function6__funcIZN10rpc_common10Connection19SetIOFileDescriptorEiE3$_1NS_9allocatorIS4_EEFbPKvmEEE', 
                       '__ZTIZN10rpc_common10Connection19SetIOFileDescriptorEiE3$_1', 
                       __ZTSN10rpc_common19RPCConnectionSocketE, __ZTSN10rpc_common19RPCFunctionInstanceE, 
                       '__ZTSNSt3__110__function6__funcIZN10rpc_common10Connection19SetIOFileDescriptorEiE3$_1NS_9allocatorIS4_EEFbPKvmEEE', 
                       '__ZTSZN10rpc_common10Connection19SetIOFileDescriptorEiE3$_1', 
                       __ZTVN10rpc_common19RPCConnectionSocketE, __ZTVN10rpc_common19RPCFunctionInstanceE, 
                       '__ZTVNSt3__110__function6__funcIZN10rpc_common10Connection19SetIOFileDescriptorEiE3$_1NS_9allocatorIS4_EEFbPKvmEEE', 
                       __ZZN10rpc_client10InitializeEvE11g_once_flag, __ZZN10rpc_common9RPCPacket12UpdateHeaderEjE13g_sequence_id, 
                       __ZZN3rpc18GetProgramBasenameEvE11g_once_flag, __ZZN3rpc18GetProgramBasenameEvE18g_program_basename, 
                       __ZZN3rpc18GetProgramBasenameEvE18g_program_fullpath, 
                       __ZZN8lldb_rpc10SBDebugger10InitializeERKN3rpc10ConnectionEE6g_func, 
                       __ZZN8lldb_rpc10SBDebugger11GetListenerEvE6g_func, 
                       __ZZN8lldb_rpc10SBDebugger12CreateTargetEPKcS2_S2_bRNS_7SBErrorEE6g_func, 
                       __ZZN8lldb_rpc10SBDebugger13GetNumTargetsEvE6g_func, 
                       __ZZN8lldb_rpc10SBDebugger13HandleCommandEPKcE6g_func, 
                       __ZZN8lldb_rpc10SBDebugger14StateAsCStringENS_9StateTypeEE20unknown_state_string, 
                       __ZZN8lldb_rpc10SBDebugger16GetTargetAtIndexEjE6g_func, 
                       __ZZN8lldb_rpc10SBDebugger17SetSelectedTargetERNS_8SBTargetEE6g_func, 
                       __ZZN8lldb_rpc10SBDebugger18SetCurrentPlatformEPKcE6g_func, 
                       __ZZN8lldb_rpc10SBDebugger21GetCommandInterpreterEvE6g_func, 
                       __ZZN8lldb_rpc10SBDebugger21RunCommandInterpreterEbbE6g_func, 
                       __ZZN8lldb_rpc10SBDebugger22MemoryPressureDetectedEvE6g_func, 
                       __ZZN8lldb_rpc10SBDebugger25SetCurrentPlatformSDKRootEPKcE6g_func, 
                       __ZZN8lldb_rpc10SBDebugger6CreateERKN3rpc10ConnectionEbPFvPKcPvES7_E6g_func, 
                       __ZZN8lldb_rpc10SBDebugger7DestroyERS0_E6g_func, 
                       __ZZN8lldb_rpc10SBDebugger9EnableLogEPKcPS2_E6g_func, 
                       __ZZN8lldb_rpc10SBDebugger9SetIOFileEPKcE6g_func, 
                       __ZZN8lldb_rpc10SBFileSpecC1ERKN3rpc10ConnectionEPKcE6g_func, 
                       __ZZN8lldb_rpc10SBFileSpecC1ERKN3rpc10ConnectionEPKcbE6g_func, 
                       __ZZN8lldb_rpc10SBListener12GetNextEventERNS_7SBEventEE6g_func, 
                       __ZZN8lldb_rpc10SBListener12WaitForEventEjRNS_7SBEventEE6g_func, 
                       __ZZN8lldb_rpc10SBListener23StartListeningForEventsERKNS_13SBBroadcasterEjE6g_func, 
                       __ZZN8lldb_rpc10SBListener27StartListeningForEventClassERNS_10SBDebuggerEPKcjE6g_func, 
                       __ZZN8lldb_rpc11SBLineEntryC1ERKN3rpc10ConnectionEE6g_func, 
                       __ZZN8lldb_rpc11SBQueueItem26GetExtendedBacktraceThreadEPKcE6g_func, 
                       __ZZN8lldb_rpc12SBAttachInfo17SetIgnoreExistingEbE6g_func, 
                       __ZZN8lldb_rpc12SBAttachInfo9SetUserIDEjE6g_func, 
                       __ZZN8lldb_rpc12SBAttachInfoC1ERKN3rpc10ConnectionEE6g_func, 
                       __ZZN8lldb_rpc12SBAttachInfoC1ERKN3rpc10ConnectionEPKcbE6g_func, 
                       __ZZN8lldb_rpc12SBAttachInfoC1ERKN3rpc10ConnectionEPKcbbE6g_func, 
                       __ZZN8lldb_rpc12SBAttachInfoC1ERKN3rpc10ConnectionEyE6g_func, 
                       __ZZN8lldb_rpc12SBBreakpoint10SetEnabledEbE6g_func, 
                       __ZZN8lldb_rpc12SBBreakpoint11SetCallbackEPFbPvRNS_9SBProcessERNS_8SBThreadERNS_20SBBreakpointLocationEES1_E6g_func, 
                       __ZZN8lldb_rpc12SBBreakpoint12SetConditionEPKcE6g_func, 
                       __ZZN8lldb_rpc12SBBreakpoint14GetDescriptionERNS_8SBStreamEE6g_func, 
                       __ZZN8lldb_rpc12SBBreakpoint14SetIgnoreCountEjE6g_func, 
                       __ZZN8lldb_rpc12SBBreakpoint16FindLocationByIDEiE6g_func, 
                       __ZZN8lldb_rpc12SBBreakpoint18GetLocationAtIndexEjE6g_func, 
                       __ZZN8lldb_rpc12SBBreakpoint22GetBreakpointFromEventERKNS_7SBEventEE6g_func, 
                       __ZZN8lldb_rpc12SBBreakpoint31GetBreakpointEventTypeFromEventERKNS_7SBEventEE6g_func, 
                       __ZZN8lldb_rpc12SBBreakpoint34GetNumBreakpointLocationsFromEventERKNS_7SBEventEE6g_func, 
                       __ZZN8lldb_rpc12SBBreakpoint37GetBreakpointLocationAtIndexFromEventERKNS_7SBEventEjE6g_func, 
                       __ZZN8lldb_rpc12SBBreakpoint9IsEnabledEvE6g_func, 
                       __ZZN8lldb_rpc12SBLaunchInfo12SetArgumentsEPPKcbE6g_func, 
                       __ZZN8lldb_rpc12SBLaunchInfo14SetLaunchFlagsEjE6g_func, 
                       __ZZN8lldb_rpc12SBLaunchInfo17AddOpenFileActionEiPKcbbE6g_func, 
                       __ZZN8lldb_rpc12SBLaunchInfo17SetExecutableFileENS_10SBFileSpecEbE6g_func, 
                       __ZZN8lldb_rpc12SBLaunchInfo18SetLaunchEventDataEPKcE6g_func, 
                       __ZZN8lldb_rpc12SBLaunchInfo19SetWorkingDirectoryEPKcE6g_func, 
                       __ZZN8lldb_rpc12SBLaunchInfo21SetEnvironmentEntriesEPPKcbE6g_func, 
                       __ZZN8lldb_rpc12SBLaunchInfo9SetUserIDEjE6g_func, 
                       __ZZN8lldb_rpc12SBLaunchInfoC1ERKN3rpc10ConnectionEPPKcE6g_func, 
                       __ZZN8lldb_rpc12SBStringList12AppendStringEPKcE6g_func, 
                       __ZZN8lldb_rpc12SBStringList16GetStringAtIndexEmE6g_func, 
                       __ZZN8lldb_rpc12SBStringListC1ERKN3rpc10ConnectionEE6g_func, 
                       __ZZN8lldb_rpc12SBTypeMember7GetTypeEvE6g_func, 
                       __ZZN8lldb_rpc12SBWatchpoint10SetEnabledEbE6g_func, 
                       __ZZN8lldb_rpc12SBWatchpoint5GetIDEvE6g_func, __ZZN8lldb_rpc13SBBroadcaster11AddListenerERKNS_10SBListenerEjE6g_func, 
                       __ZZN8lldb_rpc13SBBroadcaster14RemoveListenerERKNS_10SBListenerEjE6g_func, 
                       __ZZN8lldb_rpc13SBBroadcaster20BroadcastEventByTypeEjbE6g_func, 
                       __ZZN8lldb_rpc13SBBroadcasterC1ERN3rpc10ConnectionEPKcE6g_func, 
                       __ZZN8lldb_rpc15SBSymbolContext12GetLineEntryEvE6g_func, 
                       __ZZN8lldb_rpc15SBSymbolContext9GetModuleEvE6g_func, 
                       __ZZN8lldb_rpc15SBSymbolContext9GetSymbolEvE6g_func, 
                       __ZZN8lldb_rpc18SBThreadCollection16GetThreadAtIndexEmE6g_func, 
                       __ZZN8lldb_rpc18SBThreadCollection7GetSizeEvE6g_func, 
                       __ZZN8lldb_rpc19SBExpressionOptions11SetLanguageENS_12LanguageTypeEE6g_func, 
                       __ZZN8lldb_rpc19SBExpressionOptions13SetStopOthersEbE6g_func, 
                       __ZZN8lldb_rpc19SBExpressionOptions16SetTryAllThreadsEbE6g_func, 
                       __ZZN8lldb_rpc19SBExpressionOptions16SetUnwindOnErrorEbE6g_func, 
                       __ZZN8lldb_rpc19SBExpressionOptions17SetCancelCallbackEPFbNS_25ExpressionEvaluationPhaseEPvES2_E6g_func, 
                       __ZZN8lldb_rpc19SBExpressionOptions17SetTrapExceptionsEbE6g_func, 
                       __ZZN8lldb_rpc19SBExpressionOptions18SetAutoApplyFixItsEbE6g_func, 
                       __ZZN8lldb_rpc19SBExpressionOptions20SetFetchDynamicValueENS_16DynamicValueTypeEE6g_func, 
                       __ZZN8lldb_rpc19SBExpressionOptions20SetGenerateDebugInfoEbE6g_func, 
                       __ZZN8lldb_rpc19SBExpressionOptions20SetIgnoreBreakpointsEbE6g_func, 
                       __ZZN8lldb_rpc19SBExpressionOptions24SetTimeoutInMicroSecondsEjE6g_func, 
                       __ZZN8lldb_rpc19SBExpressionOptions29SetPlaygroundTransformEnabledEbE6g_func, 
                       __ZZN8lldb_rpc19SBExpressionOptionsC1ERKN3rpc10ConnectionEE6g_func, 
                       __ZZN8lldb_rpc20SBBreakpointLocation10GetAddressEvE6g_func, 
                       __ZZN8lldb_rpc20SBBreakpointLocation10SetEnabledEbE6g_func, 
                       __ZZN8lldb_rpc20SBBreakpointLocation12GetConditionEvE6g_func, 
                       __ZZN8lldb_rpc20SBBreakpointLocation12SetConditionEPKcE6g_func, 
                       __ZZN8lldb_rpc20SBBreakpointLocation13GetBreakpointEvE6g_func, 
                       __ZZN8lldb_rpc20SBBreakpointLocation14GetIgnoreCountEvE6g_func, 
                       __ZZN8lldb_rpc20SBBreakpointLocation14SetIgnoreCountEjE6g_func, 
                       __ZZN8lldb_rpc20SBBreakpointLocation5GetIDEvE6g_func, 
                       __ZZN8lldb_rpc20SBBreakpointLocation9IsEnabledEvE6g_func, 
                       __ZZN8lldb_rpc20SBCommandInterpreter13HandleCommandEPKcRNS_21SBCommandReturnObjectEbE6g_func, 
                       __ZZN8lldb_rpc20SBCommandInterpreter14GetBroadcasterEvE6g_func, 
                       __ZZN8lldb_rpc20SBCommandInterpreter16HandleCompletionEPKcjiiRNS_12SBStringListEE6g_func, 
                       __ZZN8lldb_rpc20SBCommandInterpreter26SetCommandOverrideCallbackEPKcPFbPvPS2_ES3_E6g_func, 
                       __ZZN8lldb_rpc20SBCommandInterpreter8IsActiveEvE6g_func, 
                       __ZZN8lldb_rpc20SBTypeSummaryOptions10SetCappingENS_18TypeSummaryCappingEE6g_func, 
                       __ZZN8lldb_rpc20SBTypeSummaryOptionsC1ERKN3rpc10ConnectionEE6g_func, 
                       __ZZN8lldb_rpc21SBCommandReturnObject12GetErrorSizeEvE6g_func, 
                       __ZZN8lldb_rpc21SBCommandReturnObject13GetOutputSizeEvE6g_func, 
                       __ZZN8lldb_rpc21SBCommandReturnObject8GetErrorEvE6g_func, 
                       __ZZN8lldb_rpc21SBCommandReturnObject9GetOutputEvE6g_func, 
                       __ZZN8lldb_rpc21SBCommandReturnObjectC1ERKN3rpc10ConnectionEE6g_func, 
                       __ZZN8lldb_rpc6SBData11GetByteSizeEvE6g_func, __ZZN8lldb_rpc6SBData11ReadRawDataERNS_7SBErrorEyPvmE6g_func, 
                       __ZZN8lldb_rpc6SBType12GetTypeClassEvE6g_func, __ZZN8lldb_rpc6SBType13IsPointerTypeEvE6g_func, 
                       __ZZN8lldb_rpc6SBType14GetPointeeTypeEvE6g_func, 
                       __ZZN8lldb_rpc6SBType18GetDisplayTypeNameEvE6g_func, 
                       __ZZN8lldb_rpc6SBType25GetDirectBaseClassAtIndexEjE6g_func, 
                       __ZZN8lldb_rpc6SBType28GetNumberOfDirectBaseClassesEvE6g_func, 
                       __ZZN8lldb_rpc6SBType7GetNameEvE6g_func, __ZZN8lldb_rpc7SBError14GetDescriptionERNS_8SBStreamEE6g_func, 
                       __ZZN8lldb_rpc7SBErrorC1ERKN3rpc10ConnectionEE6g_func, 
                       __ZZN8lldb_rpc7SBEvent14GetDescriptionERNS_8SBStreamEE6g_func, 
                       __ZZN8lldb_rpc7SBEvent19GetCStringFromEventERKS0_E6g_func, 
                       __ZZN8lldb_rpc7SBEvent21BroadcasterMatchesRefERKNS_13SBBroadcasterEE6g_func, 
                       __ZZN8lldb_rpc7SBEventC1ERKN3rpc10ConnectionEE6g_func, 
                       __ZZN8lldb_rpc7SBFrame12FindVariableEPKcNS_16DynamicValueTypeEE6g_func, 
                       __ZZN8lldb_rpc7SBFrame12GetRegistersEvE6g_func, 
                       __ZZN8lldb_rpc7SBFrame12GetVariablesEbbbbNS_16DynamicValueTypeEE6g_func, 
                       __ZZN8lldb_rpc7SBFrame15GetFunctionNameEvE6g_func, 
                       __ZZN8lldb_rpc7SBFrame18EvaluateExpressionEPKcE6g_func, 
                       __ZZN8lldb_rpc7SBFrame18EvaluateExpressionEPKcNS_16DynamicValueTypeEE6g_func, 
                       __ZZN8lldb_rpc7SBFrame18EvaluateExpressionEPKcRKNS_19SBExpressionOptionsEE6g_func, 
                       __ZZN8lldb_rpc7SBFrame22GetDisplayFunctionNameEvE6g_func, 
                       __ZZN8lldb_rpc7SBFrame5SetPCEyE6g_func, __ZZN8lldb_rpc7SBFrame9FindValueEPKcNS_9ValueTypeENS_16DynamicValueTypeEE6g_func, 
                       __ZZN8lldb_rpc7SBFrame9IsInlinedEvE6g_func, __ZZN8lldb_rpc7SBQueue13GetNumThreadsEvE6g_func, 
                       __ZZN8lldb_rpc7SBQueue16GetThreadAtIndexEjE6g_func, 
                       __ZZN8lldb_rpc7SBQueue18GetNumPendingItemsEvE6g_func, 
                       __ZZN8lldb_rpc7SBQueue21GetPendingItemAtIndexEjE6g_func, 
                       __ZZN8lldb_rpc7SBQueue7GetKindEvE6g_func, __ZZN8lldb_rpc7SBValue10GetSummaryERNS_8SBStreamERNS_20SBTypeSummaryOptionsEE6g_func, 
                       __ZZN8lldb_rpc7SBValue10GetSummaryEvE6g_func, __ZZN8lldb_rpc7SBValue11GetTypeNameEvE6g_func, 
                       __ZZN8lldb_rpc7SBValue12GetValueTypeEvE6g_func, 
                       __ZZN8lldb_rpc7SBValue14GetDescriptionERNS_8SBStreamEE6g_func, 
                       __ZZN8lldb_rpc7SBValue14GetNumChildrenEvE6g_func, 
                       __ZZN8lldb_rpc7SBValue14GetStaticValueEvE6g_func, 
                       __ZZN8lldb_rpc7SBValue15GetChildAtIndexEjNS_16DynamicValueTypeEbE6g_func, 
                       __ZZN8lldb_rpc7SBValue16GetValueAsSignedExE6g_func, 
                       __ZZN8lldb_rpc7SBValue17GetExpressionPathERNS_8SBStreamEE6g_func, 
                       __ZZN8lldb_rpc7SBValue17GetValueDidChangeEvE6g_func, 
                       __ZZN8lldb_rpc7SBValue17MightHaveChildrenEvE6g_func, 
                       __ZZN8lldb_rpc7SBValue19SetValueFromCStringEPKcRNS_7SBErrorEE6g_func, 
                       __ZZN8lldb_rpc7SBValue20GetObjectDescriptionEvE6g_func, 
                       __ZZN8lldb_rpc7SBValue22GetChildMemberWithNameEPKcNS_16DynamicValueTypeEE6g_func, 
                       __ZZN8lldb_rpc7SBValue5ClearEvE6g_func, __ZZN8lldb_rpc7SBValue7GetDataEvE6g_func, 
                       __ZZN8lldb_rpc7SBValue7GetNameEvE6g_func, __ZZN8lldb_rpc7SBValue7GetTypeEvE6g_func, 
                       __ZZN8lldb_rpc7SBValue7IsValidEvE6g_func, __ZZN8lldb_rpc7SBValue8GetErrorEvE6g_func, 
                       __ZZN8lldb_rpc7SBValue8GetValueEvE6g_func, __ZZN8lldb_rpc7SBValue9GetFormatEvE6g_func, 
                       __ZZN8lldb_rpc7SBValue9IsInScopeEvE6g_func, __ZZN8lldb_rpc7SBValue9SetFormatENS_6FormatEE6g_func, 
                       __ZZN8lldb_rpc8SBHostOS11GetLLDBPathERKN3rpc10ConnectionENS_8PathTypeEE6g_func, 
                       __ZZN8lldb_rpc8SBModule11FindSectionEPKcE6g_func, 
                       __ZZN8lldb_rpc8SBModule18GetNumCompileUnitsEvE6g_func, 
                       __ZZN8lldb_rpc8SBModule19SetPlatformFileSpecERKNS_10SBFileSpecEE6g_func, 
                       __ZZN8lldb_rpc8SBStream7GetDataEvE6g_func, __ZZN8lldb_rpc8SBStream7GetSizeEvE6g_func, 
                       __ZZN8lldb_rpc8SBStreamC1ERKN3rpc10ConnectionEE6g_func, 
                       __ZZN8lldb_rpc8SBSymbol15GetStartAddressEvE6g_func, 
                       __ZZN8lldb_rpc8SBTarget10GetProcessEvE6g_func, __ZZN8lldb_rpc8SBTarget13ConnectRemoteERNS_10SBListenerEPKcS4_RNS_7SBErrorEE6g_func, 
                       __ZZN8lldb_rpc8SBTarget13GetExecutableEvE6g_func, 
                       __ZZN8lldb_rpc8SBTarget16BreakpointDeleteEiE6g_func, 
                       __ZZN8lldb_rpc8SBTarget16DeleteWatchpointEiE6g_func, 
                       __ZZN8lldb_rpc8SBTarget16GetModuleAtIndexEjE6g_func, 
                       __ZZN8lldb_rpc8SBTarget18FindBreakpointByIDEiE6g_func, 
                       __ZZN8lldb_rpc8SBTarget18FindWatchpointByIDEiE6g_func, 
                       __ZZN8lldb_rpc8SBTarget18ResolveLoadAddressEyE6g_func, 
                       __ZZN8lldb_rpc8SBTarget22BreakpointCreateByNameEPKcS2_E6g_func, 
                       __ZZN8lldb_rpc8SBTarget23BreakpointCreateByNamesEPPKcjjRKNS_14SBFileSpecListES6_E6g_func, 
                       __ZZN8lldb_rpc8SBTarget23FindFirstGlobalVariableEPKcE6g_func, 
                       __ZZN8lldb_rpc8SBTarget25BreakpointCreateByAddressEyE6g_func, 
                       __ZZN8lldb_rpc8SBTarget26BreakpointCreateByLocationEPKcjE6g_func, 
                       __ZZN8lldb_rpc8SBTarget28BreakpointCreateForExceptionENS_12LanguageTypeEbbRNS_12SBStringListEE6g_func, 
                       __ZZN8lldb_rpc8SBTarget5ClearEvE6g_func, __ZZN8lldb_rpc8SBTarget6AttachERNS_12SBAttachInfoERNS_7SBErrorEE6g_func, 
                       __ZZN8lldb_rpc8SBTarget6LaunchERNS_12SBLaunchInfoERNS_7SBErrorEE6g_func, 
                       __ZZN8lldb_rpc8SBTarget9AddModuleEPKcS2_S2_E6g_func, 
                       __ZZN8lldb_rpc8SBThread10GetProcessEvE6g_func, __ZZN8lldb_rpc8SBThread12GetNumFramesEvE6g_func, 
                       __ZZN8lldb_rpc8SBThread13GetStopReasonEvE6g_func, 
                       __ZZN8lldb_rpc8SBThread13StepOverUntilERNS_7SBFrameERNS_10SBFileSpecEjE6g_func, 
                       __ZZN8lldb_rpc8SBThread15GetFrameAtIndexEjE6g_func, 
                       __ZZN8lldb_rpc8SBThread15StepInstructionEbE6g_func, 
                       __ZZN8lldb_rpc8SBThread16GetSelectedFrameEvE6g_func, 
                       __ZZN8lldb_rpc8SBThread16SetSelectedFrameEjE6g_func, 
                       __ZZN8lldb_rpc8SBThread18EventIsThreadEventERKNS_7SBEventEE6g_func, 
                       __ZZN8lldb_rpc8SBThread18GetStopDescriptionEPcmE6g_func, 
                       __ZZN8lldb_rpc8SBThread18GetStopReturnValueEvE6g_func, 
                       __ZZN8lldb_rpc8SBThread23GetBroadcasterClassNameERKN3rpc10ConnectionEE6g_func, 
                       __ZZN8lldb_rpc8SBThread24GetStopReasonDataAtIndexEjE6g_func, 
                       __ZZN8lldb_rpc8SBThread25GetInfoItemByPathAsStringEPKcRNS_8SBStreamEE6g_func, 
                       __ZZN8lldb_rpc8SBThread26GetExtendedBacktraceThreadEPKcE6g_func, 
                       __ZZN8lldb_rpc8SBThread31GetStopReasonExtendedBacktracesENS_26InstrumentationRuntimeTypeEE6g_func, 
                       __ZZN8lldb_rpc8SBThread31GetStopReasonExtendedInfoAsJSONERNS_8SBStreamEE6g_func, 
                       __ZZN8lldb_rpc8SBThread38GetExtendedBacktraceOriginatingIndexIDEvE6g_func, 
                       __ZZN8lldb_rpc8SBThread6ResumeEvE6g_func, __ZZN8lldb_rpc8SBThread7StepOutEvE6g_func, 
                       __ZZN8lldb_rpc8SBThread7SuspendEvE6g_func, __ZZN8lldb_rpc8SBThread8StepIntoENS_7RunModeEE6g_func, 
                       __ZZN8lldb_rpc8SBThread8StepOverENS_7RunModeEE6g_func, 
                       __ZZN8lldb_rpc9SBAddress12GetLineEntryEvE6g_func, 
                       __ZZN8lldb_rpc9SBAddress16GetSymbolContextEjE6g_func, 
                       __ZZN8lldb_rpc9SBAddress9GetModuleEvE6g_func, __ZZN8lldb_rpc9SBAddress9GetOffsetEvE6g_func, 
                       __ZZN8lldb_rpc9SBAddress9GetSymbolEvE6g_func, __ZZN8lldb_rpc9SBAddressC1ERKN3rpc10ConnectionEE6g_func, 
                       __ZZN8lldb_rpc9SBProcess10ReadMemoryEyPvmRNS_7SBErrorEE6g_func, 
                       __ZZN8lldb_rpc9SBProcess12GetNumQueuesEvE6g_func, 
                       __ZZN8lldb_rpc9SBProcess12GetProcessIDEvE6g_func, 
                       __ZZN8lldb_rpc9SBProcess13GetExitStatusEvE6g_func, 
                       __ZZN8lldb_rpc9SBProcess13GetNumThreadsEvE6g_func, 
                       __ZZN8lldb_rpc9SBProcess13GetPluginNameEvE6g_func, 
                       __ZZN8lldb_rpc9SBProcess13SendEventDataEPKcE6g_func, 
                       __ZZN8lldb_rpc9SBProcess15GetQueueAtIndexEmE6g_func, 
                       __ZZN8lldb_rpc9SBProcess16GetThreadAtIndexEmE6g_func, 
                       __ZZN8lldb_rpc9SBProcess17GetHistoryThreadsEyE6g_func, 
                       __ZZN8lldb_rpc9SBProcess17GetStateFromEventERKNS_7SBEventEE6g_func, 
                       __ZZN8lldb_rpc9SBProcess17SetSelectedThreadERKNS_8SBThreadEE6g_func, 
                       __ZZN8lldb_rpc9SBProcess18GetExitDescriptionEvE6g_func, 
                       __ZZN8lldb_rpc9SBProcess18GetShortPluginNameEvE6g_func, 
                       __ZZN8lldb_rpc9SBProcess18SendAsyncInterruptEvE6g_func, 
                       __ZZN8lldb_rpc9SBProcess21GetRestartedFromEventERKNS_7SBEventEE6g_func, 
                       __ZZN8lldb_rpc9SBProcess26SetSelectedThreadByIndexIDEjE6g_func, 
                       __ZZN8lldb_rpc9SBProcess31IsInstrumentationRuntimePresentENS_26InstrumentationRuntimeTypeEE6g_func, 
                       __ZZN8lldb_rpc9SBProcess4KillEvE6g_func, __ZZN8lldb_rpc9SBProcess4StopEvE6g_func, 
                       __ZZN8lldb_rpc9SBProcess6DetachEbE6g_func, __ZZN8lldb_rpc9SBProcess6DetachEvE6g_func, 
                       __ZZN8lldb_rpc9SBProcess8ContinueEvE6g_func, __ZZN8lldb_rpc9SBProcess8GetStateEvE6g_func, 
                       __ZZN8lldb_rpc9SBProcess9LoadImageERNS_10SBFileSpecERNS_7SBErrorEE6g_func, 
                       __ZZN8lldb_rpc9SBSection14GetLoadAddressERNS_8SBTargetEE6g_func, 
                       __ZZNK8lldb_rpc10SBDebugger7IsValidEvE6g_func, __ZZNK8lldb_rpc10SBDebugger9GetPromptEvE6g_func, 
                       __ZZNK8lldb_rpc10SBFileSpec11GetFilenameEvE6g_func, 
                       __ZZNK8lldb_rpc10SBFileSpec12GetDirectoryEvE6g_func, 
                       __ZZNK8lldb_rpc10SBFileSpec6ExistsEvE6g_func, __ZZNK8lldb_rpc10SBFileSpec7GetPathEPcmE6g_func, 
                       __ZZNK8lldb_rpc11SBLineEntry11GetFileSpecEvE6g_func, 
                       __ZZNK8lldb_rpc11SBLineEntry15GetStartAddressEvE6g_func, 
                       __ZZNK8lldb_rpc11SBLineEntry7GetLineEvE6g_func, 
                       __ZZNK8lldb_rpc11SBLineEntry7IsValidEvE6g_func, 
                       __ZZNK8lldb_rpc11SBQueueItem10GetAddressEvE6g_func, 
                       __ZZNK8lldb_rpc11SBQueueItem7IsValidEvE6g_func, 
                       __ZZNK8lldb_rpc11SBValueList15GetValueAtIndexEjE6g_func, 
                       __ZZNK8lldb_rpc11SBValueList7GetSizeEvE6g_func, 
                       __ZZNK8lldb_rpc12SBBreakpoint11GetHitCountEvE6g_func, 
                       __ZZNK8lldb_rpc12SBBreakpoint15GetNumLocationsEvE6g_func, 
                       __ZZNK8lldb_rpc12SBBreakpoint5GetIDEvE6g_func, __ZZNK8lldb_rpc12SBBreakpoint7IsValidEvE6g_func, 
                       __ZZNK8lldb_rpc12SBStringList7GetSizeEvE6g_func, 
                       __ZZNK8lldb_rpc12SBWatchpoint7IsValidEvE6g_func, 
                       __ZZNK8lldb_rpc13SBBroadcaster7IsValidEvE6g_func, 
                       __ZZNK8lldb_rpc13SBCompileUnit18FindLineEntryIndexEjjPNS_10SBFileSpecEE6g_func, 
                       __ZZNK8lldb_rpc13SBCompileUnit18FindLineEntryIndexEjjPNS_10SBFileSpecEbE6g_func, 
                       __ZZNK8lldb_rpc13SBCompileUnit19GetLineEntryAtIndexEjE6g_func, 
                       __ZZNK8lldb_rpc13SBCompileUnit7IsValidEvE6g_func, 
                       __ZZNK8lldb_rpc20SBBreakpointLocation7IsValidEvE6g_func, 
                       __ZZNK8lldb_rpc6SBType7IsValidEvE6g_func, __ZZNK8lldb_rpc7SBError10GetCStringEvE6g_func, 
                       __ZZNK8lldb_rpc7SBError4FailEvE6g_func, __ZZNK8lldb_rpc7SBError7GetTypeEvE6g_func, 
                       __ZZNK8lldb_rpc7SBError7SuccessEvE6g_func, __ZZNK8lldb_rpc7SBError8GetErrorEvE6g_func, 
                       __ZZNK8lldb_rpc7SBEvent7GetTypeEvE6g_func, __ZZNK8lldb_rpc7SBFrame10GetFrameIDEvE6g_func, 
                       __ZZNK8lldb_rpc7SBFrame11DisassembleEvE6g_func, 
                       __ZZNK8lldb_rpc7SBFrame12GetLineEntryEvE6g_func, 
                       __ZZNK8lldb_rpc7SBFrame14GetCompileUnitEvE6g_func, 
                       __ZZNK8lldb_rpc7SBFrame16GetSymbolContextEjE6g_func, 
                       __ZZNK8lldb_rpc7SBFrame5GetFPEvE6g_func, __ZZNK8lldb_rpc7SBFrame5GetPCEvE6g_func, 
                       __ZZNK8lldb_rpc7SBFrame7IsValidEvE6g_func, __ZZNK8lldb_rpc7SBFrame9GetThreadEvE6g_func, 
                       __ZZNK8lldb_rpc7SBFrameeqERKS0_E6g_func, __ZZNK8lldb_rpc7SBQueue10GetQueueIDEvE6g_func, 
                       __ZZNK8lldb_rpc7SBQueue7GetNameEvE6g_func, __ZZNK8lldb_rpc7SBQueue7IsValidEvE6g_func, 
                       __ZZNK8lldb_rpc8SBModule11GetFileSpecEvE6g_func, 
                       __ZZNK8lldb_rpc8SBModule12GetUUIDBytesEvE6g_func, 
                       __ZZNK8lldb_rpc8SBModule13GetUUIDStringEvE6g_func, 
                       __ZZNK8lldb_rpc8SBModule7IsValidEvE6g_func, __ZZNK8lldb_rpc8SBModuleeqERKS0_E6g_func, 
                       __ZZNK8lldb_rpc8SBSymbol7GetNameEvE6g_func, __ZZNK8lldb_rpc8SBSymbol7IsValidEvE6g_func, 
                       __ZZNK8lldb_rpc8SBTarget11GetDebuggerEvE6g_func, 
                       __ZZNK8lldb_rpc8SBTarget13GetNumModulesEvE6g_func, 
                       __ZZNK8lldb_rpc8SBTarget14GetBroadcasterEvE6g_func, 
                       __ZZNK8lldb_rpc8SBTarget17GetNumWatchpointsEvE6g_func, 
                       __ZZNK8lldb_rpc8SBTarget20GetWatchpointAtIndexEjE6g_func, 
                       __ZZNK8lldb_rpc8SBTarget7IsValidEvE6g_func, __ZZNK8lldb_rpc8SBThread10GetIndexIDEvE6g_func, 
                       __ZZNK8lldb_rpc8SBThread10GetQueueIDEvE6g_func, 
                       __ZZNK8lldb_rpc8SBThread11GetThreadIDEvE6g_func, 
                       __ZZNK8lldb_rpc8SBThread12GetQueueNameEvE6g_func, 
                       __ZZNK8lldb_rpc8SBThread7GetNameEvE6g_func, __ZZNK8lldb_rpc8SBThread7IsValidEvE6g_func, 
                       __ZZNK8lldb_rpc8SBThread9GetStatusERNS_8SBStreamEE6g_func, 
                       __ZZNK8lldb_rpc8SBThreadeqERKS0_E6g_func, __ZZNK8lldb_rpc8SBThreadneERKS0_E6g_func, 
                       __ZZNK8lldb_rpc9SBAddress14GetLoadAddressERKNS_8SBTargetEE6g_func, 
                       __ZZNK8lldb_rpc9SBProcess14GetBroadcasterEvE6g_func, 
                       __ZZNK8lldb_rpc9SBProcess17GetSelectedThreadEvE6g_func, 
                       __ZZNK8lldb_rpc9SBProcess18GetAddressByteSizeEvE6g_func, 
                       __ZZNK8lldb_rpc9SBProcess19GetAsyncProfileDataEPcmE6g_func, 
                       __ZZNK8lldb_rpc9SBProcess7IsValidEvE6g_func, __ZZNK8lldb_rpc9SBProcess9GetSTDERREPcmE6g_func, 
                       __ZZNK8lldb_rpc9SBProcess9GetSTDOUTEPcmE6g_func, 
                       __ZZNK8lldb_rpc9SBProcess9GetTargetEvE6g_func, _g_connections, 
                       _g_connections_mutex_ptr, _g_packet_send_mutex_ptr, 
                       _g_program_directory, _g_program_filename, _g_rpc_server_exited_callback, 
                       _g_rpc_server_exited_callback_baton ]
    weak-def-symbols: [ __ZN10rpc_common15RPCFunctionInfoD1Ev, __ZN10rpc_common15RPCFunctionInfoC2EPKc, 
                        __ZN10rpc_common15RPCValueDecoderIN8lldb_rpc10SBDebuggerEEEbRNS_9RPCStreamENS_9RPCPacket9ValueTypeERT_, 
                        __ZN10rpc_common15RPCValueDecoderIN8lldb_rpc10SBFileSpecEEEbRNS_9RPCStreamENS_9RPCPacket9ValueTypeERT_, 
                        __ZN10rpc_common15RPCValueDecoderIN8lldb_rpc10SBListenerEEEbRNS_9RPCStreamENS_9RPCPacket9ValueTypeERT_, 
                        __ZN10rpc_common15RPCValueDecoderIN8lldb_rpc10StopReasonEEEbRNS_9RPCStreamENS_9RPCPacket9ValueTypeERT_, 
                        __ZN10rpc_common15RPCValueDecoderIN8lldb_rpc11SBLineEntryEEEbRNS_9RPCStreamENS_9RPCPacket9ValueTypeERT_, 
                        __ZN10rpc_common15RPCValueDecoderIN8lldb_rpc11SBQueueItemEEEbRNS_9RPCStreamENS_9RPCPacket9ValueTypeERT_, 
                        __ZN10rpc_common15RPCValueDecoderIN8lldb_rpc11SBValueListEEEbRNS_9RPCStreamENS_9RPCPacket9ValueTypeERT_, 
                        __ZN10rpc_common15RPCValueDecoderIN8lldb_rpc12ReturnStatusEEEbRNS_9RPCStreamENS_9RPCPacket9ValueTypeERT_, 
                        __ZN10rpc_common15RPCValueDecoderIN8lldb_rpc12SBAttachInfoEEEbRNS_9RPCStreamENS_9RPCPacket9ValueTypeERT_, 
                        __ZN10rpc_common15RPCValueDecoderIN8lldb_rpc12SBBreakpointEEEbRNS_9RPCStreamENS_9RPCPacket9ValueTypeERT_, 
                        __ZN10rpc_common15RPCValueDecoderIN8lldb_rpc12SBLaunchInfoEEEbRNS_9RPCStreamENS_9RPCPacket9ValueTypeERT_, 
                        __ZN10rpc_common15RPCValueDecoderIN8lldb_rpc12SBStringListEEEbRNS_9RPCStreamENS_9RPCPacket9ValueTypeERT_, 
                        __ZN10rpc_common15RPCValueDecoderIN8lldb_rpc12SBTypeMemberEEEbRNS_9RPCStreamENS_9RPCPacket9ValueTypeERT_, 
                        __ZN10rpc_common15RPCValueDecoderIN8lldb_rpc12SBWatchpointEEEbRNS_9RPCStreamENS_9RPCPacket9ValueTypeERT_, 
                        __ZN10rpc_common15RPCValueDecoderIN8lldb_rpc13SBBroadcasterEEEbRNS_9RPCStreamENS_9RPCPacket9ValueTypeERT_, 
                        __ZN10rpc_common15RPCValueDecoderIN8lldb_rpc13SBCompileUnitEEEbRNS_9RPCStreamENS_9RPCPacket9ValueTypeERT_, 
                        __ZN10rpc_common15RPCValueDecoderIN8lldb_rpc15SBSymbolContextEEEbRNS_9RPCStreamENS_9RPCPacket9ValueTypeERT_, 
                        __ZN10rpc_common15RPCValueDecoderIN8lldb_rpc18SBThreadCollectionEEEbRNS_9RPCStreamENS_9RPCPacket9ValueTypeERT_, 
                        __ZN10rpc_common15RPCValueDecoderIN8lldb_rpc19BreakpointEventTypeEEEbRNS_9RPCStreamENS_9RPCPacket9ValueTypeERT_, 
                        __ZN10rpc_common15RPCValueDecoderIN8lldb_rpc19SBExpressionOptionsEEEbRNS_9RPCStreamENS_9RPCPacket9ValueTypeERT_, 
                        __ZN10rpc_common15RPCValueDecoderIN8lldb_rpc20SBBreakpointLocationEEEbRNS_9RPCStreamENS_9RPCPacket9ValueTypeERT_, 
                        __ZN10rpc_common15RPCValueDecoderIN8lldb_rpc20SBCommandInterpreterEEEbRNS_9RPCStreamENS_9RPCPacket9ValueTypeERT_, 
                        __ZN10rpc_common15RPCValueDecoderIN8lldb_rpc20SBTypeSummaryOptionsEEEbRNS_9RPCStreamENS_9RPCPacket9ValueTypeERT_, 
                        __ZN10rpc_common15RPCValueDecoderIN8lldb_rpc21SBCommandReturnObjectEEEbRNS_9RPCStreamENS_9RPCPacket9ValueTypeERT_, 
                        __ZN10rpc_common15RPCValueDecoderIN8lldb_rpc25ExpressionEvaluationPhaseEEEbRNS_9RPCStreamENS_9RPCPacket9ValueTypeERT_, 
                        __ZN10rpc_common15RPCValueDecoderIN8lldb_rpc6FormatEEEbRNS_9RPCStreamENS_9RPCPacket9ValueTypeERT_, 
                        __ZN10rpc_common15RPCValueDecoderIN8lldb_rpc6SBDataEEEbRNS_9RPCStreamENS_9RPCPacket9ValueTypeERT_, 
                        __ZN10rpc_common15RPCValueDecoderIN8lldb_rpc6SBTypeEEEbRNS_9RPCStreamENS_9RPCPacket9ValueTypeERT_, 
                        __ZN10rpc_common15RPCValueDecoderIN8lldb_rpc7SBErrorEEEbRNS_9RPCStreamENS_9RPCPacket9ValueTypeERT_, 
                        __ZN10rpc_common15RPCValueDecoderIN8lldb_rpc7SBEventEEEbRNS_9RPCStreamENS_9RPCPacket9ValueTypeERT_, 
                        __ZN10rpc_common15RPCValueDecoderIN8lldb_rpc7SBFrameEEEbRNS_9RPCStreamENS_9RPCPacket9ValueTypeERT_, 
                        __ZN10rpc_common15RPCValueDecoderIN8lldb_rpc7SBQueueEEEbRNS_9RPCStreamENS_9RPCPacket9ValueTypeERT_, 
                        __ZN10rpc_common15RPCValueDecoderIN8lldb_rpc7SBValueEEEbRNS_9RPCStreamENS_9RPCPacket9ValueTypeERT_, 
                        __ZN10rpc_common15RPCValueDecoderIN8lldb_rpc8SBModuleEEEbRNS_9RPCStreamENS_9RPCPacket9ValueTypeERT_, 
                        __ZN10rpc_common15RPCValueDecoderIN8lldb_rpc8SBStreamEEEbRNS_9RPCStreamENS_9RPCPacket9ValueTypeERT_, 
                        __ZN10rpc_common15RPCValueDecoderIN8lldb_rpc8SBSymbolEEEbRNS_9RPCStreamENS_9RPCPacket9ValueTypeERT_, 
                        __ZN10rpc_common15RPCValueDecoderIN8lldb_rpc8SBTargetEEEbRNS_9RPCStreamENS_9RPCPacket9ValueTypeERT_, 
                        __ZN10rpc_common15RPCValueDecoderIN8lldb_rpc8SBThreadEEEbRNS_9RPCStreamENS_9RPCPacket9ValueTypeERT_, 
                        __ZN10rpc_common15RPCValueDecoderIN8lldb_rpc9ErrorTypeEEEbRNS_9RPCStreamENS_9RPCPacket9ValueTypeERT_, 
                        __ZN10rpc_common15RPCValueDecoderIN8lldb_rpc9QueueKindEEEbRNS_9RPCStreamENS_9RPCPacket9ValueTypeERT_, 
                        __ZN10rpc_common15RPCValueDecoderIN8lldb_rpc9SBAddressEEEbRNS_9RPCStreamENS_9RPCPacket9ValueTypeERT_, 
                        __ZN10rpc_common15RPCValueDecoderIN8lldb_rpc9SBProcessEEEbRNS_9RPCStreamENS_9RPCPacket9ValueTypeERT_, 
                        __ZN10rpc_common15RPCValueDecoderIN8lldb_rpc9SBSectionEEEbRNS_9RPCStreamENS_9RPCPacket9ValueTypeERT_, 
                        __ZN10rpc_common15RPCValueDecoderIN8lldb_rpc9StateTypeEEEbRNS_9RPCStreamENS_9RPCPacket9ValueTypeERT_, 
                        __ZN10rpc_common15RPCValueDecoderIN8lldb_rpc9TypeClassEEEbRNS_9RPCStreamENS_9RPCPacket9ValueTypeERT_, 
                        __ZN10rpc_common15RPCValueDecoderIN8lldb_rpc9ValueTypeEEEbRNS_9RPCStreamENS_9RPCPacket9ValueTypeERT_, 
                        __ZN10rpc_common15RPCValueDecoderINS_10StringListEEEbRNS_9RPCStreamENS_9RPCPacket9ValueTypeERT_, 
                        __ZN10rpc_common15RPCValueDecoderINS_16ConstCharPointerEEEbRNS_9RPCStreamENS_9RPCPacket9ValueTypeERT_, 
                        __ZN10rpc_common15RPCValueDecoderINS_5BytesEEEbRNS_9RPCStreamENS_9RPCPacket9ValueTypeERT_, 
                        __ZN10rpc_common15RPCValueDecoderINSt3__112basic_stringIcNS1_11char_traitsIcEENS1_9allocatorIcEEEEEEbRNS_9RPCStreamENS_9RPCPacket9ValueTypeERT_, 
                        __ZN10rpc_common15RPCValueDecoderIPvEEbRNS_9RPCStreamENS_9RPCPacket9ValueTypeERT_, 
                        __ZN10rpc_common15RPCValueDecoderIbEEbRNS_9RPCStreamENS_9RPCPacket9ValueTypeERT_, 
                        __ZN10rpc_common15RPCValueDecoderIiEEbRNS_9RPCStreamENS_9RPCPacket9ValueTypeERT_, 
                        __ZN10rpc_common15RPCValueDecoderIjEEbRNS_9RPCStreamENS_9RPCPacket9ValueTypeERT_, 
                        __ZN10rpc_common15RPCValueDecoderImEEbRNS_9RPCStreamENS_9RPCPacket9ValueTypeERT_, 
                        __ZN10rpc_common15RPCValueDecoderIxEEbRNS_9RPCStreamENS_9RPCPacket9ValueTypeERT_, 
                        __ZN10rpc_common15RPCValueDecoderIyEEbRNS_9RPCStreamENS_9RPCPacket9ValueTypeERT_, 
                        __ZN10rpc_common15RPCValueEncoderIN8lldb_rpc10SBDebuggerEEEvRNS_9RPCStreamENS_9RPCPacket9ValueTypeERKT_, 
                        __ZN10rpc_common15RPCValueEncoderIN8lldb_rpc10SBFileSpecEEEvRNS_9RPCStreamENS_9RPCPacket9ValueTypeERKT_, 
                        __ZN10rpc_common15RPCValueEncoderIN8lldb_rpc10SBListenerEEEvRNS_9RPCStreamENS_9RPCPacket9ValueTypeERKT_, 
                        __ZN10rpc_common15RPCValueEncoderIN8lldb_rpc11SBLineEntryEEEvRNS_9RPCStreamENS_9RPCPacket9ValueTypeERKT_, 
                        __ZN10rpc_common15RPCValueEncoderIN8lldb_rpc11SBQueueItemEEEvRNS_9RPCStreamENS_9RPCPacket9ValueTypeERKT_, 
                        __ZN10rpc_common15RPCValueEncoderIN8lldb_rpc11SBValueListEEEvRNS_9RPCStreamENS_9RPCPacket9ValueTypeERKT_, 
                        __ZN10rpc_common15RPCValueEncoderIN8lldb_rpc12SBAttachInfoEEEvRNS_9RPCStreamENS_9RPCPacket9ValueTypeERKT_, 
                        __ZN10rpc_common15RPCValueEncoderIN8lldb_rpc12SBBreakpointEEEvRNS_9RPCStreamENS_9RPCPacket9ValueTypeERKT_, 
                        __ZN10rpc_common15RPCValueEncoderIN8lldb_rpc12SBLaunchInfoEEEvRNS_9RPCStreamENS_9RPCPacket9ValueTypeERKT_, 
                        __ZN10rpc_common15RPCValueEncoderIN8lldb_rpc12SBStringListEEEvRNS_9RPCStreamENS_9RPCPacket9ValueTypeERKT_, 
                        __ZN10rpc_common15RPCValueEncoderIN8lldb_rpc12SBTypeMemberEEEvRNS_9RPCStreamENS_9RPCPacket9ValueTypeERKT_, 
                        __ZN10rpc_common15RPCValueEncoderIN8lldb_rpc12SBWatchpointEEEvRNS_9RPCStreamENS_9RPCPacket9ValueTypeERKT_, 
                        __ZN10rpc_common15RPCValueEncoderIN8lldb_rpc13SBBroadcasterEEEvRNS_9RPCStreamENS_9RPCPacket9ValueTypeERKT_, 
                        __ZN10rpc_common15RPCValueEncoderIN8lldb_rpc13SBCompileUnitEEEvRNS_9RPCStreamENS_9RPCPacket9ValueTypeERKT_, 
                        __ZN10rpc_common15RPCValueEncoderIN8lldb_rpc14SBFileSpecListEEEvRNS_9RPCStreamENS_9RPCPacket9ValueTypeERKT_, 
                        __ZN10rpc_common15RPCValueEncoderIN8lldb_rpc15SBSymbolContextEEEvRNS_9RPCStreamENS_9RPCPacket9ValueTypeERKT_, 
                        __ZN10rpc_common15RPCValueEncoderIN8lldb_rpc18SBThreadCollectionEEEvRNS_9RPCStreamENS_9RPCPacket9ValueTypeERKT_, 
                        __ZN10rpc_common15RPCValueEncoderIN8lldb_rpc19SBExpressionOptionsEEEvRNS_9RPCStreamENS_9RPCPacket9ValueTypeERKT_, 
                        __ZN10rpc_common15RPCValueEncoderIN8lldb_rpc20SBBreakpointLocationEEEvRNS_9RPCStreamENS_9RPCPacket9ValueTypeERKT_, 
                        __ZN10rpc_common15RPCValueEncoderIN8lldb_rpc20SBCommandInterpreterEEEvRNS_9RPCStreamENS_9RPCPacket9ValueTypeERKT_, 
                        __ZN10rpc_common15RPCValueEncoderIN8lldb_rpc20SBTypeSummaryOptionsEEEvRNS_9RPCStreamENS_9RPCPacket9ValueTypeERKT_, 
                        __ZN10rpc_common15RPCValueEncoderIN8lldb_rpc21SBCommandReturnObjectEEEvRNS_9RPCStreamENS_9RPCPacket9ValueTypeERKT_, 
                        __ZN10rpc_common15RPCValueEncoderIN8lldb_rpc6SBDataEEEvRNS_9RPCStreamENS_9RPCPacket9ValueTypeERKT_, 
                        __ZN10rpc_common15RPCValueEncoderIN8lldb_rpc6SBTypeEEEvRNS_9RPCStreamENS_9RPCPacket9ValueTypeERKT_, 
                        __ZN10rpc_common15RPCValueEncoderIN8lldb_rpc7SBErrorEEEvRNS_9RPCStreamENS_9RPCPacket9ValueTypeERKT_, 
                        __ZN10rpc_common15RPCValueEncoderIN8lldb_rpc7SBEventEEEvRNS_9RPCStreamENS_9RPCPacket9ValueTypeERKT_, 
                        __ZN10rpc_common15RPCValueEncoderIN8lldb_rpc7SBFrameEEEvRNS_9RPCStreamENS_9RPCPacket9ValueTypeERKT_, 
                        __ZN10rpc_common15RPCValueEncoderIN8lldb_rpc7SBQueueEEEvRNS_9RPCStreamENS_9RPCPacket9ValueTypeERKT_, 
                        __ZN10rpc_common15RPCValueEncoderIN8lldb_rpc7SBValueEEEvRNS_9RPCStreamENS_9RPCPacket9ValueTypeERKT_, 
                        __ZN10rpc_common15RPCValueEncoderIN8lldb_rpc8SBModuleEEEvRNS_9RPCStreamENS_9RPCPacket9ValueTypeERKT_, 
                        __ZN10rpc_common15RPCValueEncoderIN8lldb_rpc8SBStreamEEEvRNS_9RPCStreamENS_9RPCPacket9ValueTypeERKT_, 
                        __ZN10rpc_common15RPCValueEncoderIN8lldb_rpc8SBSymbolEEEvRNS_9RPCStreamENS_9RPCPacket9ValueTypeERKT_, 
                        __ZN10rpc_common15RPCValueEncoderIN8lldb_rpc8SBTargetEEEvRNS_9RPCStreamENS_9RPCPacket9ValueTypeERKT_, 
                        __ZN10rpc_common15RPCValueEncoderIN8lldb_rpc8SBThreadEEEvRNS_9RPCStreamENS_9RPCPacket9ValueTypeERKT_, 
                        __ZN10rpc_common15RPCValueEncoderIN8lldb_rpc9SBAddressEEEvRNS_9RPCStreamENS_9RPCPacket9ValueTypeERKT_, 
                        __ZN10rpc_common15RPCValueEncoderIN8lldb_rpc9SBProcessEEEvRNS_9RPCStreamENS_9RPCPacket9ValueTypeERKT_, 
                        __ZN10rpc_common15RPCValueEncoderIN8lldb_rpc9SBSectionEEEvRNS_9RPCStreamENS_9RPCPacket9ValueTypeERKT_, 
                        __ZN10rpc_common15RPCValueEncoderINS_10StringListEEEvRNS_9RPCStreamENS_9RPCPacket9ValueTypeERKT_, 
                        __ZN10rpc_common15RPCValueEncoderIbEEvRNS_9RPCStreamENS_9RPCPacket9ValueTypeERKT_, 
                        __ZN10rpc_common19RPCFunctionInstance14ResetCallCountEv, 
                        __ZN10rpc_common19RPCFunctionInstance26HandleCompatibilityRPCCallERNS_10ConnectionERNS_9RPCStreamES4_, 
                        __ZN10rpc_common19RPCFunctionInstanceD0Ev, __ZN10rpc_common19RPCFunctionInstanceD1Ev, 
                        __ZN110_ZN4lldb12SBBreakpoint11SetCallbackEPFbPvRNS_9SBProcessERNS_8SBThreadERNS_20SBBreakpointLocationEES1__callback13HandleRPCCallERN10rpc_common10ConnectionERNS0_9RPCStreamES4_, 
                        __ZN13ThreadCallMap3AddEyy, __ZN13ThreadCallMap6RemoveEyy, 
                        __ZN50_ZN4lldb10SBDebugger6CreateEbPFvPKcPvES3__callback13HandleRPCCallERN10rpc_common10ConnectionERNS0_9RPCStreamES4_, 
                        __ZN50_ZN4lldb10SBDebugger6CreateEbPFvPKcPvES3__callbackD0Ev, 
                        __ZN50_ZN4lldb10SBDebugger6CreateEbPFvPKcPvES3__callbackD1Ev, 
                        __ZN7Packets10ReadThreadEv, __ZN7Packets13RunReadThreadEPv, 
                        __ZN7Packets14ProcessPacketsEv, __ZN7Packets19NotifyThreadCreatedERKN10rpc_common9RPCPacketE, 
                        __ZN7Packets19StopExecutionThreadEb, __ZN7Packets23StartReadThreadIfNeededEv, 
                        __ZN7Packets6AppendERN10rpc_common9RPCPacketE, 
                        __ZN7Packets9GetPacketERN10rpc_common9RPCPacketE, 
                        __ZN7PacketsD2Ev, __ZN84_ZN4lldb20SBCommandInterpreter26SetCommandOverrideCallbackEPKcPFbPvPS2_ES3__callback13HandleRPCCallERN10rpc_common10ConnectionERNS0_9RPCStreamES4_, 
                        __ZN98_ZN4lldb19SBExpressionOptions17SetCancelCallbackEPFbNS_25ExpressionEvaluationPhaseEPvES2__callback13HandleRPCCallERN10rpc_common10ConnectionERNS0_9RPCStreamES4_, 
                        __ZN9ThreadKey15AddConnectionIDEj, __ZN9ThreadKey16ThreadDestructorEPv, 
                        __ZN9ThreadKeyD2Ev, __ZNK10rpc_common15RPCFunctionInfoltERKS0_, 
                        __ZNK10rpc_common19RPCConnectionSocket11IsConnectedEv, 
                        __ZNK10rpc_common19RPCFunctionInstance12GetCallCountEv, 
                        __ZNK10rpc_common9RPCStream4FindERKNSt3__112basic_stringIhNS1_11char_traitsIhEENS1_9allocatorIhEEEE, 
                        __ZNK10rpc_common9RPCStream8PeekDataEm, __ZNK13ThreadCallMap17GetTargetThreadIDEy, 
                        __ZNKSt3__120__shared_ptr_pointerIP110_ZN4lldb12SBBreakpoint11SetCallbackEPFbPvRNS_9SBProcessERNS_8SBThreadERNS_20SBBreakpointLocationEES1__callbackNS_14default_deleteIS1_EENS_9allocatorIS1_EEE13__get_deleterERKSt9type_info, 
                        __ZNKSt3__120__shared_ptr_pointerIP50_ZN4lldb10SBDebugger6CreateEbPFvPKcPvES3__callbackNS_14default_deleteIS1_EENS_9allocatorIS1_EEE13__get_deleterERKSt9type_info, 
                        __ZNKSt3__120__shared_ptr_pointerIP84_ZN4lldb20SBCommandInterpreter26SetCommandOverrideCallbackEPKcPFbPvPS2_ES3__callbackNS_14default_deleteIS1_EENS_9allocatorIS1_EEE13__get_deleterERKSt9type_info, 
                        __ZNKSt3__120__shared_ptr_pointerIP98_ZN4lldb19SBExpressionOptions17SetCancelCallbackEPFbNS_25ExpressionEvaluationPhaseEPvES2__callbackNS_14default_deleteIS1_EENS_9allocatorIS1_EEE13__get_deleterERKSt9type_info, 
                        __ZNKSt3__120__shared_ptr_pointerIPN10rpc_common10ConnectionENS_14default_deleteIS2_EENS_9allocatorIS2_EEE13__get_deleterERKSt9type_info, 
                        __ZNKSt3__120__shared_ptr_pointerIPN3rpc9ObjectRefENS_14default_deleteIS2_EENS_9allocatorIS2_EEE13__get_deleterERKSt9type_info, 
                        __ZNKSt3__16__treeINS_12__value_typeIyN13ThreadCallMap5ValueEEENS_19__map_value_compareIyS4_NS_4lessIyEELb1EEENS_9allocatorIS4_EEE4findIyEENS_21__tree_const_iteratorIS4_PNS_11__tree_nodeIS4_PvEElEERKT_, 
                        __ZNKSt3__18functionIFbPKvmEEclES2_m, __ZNSt3__110shared_ptrIN10rpc_common10ConnectionEEC2IS2_EEPT_NS_9enable_ifIXsr14is_convertibleIS6_PS2_EE5valueENS3_5__natEE4typeE, 
                        __ZNSt3__110shared_ptrIN10rpc_common10ConnectionEEC2IS2_EERKNS_8weak_ptrIT_EENS_9enable_ifIXsr14is_convertibleIPS6_PS2_EE5valueENS3_5__natEE4typeE, 
                        __ZNSt3__110shared_ptrIN10rpc_common19RPCFunctionInstanceEEC2I110_ZN4lldb12SBBreakpoint11SetCallbackEPFbPvRNS_9SBProcessERNS_8SBThreadERNS_20SBBreakpointLocationEES1__callbackEEPT_NS_9enable_ifIXsr14is_convertibleIS7_PS2_EE5valueENS3_5__natEE4typeE, 
                        __ZNSt3__110shared_ptrIN10rpc_common19RPCFunctionInstanceEEC2I50_ZN4lldb10SBDebugger6CreateEbPFvPKcPvES3__callbackEEPT_NS_9enable_ifIXsr14is_convertibleIS7_PS2_EE5valueENS3_5__natEE4typeE, 
                        __ZNSt3__110shared_ptrIN10rpc_common19RPCFunctionInstanceEEC2I84_ZN4lldb20SBCommandInterpreter26SetCommandOverrideCallbackEPKcPFbPvPS2_ES3__callbackEEPT_NS_9enable_ifIXsr14is_convertibleIS7_PS2_EE5valueENS3_5__natEE4typeE, 
                        __ZNSt3__110shared_ptrIN10rpc_common19RPCFunctionInstanceEEC2I98_ZN4lldb19SBExpressionOptions17SetCancelCallbackEPFbNS_25ExpressionEvaluationPhaseEPvES2__callbackEEPT_NS_9enable_ifIXsr14is_convertibleIS7_PS2_EE5valueENS3_5__natEE4typeE, 
                        __ZNSt3__110shared_ptrIN3rpc9ObjectRefEEC2IS2_EEPT_NS_9enable_ifIXsr14is_convertibleIS6_PS2_EE5valueENS3_5__natEE4typeE, 
                        __ZNSt3__111char_traitsIhE4moveEPhPKhm, __ZNSt3__111unique_lockINS_5mutexEE4lockEv, 
                        __ZNSt3__111unique_lockINS_5mutexEE6unlockEv, __ZNSt3__112__deque_baseIN10rpc_common9RPCPacketENS_9allocatorIS2_EEE5clearEv, 
                        __ZNSt3__112__deque_baseIN10rpc_common9RPCPacketENS_9allocatorIS2_EEED2Ev, 
                        __ZNSt3__112basic_stringIhNS_11char_traitsIhEENS_9allocatorIhEEE21__grow_by_and_replaceEmmmmmmPKh, 
                        __ZNSt3__112basic_stringIhNS_11char_traitsIhEENS_9allocatorIhEEE5eraseEmm, 
                        __ZNSt3__112basic_stringIhNS_11char_traitsIhEENS_9allocatorIhEEE6__initEPKhm, 
                        __ZNSt3__112basic_stringIhNS_11char_traitsIhEENS_9allocatorIhEEE6appendEPKhm, 
                        __ZNSt3__112basic_stringIhNS_11char_traitsIhEENS_9allocatorIhEEE6appendEmh, 
                        __ZNSt3__112basic_stringIhNS_11char_traitsIhEENS_9allocatorIhEEE6assignEPKhm, 
                        __ZNSt3__112basic_stringIhNS_11char_traitsIhEENS_9allocatorIhEEE7reserveEm, 
                        __ZNSt3__112basic_stringIhNS_11char_traitsIhEENS_9allocatorIhEEE9__grow_byEmmmmmm, 
                        __ZNSt3__112basic_stringIhNS_11char_traitsIhEENS_9allocatorIhEEEC2ERKS5_, 
                        __ZNSt3__112basic_stringIhNS_11char_traitsIhEENS_9allocatorIhEEEC2ERKS5_mmRKS4_, 
                        __ZNSt3__112basic_stringIhNS_11char_traitsIhEENS_9allocatorIhEEEaSERKS5_, 
                        __ZNSt3__113__tree_removeIPNS_16__tree_node_baseIPvEEEEvT_S5_, 
                        __ZNSt3__113__vector_baseINS_12basic_stringIcNS_11char_traitsIcEENS_9allocatorIcEEEENS4_IS6_EEED2Ev, 
                        __ZNSt3__113__vector_baseINS_4pairIjjEENS_9allocatorIS2_EEED2Ev, 
                        __ZNSt3__113__vector_baseIjNS_9allocatorIjEEED2Ev, 
                        __ZNSt3__114__split_bufferINS_10shared_ptrIN10rpc_common10ConnectionEEERNS_9allocatorIS4_EEED2Ev, 
                        __ZNSt3__114__split_bufferINS_12basic_stringIcNS_11char_traitsIcEENS_9allocatorIcEEEERNS4_IS6_EEED2Ev, 
                        __ZNSt3__114__split_bufferIPN10rpc_common9RPCPacketENS_9allocatorIS3_EEE10push_frontEOS3_, 
                        __ZNSt3__114__split_bufferIPN10rpc_common9RPCPacketENS_9allocatorIS3_EEE9push_backEOS3_, 
                        __ZNSt3__114__split_bufferIPN10rpc_common9RPCPacketENS_9allocatorIS3_EEED2Ev, 
                        __ZNSt3__117bad_function_callD0Ev, __ZNSt3__117bad_function_callD1Ev, 
                        __ZNSt3__118__tree_left_rotateIPNS_16__tree_node_baseIPvEEEEvT_, 
                        __ZNSt3__119__tree_right_rotateIPNS_16__tree_node_baseIPvEEEEvT_, 
                        __ZNSt3__120__shared_ptr_pointerIP50_ZN4lldb10SBDebugger6CreateEbPFvPKcPvES3__callbackNS_14default_deleteIS1_EENS_9allocatorIS1_EEE16__on_zero_sharedEv, 
                        __ZNSt3__120__shared_ptr_pointerIPN10rpc_common10ConnectionENS_14default_deleteIS2_EENS_9allocatorIS2_EEE16__on_zero_sharedEv, 
                        __ZNSt3__120__shared_ptr_pointerIPN10rpc_common10ConnectionENS_14default_deleteIS2_EENS_9allocatorIS2_EEE21__on_zero_shared_weakEv, 
                        __ZNSt3__120__shared_ptr_pointerIPN10rpc_common10ConnectionENS_14default_deleteIS2_EENS_9allocatorIS2_EEED0Ev, 
                        __ZNSt3__120__shared_ptr_pointerIPN10rpc_common10ConnectionENS_14default_deleteIS2_EENS_9allocatorIS2_EEED1Ev, 
                        __ZNSt3__120__shared_ptr_pointerIPN3rpc9ObjectRefENS_14default_deleteIS2_EENS_9allocatorIS2_EEE16__on_zero_sharedEv, 
                        __ZNSt3__121__thread_specific_ptrINS_15__thread_structEE5resetEPS1_, 
                        __ZNSt3__127__tree_balance_after_insertIPNS_16__tree_node_baseIPvEEEEvT_S5_, 
                        __ZNSt3__13mapIyN13ThreadCallMap5ValueENS_4lessIyEENS_9allocatorINS_4pairIKyS2_EEEEEixERS7_, 
                        __ZNSt3__13mapIyNS_10unique_ptrI7PacketsNS_14default_deleteIS2_EEEENS_4lessIyEENS_9allocatorINS_4pairIKyS5_EEEEEixERSA_, 
                        __ZNSt3__15dequeIN10rpc_common9RPCPacketENS_9allocatorIS2_EEE19__add_back_capacityEv, 
                        __ZNSt3__15dequeIN10rpc_common9RPCPacketENS_9allocatorIS2_EEE9pop_frontEv, 
                        __ZNSt3__15dequeIN10rpc_common9RPCPacketENS_9allocatorIS2_EEE9push_backEOS2_, 
                        __ZNSt3__15dequeIN10rpc_common9RPCPacketENS_9allocatorIS2_EEED1Ev, 
                        __ZNSt3__16__treeINS_12__value_typeIN10rpc_common15RPCFunctionInfoENS_10shared_ptrINS2_19RPCFunctionInstanceEEEEENS_19__map_value_compareIS3_S7_NS_4lessIS3_EELb1EEENS_9allocatorIS7_EEE12__find_equalIS7_EERPNS_16__tree_node_baseIPvEESK_RKT_, 
                        __ZNSt3__16__treeINS_12__value_typeIN10rpc_common15RPCFunctionInfoENS_10shared_ptrINS2_19RPCFunctionInstanceEEEEENS_19__map_value_compareIS3_S7_NS_4lessIS3_EELb1EEENS_9allocatorIS7_EEE15__insert_uniqueINS_4pairIS3_S6_EEEENSG_INS_15__tree_iteratorIS7_PNS_11__tree_nodeIS7_PvEElEEbEEOT_, 
                        __ZNSt3__16__treeINS_12__value_typeIN10rpc_common15RPCFunctionInfoENS_10shared_ptrINS2_19RPCFunctionInstanceEEEEENS_19__map_value_compareIS3_S7_NS_4lessIS3_EELb1EEENS_9allocatorIS7_EEE16__construct_nodeIJNS_4pairIS3_S6_EEEEENS_10unique_ptrINS_11__tree_nodeIS7_PvEENS_22__tree_node_destructorINSC_ISL_EEEEEEDpOT_, 
                        __ZNSt3__16__treeINS_12__value_typeIN10rpc_common15RPCFunctionInfoENS_10shared_ptrINS2_19RPCFunctionInstanceEEEEENS_19__map_value_compareIS3_S7_NS_4lessIS3_EELb1EEENS_9allocatorIS7_EEE20__node_insert_uniqueEPNS_11__tree_nodeIS7_PvEE, 
                        __ZNSt3__16__treeINS_12__value_typeIN10rpc_common15RPCFunctionInfoENS_10shared_ptrINS2_19RPCFunctionInstanceEEEEENS_19__map_value_compareIS3_S7_NS_4lessIS3_EELb1EEENS_9allocatorIS7_EEE4findIS3_EENS_15__tree_iteratorIS7_PNS_11__tree_nodeIS7_PvEElEERKT_, 
                        __ZNSt3__16__treeINS_12__value_typeIyN13ThreadCallMap5ValueEEENS_19__map_value_compareIyS4_NS_4lessIyEELb1EEENS_9allocatorIS4_EEE16__insert_node_atEPNS_16__tree_node_baseIPvEERSF_SF_, 
                        __ZNSt3__16__treeINS_12__value_typeIyN13ThreadCallMap5ValueEEENS_19__map_value_compareIyS4_NS_4lessIyEELb1EEENS_9allocatorIS4_EEE5eraseENS_21__tree_const_iteratorIS4_PNS_11__tree_nodeIS4_PvEElEE, 
                        __ZNSt3__16__treeINS_12__value_typeIyNS_10unique_ptrI7PacketsNS_14default_deleteIS3_EEEEEENS_19__map_value_compareIyS7_NS_4lessIyEELb1EEENS_9allocatorIS7_EEE5eraseENS_21__tree_const_iteratorIS7_PNS_11__tree_nodeIS7_PvEElEE, 
                        __ZNSt3__16__treeINS_12__value_typeIyNS_10unique_ptrI7PacketsNS_14default_deleteIS3_EEEEEENS_19__map_value_compareIyS7_NS_4lessIyEELb1EEENS_9allocatorIS7_EEE7destroyEPNS_11__tree_nodeIS7_PvEE, 
                        __ZNSt3__16__treeINS_12basic_stringIcNS_11char_traitsIcEENS_9allocatorIcEEEENS_4lessIS6_EENS4_IS6_EEE12__find_equalIS6_EERPNS_16__tree_node_baseIPvEESG_RKT_, 
                        __ZNSt3__16__treeINS_12basic_stringIcNS_11char_traitsIcEENS_9allocatorIcEEEENS_4lessIS6_EENS4_IS6_EEE15__insert_uniqueERKS6_, 
                        __ZNSt3__16__treeINS_12basic_stringIcNS_11char_traitsIcEENS_9allocatorIcEEEENS_4lessIS6_EENS4_IS6_EEE16__construct_nodeIJRKS6_EEENS_10unique_ptrINS_11__tree_nodeIS6_PvEENS_22__tree_node_destructorINS4_ISH_EEEEEEDpOT_, 
                        __ZNSt3__16__treeINS_4pairIPFvPvRN3rpc10ConnectionEES2_EENS_4lessIS8_EENS_9allocatorIS8_EEE12__find_equalIS8_EERPNS_16__tree_node_baseIS2_EESI_RKT_, 
                        __ZNSt3__16__treeINS_4pairIPFvPvRN3rpc10ConnectionEES2_EENS_4lessIS8_EENS_9allocatorIS8_EEE14__assign_multiINS_21__tree_const_iteratorIS8_PNS_11__tree_nodeIS8_S2_EElEEEEvT_SK_, 
                        __ZNSt3__16__treeINS_4pairIPFvPvRN3rpc10ConnectionEES2_EENS_4lessIS8_EENS_9allocatorIS8_EEE14__insert_multiERKS8_, 
                        __ZNSt3__16__treeINS_4pairIPFvPvRN3rpc10ConnectionEES2_EENS_4lessIS8_EENS_9allocatorIS8_EEE15__insert_uniqueERKS8_, 
                        __ZNSt3__16__treeINS_4pairIPFvPvRN3rpc10ConnectionEES2_EENS_4lessIS8_EENS_9allocatorIS8_EEE16__find_leaf_highERPNS_16__tree_node_baseIS2_EERKS8_, 
                        __ZNSt3__16__treeINS_4pairIPFvPvRN3rpc10ConnectionEES2_EENS_4lessIS8_EENS_9allocatorIS8_EEE4findIS8_EENS_15__tree_iteratorIS8_PNS_11__tree_nodeIS8_S2_EElEERKT_, 
                        __ZNSt3__16__treeINS_4pairIPFvPvRN3rpc10ConnectionEES2_EENS_4lessIS8_EENS_9allocatorIS8_EEE5eraseENS_21__tree_const_iteratorIS8_PNS_11__tree_nodeIS8_S2_EElEE, 
                        __ZNSt3__16__treeINS_4pairIPFvPvRN3rpc10ConnectionEES2_EENS_4lessIS8_EENS_9allocatorIS8_EEE7destroyEPNS_11__tree_nodeIS8_S2_EE, 
                        __ZNSt3__16__treeINS_4pairIPFvPvRN3rpc10ConnectionEES2_EENS_4lessIS8_EENS_9allocatorIS8_EEE8__detachEPNS_11__tree_nodeIS8_S2_EE, 
                        __ZNSt3__16vectorINS_10shared_ptrIN10rpc_common10ConnectionEEENS_9allocatorIS4_EEE21__push_back_slow_pathIRKS4_EEvOT_, 
                        __ZNSt3__16vectorINS_10shared_ptrIN10rpc_common10ConnectionEEENS_9allocatorIS4_EEE26__swap_out_circular_bufferERNS_14__split_bufferIS4_RS6_EE, 
                        __ZNSt3__16vectorINS_12basic_stringIcNS_11char_traitsIcEENS_9allocatorIcEEEENS4_IS6_EEE21__push_back_slow_pathIS6_EEvOT_, 
                        __ZNSt3__16vectorINS_4pairIjjEENS_9allocatorIS2_EEE21__push_back_slow_pathIS2_EEvOT_, 
                        __ZNSt3__16vectorIjNS_9allocatorIjEEE21__push_back_slow_pathIRKjEEvOT_, 
                        __ZNSt3__16vectorIjNS_9allocatorIjEEE26__swap_out_circular_bufferERNS_14__split_bufferIjRS2_EE, 
                        __ZNSt3__16vectorIjNS_9allocatorIjEEED1Ev, __ZNSt3__18functionIFbPKvmEEC2EOS4_, 
                        __ZNSt3__18functionIFbPKvmEEC2ERKS4_, __ZTI110_ZN4lldb12SBBreakpoint11SetCallbackEPFbPvRNS_9SBProcessERNS_8SBThreadERNS_20SBBreakpointLocationEES1__callback, 
                        __ZTI50_ZN4lldb10SBDebugger6CreateEbPFvPKcPvES3__callback, 
                        __ZTI84_ZN4lldb20SBCommandInterpreter26SetCommandOverrideCallbackEPKcPFbPvPS2_ES3__callback, 
                        __ZTI98_ZN4lldb19SBExpressionOptions17SetCancelCallbackEPFbNS_25ExpressionEvaluationPhaseEPvES2__callback, 
                        __ZTIN10rpc_common13RPCConnectionE, __ZTINSt3__110__function6__baseIFbPKvmEEE, 
                        __ZTINSt3__117bad_function_callE, __ZTINSt3__120__shared_ptr_pointerIP110_ZN4lldb12SBBreakpoint11SetCallbackEPFbPvRNS_9SBProcessERNS_8SBThreadERNS_20SBBreakpointLocationEES1__callbackNS_14default_deleteIS1_EENS_9allocatorIS1_EEEE, 
                        __ZTINSt3__120__shared_ptr_pointerIP50_ZN4lldb10SBDebugger6CreateEbPFvPKcPvES3__callbackNS_14default_deleteIS1_EENS_9allocatorIS1_EEEE, 
                        __ZTINSt3__120__shared_ptr_pointerIP84_ZN4lldb20SBCommandInterpreter26SetCommandOverrideCallbackEPKcPFbPvPS2_ES3__callbackNS_14default_deleteIS1_EENS_9allocatorIS1_EEEE, 
                        __ZTINSt3__120__shared_ptr_pointerIP98_ZN4lldb19SBExpressionOptions17SetCancelCallbackEPFbNS_25ExpressionEvaluationPhaseEPvES2__callbackNS_14default_deleteIS1_EENS_9allocatorIS1_EEEE, 
                        __ZTINSt3__120__shared_ptr_pointerIPN10rpc_common10ConnectionENS_14default_deleteIS2_EENS_9allocatorIS2_EEEE, 
                        __ZTINSt3__120__shared_ptr_pointerIPN3rpc9ObjectRefENS_14default_deleteIS2_EENS_9allocatorIS2_EEEE, 
                        __ZTS110_ZN4lldb12SBBreakpoint11SetCallbackEPFbPvRNS_9SBProcessERNS_8SBThreadERNS_20SBBreakpointLocationEES1__callback, 
                        __ZTS50_ZN4lldb10SBDebugger6CreateEbPFvPKcPvES3__callback, 
                        __ZTS84_ZN4lldb20SBCommandInterpreter26SetCommandOverrideCallbackEPKcPFbPvPS2_ES3__callback, 
                        __ZTS98_ZN4lldb19SBExpressionOptions17SetCancelCallbackEPFbNS_25ExpressionEvaluationPhaseEPvES2__callback, 
                        __ZTSN10rpc_common13RPCConnectionE, __ZTSN10rpc_common5BytesE, 
                        __ZTSN3rpc9ObjectRefE, __ZTSNSt3__110__function6__baseIFbPKvmEEE, 
                        __ZTSNSt3__114default_deleteI110_ZN4lldb12SBBreakpoint11SetCallbackEPFbPvRNS_9SBProcessERNS_8SBThreadERNS_20SBBreakpointLocationEES1__callbackEE, 
                        __ZTSNSt3__114default_deleteI50_ZN4lldb10SBDebugger6CreateEbPFvPKcPvES3__callbackEE, 
                        __ZTSNSt3__114default_deleteI84_ZN4lldb20SBCommandInterpreter26SetCommandOverrideCallbackEPKcPFbPvPS2_ES3__callbackEE, 
                        __ZTSNSt3__114default_deleteI98_ZN4lldb19SBExpressionOptions17SetCancelCallbackEPFbNS_25ExpressionEvaluationPhaseEPvES2__callbackEE, 
                        __ZTSNSt3__114default_deleteIN10rpc_common10ConnectionEEE, 
                        __ZTSNSt3__114default_deleteIN3rpc9ObjectRefEEE, 
                        __ZTSNSt3__117bad_function_callE, __ZTSNSt3__120__shared_ptr_pointerIP110_ZN4lldb12SBBreakpoint11SetCallbackEPFbPvRNS_9SBProcessERNS_8SBThreadERNS_20SBBreakpointLocationEES1__callbackNS_14default_deleteIS1_EENS_9allocatorIS1_EEEE, 
                        __ZTSNSt3__120__shared_ptr_pointerIP50_ZN4lldb10SBDebugger6CreateEbPFvPKcPvES3__callbackNS_14default_deleteIS1_EENS_9allocatorIS1_EEEE, 
                        __ZTSNSt3__120__shared_ptr_pointerIP84_ZN4lldb20SBCommandInterpreter26SetCommandOverrideCallbackEPKcPFbPvPS2_ES3__callbackNS_14default_deleteIS1_EENS_9allocatorIS1_EEEE, 
                        __ZTSNSt3__120__shared_ptr_pointerIP98_ZN4lldb19SBExpressionOptions17SetCancelCallbackEPFbNS_25ExpressionEvaluationPhaseEPvES2__callbackNS_14default_deleteIS1_EENS_9allocatorIS1_EEEE, 
                        __ZTSNSt3__120__shared_ptr_pointerIPN10rpc_common10ConnectionENS_14default_deleteIS2_EENS_9allocatorIS2_EEEE, 
                        __ZTSNSt3__120__shared_ptr_pointerIPN3rpc9ObjectRefENS_14default_deleteIS2_EENS_9allocatorIS2_EEEE, 
                        __ZTSPPKc, __ZTV110_ZN4lldb12SBBreakpoint11SetCallbackEPFbPvRNS_9SBProcessERNS_8SBThreadERNS_20SBBreakpointLocationEES1__callback, 
                        __ZTV50_ZN4lldb10SBDebugger6CreateEbPFvPKcPvES3__callback, 
                        __ZTV84_ZN4lldb20SBCommandInterpreter26SetCommandOverrideCallbackEPKcPFbPvPS2_ES3__callback, 
                        __ZTV98_ZN4lldb19SBExpressionOptions17SetCancelCallbackEPFbNS_25ExpressionEvaluationPhaseEPvES2__callback, 
                        __ZTVNSt3__117bad_function_callE, __ZTVNSt3__120__shared_ptr_pointerIP110_ZN4lldb12SBBreakpoint11SetCallbackEPFbPvRNS_9SBProcessERNS_8SBThreadERNS_20SBBreakpointLocationEES1__callbackNS_14default_deleteIS1_EENS_9allocatorIS1_EEEE, 
                        __ZTVNSt3__120__shared_ptr_pointerIP50_ZN4lldb10SBDebugger6CreateEbPFvPKcPvES3__callbackNS_14default_deleteIS1_EENS_9allocatorIS1_EEEE, 
                        __ZTVNSt3__120__shared_ptr_pointerIP84_ZN4lldb20SBCommandInterpreter26SetCommandOverrideCallbackEPKcPFbPvPS2_ES3__callbackNS_14default_deleteIS1_EENS_9allocatorIS1_EEEE, 
                        __ZTVNSt3__120__shared_ptr_pointerIP98_ZN4lldb19SBExpressionOptions17SetCancelCallbackEPFbNS_25ExpressionEvaluationPhaseEPvES2__callbackNS_14default_deleteIS1_EENS_9allocatorIS1_EEEE, 
                        __ZTVNSt3__120__shared_ptr_pointerIPN10rpc_common10ConnectionENS_14default_deleteIS2_EENS_9allocatorIS2_EEEE, 
                        __ZTVNSt3__120__shared_ptr_pointerIPN3rpc9ObjectRefENS_14default_deleteIS2_EENS_9allocatorIS2_EEEE, 
                        ___clang_call_terminate ]
...
